(dp0
S'domain'
p1
ccopy_reg
_reconstructor
p2
(copenmc.universe
Cell
p3
c__builtin__
object
p4
Ntp5
Rp6
(dp7
S'_type'
p8
S'normal'
p9
sS'_rotation'
p10
NsS'_fill'
p11
g2
(copenmc.material
Material
p12
g4
Ntp13
Rp14
(dp15
S'_density_units'
p16
S'g/cm3'
p17
sS'_density'
p18
F0.043439030625154515
sS'_sab'
p19
NsS'_name'
p20
S''
p21
sS'_nuclides'
p22
(dp23
sS'_elements'
p24
(dp25
sS'_id'
p26
I10005
sbsg20
g21
sS'_translation'
p27
NsS'_offset'
p28
Nsg26
I10016
sS'_surfaces'
p29
(dp30
I10005
(g2
(copenmc.surface
ZCylinder
p31
g4
Ntp32
Rp33
(dp34
g8
S'z-cylinder'
p35
sS'_R'
p36
NsS'_coeffs'
p37
(dp38
S'y0'
p39
F0.0
sS'x0'
p40
F0.0
sS'R'
p41
F0.43688
ssg20
g21
sS'_bc_type'
p42
S'transmission'
p43
sg26
I10005
sS'_x0'
p44
NsS'_coeff_keys'
p45
(lp46
g40
ag39
ag41
asS'_y0'
p47
Nsbcnumpy.core.multiarray
scalar
p48
(cnumpy
dtype
p49
(S'i8'
p50
I0
I1
tp51
Rp52
(I3
S'<'
p53
NNNI-1
I-1
I0
tp54
bS'\x01\x00\x00\x00\x00\x00\x00\x00'
p55
tp56
Rp57
tp58
sI10006
(g2
(g31
g4
Ntp59
Rp60
(dp61
g8
g35
sg36
Nsg37
(dp62
g39
F0.0
sg40
F0.0
sg41
F0.48387
ssg20
g21
sg42
g43
sg26
I10006
sg44
Nsg45
(lp63
g40
ag39
ag41
asg47
Nsbg48
(g52
S'\xff\xff\xff\xff\xff\xff\xff\xff'
p64
tp65
Rp66
tp67
ssbsS'group bounds'
p68
cnumpy.core.multiarray
_reconstruct
p69
(cnumpy
ndarray
p70
(I0
tp71
S'b'
p72
tp73
Rp74
(I1
(I3
tp75
g49
(S'f8'
p76
I0
I1
tp77
Rp78
(I3
S'<'
p79
NNNI-1
I-1
I0
tp80
bI00
S'\x00\x00\x00\x00\x00\x00\x00\x00\xf1h\xe3\x88\xb5\xf8\xa4>\x00\x00\x00\x00\x00\x00$@'
p81
tp82
bsS'tallies'
p83
(dp84
S'flux'
p85
g2
(copenmc.tallies
Tally
p86
g4
Ntp87
Rp88
(dp89
S'_num_tot_score_bins'
p90
I1
sS'_label'
p91
S'2 groups'
p92
sS'_filters'
p93
(lp94
g2
(copenmc.tallies
Filter
p95
g4
Ntp96
Rp97
(dp98
S'_mesh'
p99
Nsg8
S'distribcell'
p100
sg28
I9
sS'_stride'
p101
I1
sS'_bin_edges'
p102
(lp103
I10016
asbag2
(g95
g4
Ntp104
Rp105
(dp106
g99
Nsg8
S'energy'
p107
sg28
I0
sg101
I1
sg102
(lp108
F0.0
aF6.25e-07
aF10.0
asbasS'_sum_sq'
p109
g69
(g70
(I0
tp110
g72
tp111
Rp112
(I1
(I2
I1
tp113
g78
I00
S'\xc4\xb9\x02\x87q\x83\x06?\xd1|\x08\xfdY\xbfB?'
p114
tp115
bsS'_std_dev'
p116
g69
(g70
(I0
tp117
g72
tp118
Rp119
(I1
(I2
I1
tp120
g78
I00
S'\xe4\xa1q\x8fwC.?\x05\xe0J\xb8\x8c\x1aK?'
p121
tp122
bsS'_num_tot_filter_bins'
p123
I2
sS'_mean'
p124
g69
(g70
(I0
tp125
g72
tp126
Rp127
(I1
(I2
I1
tp128
g78
I00
S'p\x84\x0b!\xee\xf7g?\xd83f\xe7\x97\xdf\x85?'
p129
tp130
bsS'_num_realizations'
p131
I5
sg22
(lp132
sS'_sum'
p133
g69
(g70
(I0
tp134
g72
tp135
Rp136
(I1
(I2
I1
tp137
g78
I00
S'\x8ceN\xa9\xe9\xf5\x8d?\xce\xc0?\xe1}W\xab?'
p138
tp139
bsS'_estimator'
p140
S'tracklength'
p141
sS'_scores'
p142
(lp143
g85
asg26
I10152
sbsS'fission'
p144
g2
(g86
g4
Ntp145
Rp146
(dp147
g90
I1
sg91
S'2 groups'
p148
sg93
(lp149
g2
(g95
g4
Ntp150
Rp151
(dp152
g99
Nsg8
g100
sg28
I9
sg101
I1
sg102
(lp153
I10016
asbag2
(g95
g4
Ntp154
Rp155
(dp156
g99
Nsg8
g107
sg28
I0
sg101
I1
sg102
(lp157
F0.0
aF6.25e-07
aF10.0
asbasg109
g69
(g70
(I0
tp158
g72
tp159
Rp160
(I1
(I2
I1
tp161
g78
I00
S'\x00\x00\x00\x00\x00\x00\x00\x00\x00\x00\x00\x00\x00\x00\x00\x00'
p162
tp163
bsg116
g69
(g70
(I0
tp164
g72
tp165
Rp166
(I1
(I2
I1
tp167
g78
I00
S'\x00\x00\x00\x00\x00\x00\x00\x00\x00\x00\x00\x00\x00\x00\x00\x00'
p168
tp169
bsg123
I2
sg124
g69
(g70
(I0
tp170
g72
tp171
Rp172
(I1
(I2
I1
tp173
g78
I00
S'\x00\x00\x00\x00\x00\x00\x00\x00\x00\x00\x00\x00\x00\x00\x00\x00'
p174
tp175
bsg131
I5
sg22
(lp176
sg133
g69
(g70
(I0
tp177
g72
tp178
Rp179
(I1
(I2
I1
tp180
g78
I00
S'\x00\x00\x00\x00\x00\x00\x00\x00\x00\x00\x00\x00\x00\x00\x00\x00'
p181
tp182
bsg140
g141
sg142
(lp183
g144
asg26
I10166
sbssS'subdomain offsets'
p184
(dp185
I564
g48
(g52
S'\x00\x00\x00\x00\x00\x00\x00\x00'
p186
tp187
Rp188
ssS'offset'
p189
I9
sS'domain type'
p190
g100
sS'xs'
p191
g69
(g70
(I0
tp192
g72
tp193
Rp194
(I1
(I1
I2
tp195
g49
(S'O8'
p196
I0
I1
tp197
Rp198
(I3
S'|'
p199
NNNI-1
I-1
I63
tp200
bI00
(lp201
g2
(cuncertainties
AffineScalarFunc
p202
g4
Ntp203
Rp204
(dp205
S'_nominal_value'
p206
F0.0
sS'derivatives'
p207
(dp208
g2
(cuncertainties
Variable
p209
g4
Ntp210
Rp211
(dp212
g206
F0.0
sS'_std_dev'
p213
g2
(cuncertainties
CallableStdDev
p214
c__builtin__
float
p215
F0.0
tp216
Rp217
sS'tag'
p218
Nsg207
(dp219
g211
F1.0
ssbF93.629655748957
sg2
(g209
g4
Ntp220
Rp221
(dp222
g206
F0.01068037676739124
sg213
g2
(g214
g215
F0.0008271395787096131
tp223
Rp224
sg218
Nsg207
(dp225
g221
F1.0
ssbF0.0
ssbag2
(g202
g4
Ntp226
Rp227
(dp228
g206
F0.0
sg207
(dp229
g2
(g209
g4
Ntp230
Rp231
(dp232
g206
F0.0
sg213
g2
(g214
g215
F0.0
tp233
Rp234
sg218
Nsg207
(dp235
g231
F1.0
ssbF341.7822456369739
sg2
(g209
g4
Ntp236
Rp237
(dp238
g206
F0.0029258395155556324
sg213
g2
(g214
g215
F0.00023089251019149583
tp239
Rp240
sg218
Nsg207
(dp241
g237
F1.0
ssbF0.0
ssbatp242
bsS'# groups'
p243
I2
sS'xs type'
p244
g144
s.