(dp0
S'domain'
p1
ccopy_reg
_reconstructor
p2
(copenmc.universe
Cell
p3
c__builtin__
object
p4
Ntp5
Rp6
(dp7
S'_type'
p8
S'normal'
p9
sS'_rotation'
p10
NsS'_fill'
p11
g2
(copenmc.material
Material
p12
g4
Ntp13
Rp14
(dp15
S'_density_units'
p16
S'g/cm3'
p17
sS'_density'
p18
F0.07425478275227912
sS'_sab'
p19
NsS'_name'
p20
S''
p21
sS'_nuclides'
p22
(dp23
sS'_elements'
p24
(dp25
sS'_id'
p26
I10003
sbsg20
g21
sS'_translation'
p27
NsS'_offset'
p28
Nsg26
I10014
sS'_surfaces'
p29
(dp30
I10004
(g2
(copenmc.surface
ZCylinder
p31
g4
Ntp32
Rp33
(dp34
g8
S'z-cylinder'
p35
sS'_R'
p36
NsS'_coeffs'
p37
(dp38
S'y0'
p39
F0.0
sS'x0'
p40
F0.0
sS'R'
p41
F0.60198
ssg20
g21
sS'_bc_type'
p42
S'transmission'
p43
sg26
I10004
sS'_x0'
p44
NsS'_coeff_keys'
p45
(lp46
g40
ag39
ag41
asS'_y0'
p47
Nsbcnumpy.core.multiarray
scalar
p48
(cnumpy
dtype
p49
(S'i8'
p50
I0
I1
tp51
Rp52
(I3
S'<'
p53
NNNI-1
I-1
I0
tp54
bS'\x01\x00\x00\x00\x00\x00\x00\x00'
p55
tp56
Rp57
tp58
ssbsS'group bounds'
p59
cnumpy.core.multiarray
_reconstruct
p60
(cnumpy
ndarray
p61
(I0
tp62
S'b'
p63
tp64
Rp65
(I1
(I3
tp66
g49
(S'f8'
p67
I0
I1
tp68
Rp69
(I3
S'<'
p70
NNNI-1
I-1
I0
tp71
bI00
S'\x00\x00\x00\x00\x00\x00\x00\x00\xf1h\xe3\x88\xb5\xf8\xa4>\x00\x00\x00\x00\x00\x00$@'
p72
tp73
bsS'tallies'
p74
(dp75
S'flux'
p76
g2
(copenmc.tallies
Tally
p77
g4
Ntp78
Rp79
(dp80
S'_num_tot_score_bins'
p81
I1
sS'_label'
p82
S'2 groups'
p83
sS'_filters'
p84
(lp85
g2
(copenmc.tallies
Filter
p86
g4
Ntp87
Rp88
(dp89
S'_mesh'
p90
Nsg8
S'distribcell'
p91
sg28
I7
sS'_stride'
p92
I1
sS'_bin_edges'
p93
(lp94
I10014
asbag2
(g86
g4
Ntp95
Rp96
(dp97
g90
Nsg8
S'energy'
p98
sg28
I0
sg92
I24
sg93
(lp99
F0.0
aF6.25e-07
aF10.0
asbasS'_sum_sq'
p100
g60
(g61
(I0
tp101
g63
tp102
Rp103
(I1
(I48
I1
tp104
g69
I00
S"\\\x80\xb5'\xc7vA?\xea4\x1a0\xe9`z?\xba\xb1\xc2f\xc6\x85@?d\x177\r~\xd4z?x\xa9g\xdeYq9?J\x87\x9d\xcf*Ix?\xf3\xd4\x07d\xf1\x8b@?\xb2jt\xc0W!z?\xc7\x0e\xa5w}\xd6<?\xda\xc2\xa1k\x92\xfdx?\xe0r\x1d\xf1@\xe3A?9\xd5N\xee\x1ecw?\x9e\x11\xcaT\xcc\x8eA?\xa3\xfe\x08\xb7?{x?\xea\xe7\xc7\xd8\x95\xf8??\xdb\xff\x9buI&x?\xa3&\xa2\xf36s@?\xc0WB\x1aV^u?\xbe\xcc|A\x90:=?}?Qt\xf8\xe3w?\xf9oKGr\x9f@?\xb4\x0eTU\xc0(y?\x94\xe8\xc0\xd6UnA?\xf5\x80Tw\xda\xe9w?\xbc\x9b@\xad8\xa3A?\xfc\xfb\x11-\xd3Lx?Y\x14\rea\xfb;?A~\xc0\xe4\xdd\x00w?\xf0\x99\xcdoZp<?#\xfd\x9c\xf6x\xb2x?\xdd\xed\xd3\x1ck\xaa@?J\x04^2\xec\xaax?e`\xec\x0e\xb4\xde??P\xfa\x9f\xcc\x00px?W)\xaaAc&??zk\xe8-X\xc3x?P=4\xde\xebb;?\x04\xd4h\x15\xcf%y?\x04|6\x15?\xdd<?6Q\xcd\x0eb\xeax?\xee\xcd\xf9\x83\x93LB?p\xcd\xad\xe0v\xadx?\xa2\r6\xec\xb9\x15@?rF\xc6>W(z?\xa5\xd29\xc3\x14\x80;?\xafH\x04a\xf9+y?IQ\x9f\xabv\xad??\xc1\x15ZHc7x?"
p105
tp106
bsS'_std_dev'
p107
g60
(g61
(I0
tp108
g63
tp109
Rp110
(I1
(I48
I1
tp111
g69
I00
S'cu\xaeO+_`?\x9aiu\x8fM4Y?\x00\x83\xdd\xee7\xfaK?>\xd5\x1a&\xf8\xf6k?\x8e\x11"\xd1\xc9\x06[?\x8e7\x15t\xa3/`?\x1e\rKf\xc9\x13Q?\xa3\xb3<\x9e\t\x81Z?xD?\xe4\xc8eN?\x82S\xea\x10\x08J_?\xb0\xce8?\x10S@?\xe12\x93\xa2r-N?\xbb\xbd\xa7\xe2\xc4\x03`?Mk\\\xa4w\x14O?\x08\xeb\r\xc5&PF?~\xa3Z\xb9\xe5\xed\\?\xc0\xc1\xb5\x03\xc3\xe6A?\xb6\x858\xdc\xc3\x91U?\x95\x88\xbd\xfc\xaf\xe5Q?\xe6\x90\x0bK\x87\x8a`?U\xfc\x0f\x9fAWX?g6\x0b\xcfE\x8cU?;)\x07\xddg\xf3P?\xc3b\xad\x90\xdd\x11d?\xe8t*\x83c:S?\xa0\xca;3\xb0\x1e]?_\xfd\x82\xe8\x8fEI?5\x85\xc3q M`?\x85\x1b\xa7\x0bi\xd8W?8\xbd\xd3B\x0c\rE?t;\xab\x1a\xfc\x1c;?.<\xf8/\xb2\xfeW?\xeav\x15e\xef\xffW?\xb2|\xf0\xb4\t\xebP?\x04l\xe3\x10\xa7\xddQ?g\xa0\x85\x0c\xc43W?\xb2\xe4g\xe9F\rX?\x9e)\xa1<K\x99b?\x19\x9am\x1f>H[?\x85\xf6?\x88\x96\xbac?\xc2\x9e\xea\xa8\x90DF?w\xf9<c\x0e\xceW?\xcaL\x83\xe9f\x8dU?\r)<\xbc\x868a?3\xfe\xba\x87~IS?\xae\xb4r\xa7\x84\x00b?\xc4\x03\x92z-rF?\xaf\x91\xb6c\x1f{U?'
p112
tp113
bsS'_num_tot_filter_bins'
p114
I48
sS'_mean'
p115
g60
(g61
(I0
tp116
g63
tp117
Rp118
(I1
(I48
I1
tp119
g69
I00
S'h?\xd6\xc2\t\xf0\x84?\xed\xf4\xa2\x95\xca]\xa2?\x1e\xbe\x0e|\x1e\x87\x84?.18\xae(}\xa2?6E\xf4\x14\xa5\xe1\x81?\\\xcf\xb7^\xb9\x9d\xa1?X\xd169\x1d\x86\x84?P\xcd@lYG\xa2?\xb4f<e\xef)\x83?\xdaN8\xed\x0b\xdf\xa1?K]\x92\xff\xf5b\x85?:j4]oL\xa1?\x0c\xe3x\x04\xfd\x00\x85?\x12\x8f\xd8\xc3\xd6\xb2\xa1?\xe2\x1b\x12TW4\x84?\x92s~6\xd0\x91\xa1?\n\xe4\x8b\xa9b\x81\x84?D{\xdf\xb1\xfd\x87\xa0?\x95q\x7f\xd3oF\x83?+\xae\x99\xa3\xa2x\xa1?]\x15\x9b\x8e\x10\x83\x84?\th\xc4]X\xf0\xa1?\xc8Kf\xcb\xab\x11\x85?\x0c\x1bv1\xdfx\xa1?\x92)\xb1|\xab-\x85?\x8f\xf1Q\xf1\xc9\x9f\xa1?\xfaA\xba\x93 \xe4\x82?e\xe6Q5\xc6$\xa1?\xe5\xb2\xdb\x9dB\xf5\x82?\x92\xe8\x14\xd0=\xc7\xa1?\xf2\x07\x12Qs\xa5\x84?\x07@%6\xd3\xc2\xa1?\x9dd\xe5\xce\xda\x14\x84?`\x87\xb3>\x9b\xae\xa1?\xe4\x19\x8dk.\xe7\x83?E\xbd\xba\xc7\xc0\xcb\xa1?eu\xdd\xfb\xe1\x98\x82?\xfb\x8f\x15\x1f\xf8\xeb\xa1?\xb5G\xd4\x9eS\x10\x83?#\xb9\xcf\x87\x11\xd6\xa1?=\xb4\x01\xfc\xe2\x9e\x85?\xfb\xff\x8b$\xc6\xc3\xa1?\xe2\xb2h\xe8\xfc2\x84?D\x13\xea6\x15H\xa2?\n!\xc5\x84d\xae\x82?\xce\x84,\x84|\xee\xa1?\xc2\xa6\xcc\xe6i\x1c\x84?EM#\x1cl\x99\xa1?'
p120
tp121
bsS'_num_realizations'
p122
I5
sg22
(lp123
sS'_sum'
p124
g60
(g61
(I0
tp125
g63
tp126
Rp127
(I1
(I48
I1
tp128
g69
I00
S'B\xcf\x8b3\x0c,\xaa?(\xb2\x0b;=\xf5\xc6?\xa5m\x12\x1b\xe6\xa8\xa9?z=\xc6\xd9r\x1c\xc7?\x84V1Z\x0eZ\xa6?3\xc3e\xb6\'\x05\xc6?\xae\x85\x84\x87\xa4\xa7\xa9?\xa4\x00Q\xc7/\xd9\xc6?a\x80\x8b>k\xf4\xa7?\x91b\x86\xe8\xceV\xc6?\x9e\xf4v\x7f\xb3\xbb\xaa?\xc9\x84\x814\x8b\x9f\xc5?\xcf\x1b\x97E<A\xaa?\xd6\xb2\xcet\x8c\x1f\xc6?\xda\xa2\x16)mA\xa9?v\x10\x1eDD\xf6\xc5?\x0c\xdd\xeeS\xbb\xa1\xa9?\x15ZW\x1e\xfd\xa9\xc4?\xfaM_\xc8\x0b\x18\xa8?\xb6\x19\x80L\xcb\xd6\xc5?\xb4\xdaA\xb2\xd4\xa3\xa9?\x0b\x825unl\xc6?\xba\xde?\xbe\x16V\xaa?\xcf\xa1\xd3\xfd\x16\xd7\xc5?\xf7s\xdd[\x16y\xaa?\xf3m\xa6m\xbc\x07\xc6?x\xd2\xa8\xb8(\x9d\xa7?\xfe_\xa6\xc2\xf7m\xc5?\x9e\x9fRE\x93\xb2\xa7?\xb6"\x1aD\r9\xc6?\xef\x89V%\xd0\xce\xa9?\t\x90\xae\x03\x883\xc6?\xc4\xbd\x9e\x82\x11\x1a\xa9?8i`\x0eB\x1a\xc6?]`p\x06\xfa\xe0\xa8?\x96l\xa9\xf9\xb0>\xc6?\xbe\xd2\xd4z\x1a?\xa7?\xfa\xf3\xda&\xf6f\xc6?\xa2Y\x89\x86h\xd4\xa7?l\xa7\xc3\xe9\x95K\xc6?L!\x02\xbb\x9b\x06\xab?\xfa\xff\xae\xad\xb74\xc6?\x9b\xdf\x82"\xbc?\xa9?\x15\x98\xa4\x84\x1a\xda\xc6?Li\xf6\xa5\xfdY\xa7?\x02\xa67\xa5\x1bj\xc6?r\xd0\x7f`\x84#\xa9?\x96 ,#\xc7\xff\xc5?'
p129
tp130
bsS'_estimator'
p131
S'tracklength'
p132
sS'_scores'
p133
(lp134
g76
asg26
I10038
sbsS'total'
p135
g2
(g77
g4
Ntp136
Rp137
(dp138
g81
I1
sg82
S'2 groups'
p139
sg84
(lp140
g2
(g86
g4
Ntp141
Rp142
(dp143
g90
Nsg8
g91
sg28
I7
sg92
I1
sg93
(lp144
I10014
asbag2
(g86
g4
Ntp145
Rp146
(dp147
g90
Nsg8
g98
sg28
I0
sg92
I24
sg93
(lp148
F0.0
aF6.25e-07
aF10.0
asbasg100
g60
(g61
(I0
tp149
g63
tp150
Rp151
(I1
(I48
I1
tp152
g69
I00
S'J\xd7\xc12l\xb6R?{\xef\xb0W\xde\xb1g?\xd4\xeb\xcd\xa7N\xd1Q?\xfaI\x90\xf8[\xa2h?CJ\xcc\xab\xbb\xd3J?\xa8\xfd\xdd\xc8\xad\xb4f?\x85\xf3\x00d\x1f$R?s\\\xaaG{\x94g?\xd8y\xdd)\xef\x83O?\n\xae\x8d\x86\xe8\x06g?\x10\xc6\x14\xf3\xc6\xd6R?H\xf3fw\xd8\xe1d?\xc1Rm\xf4\x1a\xe3R?\x88\xc3k\xd1i9f?hrs\x14A>Q?\x9d\xce\xbd\xec\xd1\xa4f?:^\x128\x02\x1bR?\x02\xcf\xe0zi\xc0c?\x97\xaez3\xfbMO?TM\x9a\xca\xdfEf?\x00\x12}\x14\x9e\xe9Q?\x80\xec\xfb\x83\x99\xf6g?`@\xff\x01)\xfdR?\xc0\xe1\x90r\x81\x05g?\xf7-1\xcfG\nS?\xae`\xfa\x1b\xc3`f?pj"j\xd0\x1bN?>4U\xe0\xd6\xdfd?\x13\xac\x18\xc1>\xeeN?LZ\xd4\xe7\x02\tg?\x9f\xa7\xe1\xad\xf4\xf0Q?\xf0\x0b\xc3sa\xc4f?4\xb7k*\x06\x03Q?\xb2^\x1cu\x00gg?\xb1\x06\xc4Rl\xfcP?\xa99"z#\xb8f?2`\x16\xfdZ\x92M?\xecx\x91_\x19\xd7g?\xe0W?@\xd3\xfeN?\x85+\x14\xddC\x93g?"\x08\xcf\xe1\x82.T?\xf2[\xf4\x12i\x97f?\xbc#\xcb!B\xf7P?\xa7\x17}\xbd<\x9ah?\xc6\x94\x8c|\x9b!M?\xd9\xe3\xfc\xfcs\xa8f?\x93\xb6\x0f\r\x83\xccP?p\x92\n\x83\xb1\xb3f?'
p153
tp154
bsg107
g60
(g61
(I0
tp155
g63
tp156
Rp157
(I1
(I48
I1
tp158
g69
I00
S'\xbe\xba~\xff\xfd\xe4f?\x19\xbc\xa0a+\x9dT?Y\xe5n\xe6\xe9\x82V?\xd2T\xd6e\x18\xbea?S$-\x8cZ@c?\r6R-\xa7\xf8V?\xe1\xff\x9e\xe0N\xfeX?\x88\x95\xdf\x87@~T?\xf3\xe7\xcd\xd2\x84\xa9V?\xa9\xebDsN\x99Q?\xcb\xd8\xb0`^+J?\xe4\xb9\xee\t\xfa\x11Y?Q\xbf\x1e\xc5ahh?\xd2\x02\x1f\x1f\xf9WT?[\x02n\xe5w\x98L?\n\xb6\x7f{\x91\xcbP?\x10}]wV\xd1R?\xc0\xf1\xde\xee;ZV?\x7fuEf\xf4\xcfZ?\x86\x8e\x06\x14\xe8)W?\xd1\xb5\xdd+q\xc0c?}\xb3\xbdX\x07\xf3R?m\xe1\xd9*\xb5\x83X?u\xa9\xfa\xa2\xe1\xf5]?\x15\x90F\x0c\xcd\x18`?a\xfa\xf6\xeb\\MS?\x8e\xb6\x8c\x14\x9d\xcdS?\xac\xb8if\x1bAU?\xa1\xb9\x8a\xc7\xa3\xa9a?\xfa7\x82\x9f\xcdeN?\xa3\xa31\x13\x0f7>?.\x9b\xb04f\x1cP?\xc8\x1cD _\x88b?\x0f\xec\x8a\xbc\xbe\xfeH?\xd6{\x05(x\xcd`?\x9ek\x8dH\x89WN?#K\x99\xca\x1e\x1da?\x05\xaa\xb6\x05\xfeu`?\xb6\xd8E\x16\xb9:f?Y\xb4\x04\x1dZ\x84Z?\xde\xf9D\x12g?U?t\r{\xa7B\x90P?\xae\xa71\x00\xa3f^?\xb7\xdb#\xd3\xdeOb?5\xbd9_x~Z?\x06Y+DK\xeb`?{\xe8k\xc6w\xabQ?\xc8k5*N\xefT?'
p159
tp160
bsg114
I48
sg115
g60
(g61
(I0
tp161
g63
tp162
Rp163
(I1
(I48
I1
tp164
g69
I00
S'\xbe\xf4\xaf\x87W\xad\x8e?\xb45\xb7\xbb\x8a\x9c\x98?\x8a\x07\x1f\xe2\xb4"\x8e?\xf2\xf0\xe2\xc6\xc4\x0f\x99?\xdd!\xde\xb7\xdc\xf9\x89?u\xc2\xd7\xadY\x16\x98?\xcb\nV\x06\xb7d\x8e?\x83T\x95\xcbJ\x8d\x98?\x83\xa6\x89\xcf\xa9T\x8c?\xba\xdf5`9D\x98?\x8aP\xe0\x9d\xf1\x08\x8f?\xce\xbb\xb2\xd1\xf0\x17\x97?\x02\xc6\xb5%\xe5\xc8\x8e?\xaa\xb3\xf3\x00\xbc\xd5\x97?\xe2\xf7\xf1\xb9U\xaf\x8d?OW\xbd\xcd\x90\x10\x98?\xb3\xfd<\xd5Ff\x8e?\xce\xb6\x8a\x96\xc4v\x96?kQ\x9f\xf6\xb14\x8c?)Xc\x9b\x16\xdb\x97?sF\xfa\x9c\r\x13\x8e?K\x07\xea\x93\xe0\xc0\x98?\xc6o{47\x1a\x8f?)\\/\xce1=\x98?=e\xba\xba{\x16\x8f?`\xef\xfc\xf5F\xeb\x97?\x96\xf9\xfb\x07\xa4\xb4\x8b?\x8acg\x8a\xd0\x18\x97?f{\xb3\x91\x82\xf5\x8b?\xa3:a\xba,F\x98?\xfdh\xf1w\xf6L\x8e?\xe5\x12\x04o\x92!\x98?\xde\x16\x18\x0b\xcfR\x8d?\xf7X\xa6\x86Ux\x98?\xda)\x15$\xb3U\x8d?\xae\xb5:4d\x1b\x98?\xf0\xa4\xcc\xf3SW\x8b?\xeax\x95S\xf2\xa8\x98?\xae\x11N\x93\x06\xe2\x8b?\xe7(\'\x19\xaa\x89\x98?\xc2\xba\xa7\xadD\x0b\x90?\xe5}g+\x83\t\x98?J4t\xa3rX\x8d?\xba\x129\xaf\xc4\n\x99?\x8b\xb1\xd8\xccG4\x8b?I\xe8P\xa00\t\x98?UIv\xb4\xc8H\x8d?\xd1\xd6b,\xca\x16\x98?'
p165
tp166
bsg122
I5
sg22
(lp167
sg124
g60
(g61
(I0
tp168
g63
tp169
Rp170
(I1
(I48
I1
tp171
g69
I00
S'\xf7\xf8\xcd\xb4V,\xb3?!\x03\xa5j\xad\xc3\xbe?\xb6dS\r\xb1\xd5\xb2?.\xad\x9b\xf8\xb5S\xbf?*\xd5\xea\xf2)<\xb0?\x12\xb3M\x19\xf0\x1b\xbe?\xbf\xc6\xf5c\xf2\xfe\xb2?\xa4\xa9z~\x9d\xb0\xbe?\x12\x08\xb6!\xea\xb4\xb1?\xa9WC\xb8GU\xbe?V2\xac\x02\x97e\xb3?\xc2j\x1f\x06\xed\xdd\xbc?\xc1\x9b\x917\x8f=\xb3?\x94\xa00\x01+\xcb\xbd?\xed:7\x94\x95\x8d\xb2?#\xad,\x01\xb5\x14\xbe?\x90\x1eFE\xec\xff\xb2?\x82d-\xbcu\x14\xbc?\xe3\x92#:\xef\xa0\xb1?3.<B\xdc\xd1\xbd?\x08l\x1c\x82\xe8\xcb\xb2?\x1e\x89\xe4\xb8\x18\xf1\xbe?\xdc%\xcd\x80bp\xb3?33\xbbA~L\xbe?F\x7f\xb4T\rn\xb3?8+|\xb3\x18\xe6\xbd?\xfe{\xfd\x84\xe6P\xb1?l<\x01\xad\x04\xdf\xbc? -\x10\x9bqy\xb1?L\x89\xf9\xe8\xb7W\xbe?\x9e\xe1\xf6\n\x1a\xf0\xb2?\x9e\x17\xc5\n\xf7)\xbe?K\x0e\xeff\xc1S\xb2?5\xefO\xe8j\x96\xbe?(:\x8d\xf6\x8fU\xb2?\x1acIA="\xbe?\x16\xe7_x\x94\x16\xb1?%\xd7z\xe8.\xd3\xbe?\r\xcb\x10\x1cDm\xb1?!\xf3p\x9f\x14\xac\xbe?s\xa9\x11\xd9\x15\x0e\xb4?^]A\xf6\xe3\x0b\xbe?\xae\xa0(\xa6GW\xb2?iW\x07\xdbuM\xbf?\xf7n\x07\xe0\xac\x00\xb1?["e\xc8|\x0b\xbe?\xd5\xed\xc9p}M\xb2?\x85\x8c{\xb7|\x1c\xbe?'
p172
tp173
bsg131
g132
sg133
(lp174
g135
asg26
I10039
sbssS'subdomain offsets'
p175
(dp176
I389
g48
(g52
S'\t\x00\x00\x00\x00\x00\x00\x00'
p177
tp178
Rp179
sI776
g48
(g52
S'\x11\x00\x00\x00\x00\x00\x00\x00'
p180
tp181
Rp182
sI787
g48
(g52
S'\x12\x00\x00\x00\x00\x00\x00\x00'
p183
tp184
Rp185
sI917
g48
(g52
S'\x14\x00\x00\x00\x00\x00\x00\x00'
p186
tp187
Rp188
sI158
g48
(g52
S'\x00\x00\x00\x00\x00\x00\x00\x00'
p189
tp190
Rp191
sI544
g48
(g52
S'\n\x00\x00\x00\x00\x00\x00\x00'
p192
tp193
Rp194
sI169
g48
(g52
S'\x01\x00\x00\x00\x00\x00\x00\x00'
p195
tp196
Rp197
sI555
g48
(g52
S'\x0b\x00\x00\x00\x00\x00\x00\x00'
p198
tp199
Rp200
sI180
g48
(g52
S'\x02\x00\x00\x00\x00\x00\x00\x00'
p201
tp202
Rp203
sI952
g48
(g52
S'\x15\x00\x00\x00\x00\x00\x00\x00'
p204
tp205
Rp206
sI577
g48
(g52
S'\x0c\x00\x00\x00\x00\x00\x00\x00'
p207
tp208
Rp209
sI963
g48
(g52
S'\x16\x00\x00\x00\x00\x00\x00\x00'
p210
tp211
Rp212
sI588
g48
(g52
S'\r\x00\x00\x00\x00\x00\x00\x00'
p213
tp214
Rp215
sI974
g48
(g52
S'\x17\x00\x00\x00\x00\x00\x00\x00'
p216
tp217
Rp218
sI215
g48
(g52
S'\x03\x00\x00\x00\x00\x00\x00\x00'
p219
tp220
Rp221
sI345
g48
(g52
S'\x05\x00\x00\x00\x00\x00\x00\x00'
p222
tp223
Rp224
sI356
g48
(g52
S'\x06\x00\x00\x00\x00\x00\x00\x00'
p225
tp226
Rp227
sI743
g48
(g52
S'\x0e\x00\x00\x00\x00\x00\x00\x00'
p228
tp229
Rp230
sI878
g48
(g52
S'\x13\x00\x00\x00\x00\x00\x00\x00'
p231
tp232
Rp233
sI367
g48
(g52
S'\x07\x00\x00\x00\x00\x00\x00\x00'
p234
tp235
Rp236
sI754
g48
(g52
S'\x0f\x00\x00\x00\x00\x00\x00\x00'
p237
tp238
Rp239
sI378
g48
(g52
S'\x08\x00\x00\x00\x00\x00\x00\x00'
p240
tp241
Rp242
sI765
g48
(g52
S'\x10\x00\x00\x00\x00\x00\x00\x00'
p243
tp244
Rp245
sI254
g48
(g52
S'\x04\x00\x00\x00\x00\x00\x00\x00'
p246
tp247
Rp248
ssS'offset'
p249
I7
sS'domain type'
p250
g91
sS'xs'
p251
g60
(g61
(I0
tp252
g63
tp253
Rp254
(I1
(I24
I2
tp255
g49
(S'O8'
p256
I0
I1
tp257
Rp258
(I3
S'|'
p259
NNNI-1
I-1
I63
tp260
bI00
(lp261
g2
(cuncertainties
AffineScalarFunc
p262
g4
Ntp263
Rp264
(dp265
S'_nominal_value'
p266
F0.6700150499531013
sS'derivatives'
p267
(dp268
g2
(cuncertainties
Variable
p269
g4
Ntp270
Rp271
(dp272
g266
F0.024034660060171922
sS'_std_dev'
p273
g2
(cuncertainties
CallableStdDev
p274
c__builtin__
float
p275
F0.0012581752439577763
tp276
Rp277
sS'tag'
p278
Nsg267
(dp279
g271
F1.0
ssbF27.8770345940274
sg2
(g269
g4
Ntp280
Rp281
(dp282
g266
F0.03587182118051566
sg273
g2
(g274
g275
F0.0015383489061010281
tp283
Rp284
sg278
Nsg267
(dp285
g281
F1.0
ssbF-18.678032726061602
ssbag2
(g262
g4
Ntp286
Rp287
(dp288
g266
F1.4651653075664741
sg267
(dp289
g2
(g269
g4
Ntp290
Rp291
(dp292
g266
F0.01497906096300949
sg273
g2
(g274
g275
F0.0027947388552641275
tp293
Rp294
sg278
Nsg267
(dp295
g291
F1.0
ssbF97.81422955582278
sg2
(g269
g4
Ntp296
Rp297
(dp298
g266
F0.010223461397600622
sg273
g2
(g274
g275
F0.0019985052035297753
tp299
Rp300
sg278
Nsg267
(dp301
g297
F1.0
ssbF-143.31401573153477
ssbag2
(g262
g4
Ntp302
Rp303
(dp304
g266
F0.6777470167344087
sg267
(dp305
g2
(g269
g4
Ntp306
Rp307
(dp308
g266
F0.024474215163295683
sg273
g2
(g274
g275
F0.002165839817005557
tp309
Rp310
sg278
Nsg267
(dp311
g307
F1.0
ssbF27.69228807593533
sg2
(g269
g4
Ntp312
Rp313
(dp314
g266
F0.03611113669112097
sg273
g2
(g274
g275
F0.0034136625916640065
tp315
Rp316
sg278
Nsg267
(dp317
g313
F1.0
ssbF-18.76836563001501
ssbag2
(g262
g4
Ntp318
Rp319
(dp320
g266
F1.4680364911251342
sg267
(dp321
g2
(g269
g4
Ntp322
Rp323
(dp324
g266
F0.014714635039016394
sg273
g2
(g274
g275
F0.0013739856892541395
tp325
Rp326
sg278
Nsg267
(dp327
g323
F1.0
ssbF99.76710174819706
sg2
(g269
g4
Ntp328
Rp329
(dp330
g266
F0.010023344193398617
sg273
g2
(g274
g275
F0.0008538029776269107
tp331
Rp332
sg278
Nsg267
(dp333
g329
F1.0
ssbF-146.46174598014747
ssbag2
(g262
g4
Ntp334
Rp335
(dp336
g266
F0.683672678200632
sg267
(dp337
g2
(g269
g4
Ntp338
Rp339
(dp340
g266
F0.023522759662173393
sg273
g2
(g274
g275
F0.0014020569408644851
tp341
Rp342
sg278
Nsg267
(dp343
g339
F1.0
ssbF29.06430572004849
sg2
(g269
g4
Ntp344
Rp345
(dp346
g266
F0.034406464397675335
sg273
g2
(g274
g275
F0.0019758408022089785
tp347
Rp348
sg278
Nsg267
(dp349
g345
F1.0
ssbF-19.870471731667504
ssbag2
(g262
g4
Ntp350
Rp351
(dp352
g266
F1.4526819788492327
sg267
(dp353
g2
(g269
g4
Ntp354
Rp355
(dp356
g266
F0.012683605538556126
sg273
g2
(g274
g275
F0.0023500221736055065
tp357
Rp358
sg278
Nsg267
(dp359
g355
F1.0
ssbF114.53225775851453
sg2
(g269
g4
Ntp360
Rp361
(dp362
g266
F0.008731164648028238
sg273
g2
(g274
g275
F0.0016495676868838213
tp363
Rp364
sg278
Nsg267
(dp365
g361
F1.0
ssbF-166.37894684270927
ssbag2
(g262
g4
Ntp366
Rp367
(dp368
g266
F0.6715989505321247
sg267
(dp369
g2
(g269
g4
Ntp370
Rp371
(dp372
g266
F0.023976486850490374
sg273
g2
(g274
g275
F0.0012508039649160325
tp373
Rp374
sg278
Nsg267
(dp375
g371
F1.0
ssbF28.01073212768821
sg2
(g269
g4
Ntp376
Rp377
(dp378
g266
F0.03570060202073455
sg273
g2
(g274
g275
F0.0016176790167705477
tp379
Rp380
sg278
Nsg267
(dp381
g377
F1.0
ssbF-18.81197830059187
ssbag2
(g262
g4
Ntp382
Rp383
(dp384
g266
F1.4808804513907072
sg267
(dp385
g2
(g269
g4
Ntp386
Rp387
(dp388
g266
F0.014840536003935331
sg273
g2
(g274
g275
F0.0015254755294193888
tp389
Rp390
sg278
Nsg267
(dp391
g387
F1.0
ssbF99.78618366600881
sg2
(g269
g4
Ntp392
Rp393
(dp394
g266
F0.010021427448784578
sg273
g2
(g274
g275
F0.001042315177230808
tp395
Rp396
sg278
Nsg267
(dp397
g393
F1.0
ssbF-147.77140870987515
ssbag2
(g262
g4
Ntp398
Rp399
(dp400
g266
F0.6789246846144338
sg267
(dp401
g2
(g269
g4
Ntp402
Rp403
(dp404
g266
F0.02369775438043551
sg273
g2
(g274
g275
F0.0010741487613603418
tp405
Rp406
sg278
Nsg267
(dp407
g403
F1.0
ssbF28.64932574265109
sg2
(g269
g4
Ntp408
Rp409
(dp410
g266
F0.03490483542205221
sg273
g2
(g274
g275
F0.001909740330721749
tp411
Rp412
sg278
Nsg267
(dp413
g409
F1.0
ssbF-19.45073444424557
ssbag2
(g262
g4
Ntp414
Rp415
(dp416
g266
F1.4783447229307165
sg267
(dp417
g2
(g269
g4
Ntp418
Rp419
(dp420
g266
F0.013833357473419077
sg273
g2
(g274
g275
F0.0013831898788496638
tp421
Rp422
sg278
Nsg267
(dp423
g419
F1.0
ssbF106.86810673196074
sg2
(g269
g4
Ntp424
Rp425
(dp426
g266
F0.009357328679061673
sg273
g2
(g274
g275
F0.0009276610294312168
tp427
Rp428
sg278
Nsg267
(dp429
g425
F1.0
ssbF-157.98790163679072
ssbag2
(g262
g4
Ntp430
Rp431
(dp432
g266
F0.6674977366110557
sg267
(dp433
g2
(g269
g4
Ntp434
Rp435
(dp436
g266
F0.022552264021836348
sg273
g2
(g274
g275
F0.0015301648888726921
tp437
Rp438
sg278
Nsg267
(dp439
g435
F1.0
ssbF29.597814922916278
sg2
(g269
g4
Ntp440
Rp441
(dp442
g266
F0.03378627789262052
sg273
g2
(g274
g275
F0.0009209451428887316
tp443
Rp444
sg278
Nsg267
(dp445
g441
F1.0
ssbF-19.756474469679542
ssbag2
(g262
g4
Ntp446
Rp447
(dp448
g266
F1.4511416456536097
sg267
(dp449
g2
(g269
g4
Ntp450
Rp451
(dp452
g266
F0.015153777723789359
sg273
g2
(g274
g275
F0.0007986269787412457
tp453
Rp454
sg278
Nsg267
(dp455
g451
F1.0
ssbF95.76104863776087
sg2
(g269
g4
Ntp456
Rp457
(dp458
g266
F0.010442659246378347
sg273
g2
(g274
g275
F0.0004981831866132849
tp459
Rp460
sg278
Nsg267
(dp461
g457
F1.0
ssbF-138.96284570971568
ssbag2
(g262
g4
Ntp462
Rp463
(dp464
g266
F0.6733559159081914
sg267
(dp465
g2
(g269
g4
Ntp466
Rp467
(dp468
g266
F0.023276269491293945
sg273
g2
(g274
g275
F0.0012416775539209513
tp469
Rp470
sg278
Nsg267
(dp471
g467
F1.0
ssbF28.92885890327261
sg2
(g269
g4
Ntp472
Rp473
(dp474
g266
F0.034567557723020795
sg273
g2
(g274
g275
F0.0009484848203301449
tp475
Rp476
sg278
Nsg267
(dp477
g473
F1.0
ssbF-19.47941828299197
ssbag2
(g262
g4
Ntp478
Rp479
(dp480
g266
F1.4656708540955616
sg267
(dp481
g2
(g269
g4
Ntp482
Rp483
(dp484
g266
F0.015031614507026173
sg273
g2
(g274
g275
F0.002979460675270142
tp485
Rp486
sg278
Nsg267
(dp487
g483
F1.0
ssbF97.50588357694168
sg2
(g269
g4
Ntp488
Rp489
(dp490
g266
F0.010255791377049593
sg273
g2
(g274
g275
F0.0019549222390577692
tp491
Rp492
sg278
Nsg267
(dp493
g489
F1.0
ssbF-142.9115316615585
ssbag2
(g262
g4
Ntp494
Rp495
(dp496
g266
F0.6848400750845316
sg267
(dp497
g2
(g269
g4
Ntp498
Rp499
(dp500
g266
F0.02350069289908357
sg273
g2
(g274
g275
F0.0010250969626172135
tp501
Rp502
sg278
Nsg267
(dp503
g499
F1.0
ssbF29.14127162230342
sg2
(g269
g4
Ntp504
Rp505
(dp506
g266
F0.03431559243401873
sg273
g2
(g274
g275
F0.0017657035254307891
tp507
Rp508
sg278
Nsg267
(dp509
g505
F1.0
ssbF-19.957110645877005
ssbag2
(g262
g4
Ntp510
Rp511
(dp512
g266
F1.4692253821996648
sg267
(dp513
g2
(g269
g4
Ntp514
Rp515
(dp516
g266
F0.01449458097181017
sg273
g2
(g274
g275
F0.0008726678305351442
tp517
Rp518
sg278
Nsg267
(dp519
g515
F1.0
ssbF101.363770712454
sg2
(g269
g4
Ntp520
Rp521
(dp522
g266
F0.009865457776198686
sg273
g2
(g274
g275
F0.0006809415154827867
tp523
Rp524
sg278
Nsg267
(dp525
g521
F1.0
ssbF-148.92622476620443
ssbag2
(g262
g4
Ntp526
Rp527
(dp528
g266
F0.6794399997979146
sg267
(dp529
g2
(g269
g4
Ntp530
Rp531
(dp532
g266
F0.02193743866762681
sg273
g2
(g274
g275
F0.0013642869266582286
tp533
Rp534
sg278
Nsg267
(dp535
g531
F1.0
ssbF30.971710512429492
sg2
(g269
g4
Ntp536
Rp537
(dp538
g266
F0.03228752895642242
sg273
g2
(g274
g275
F0.0013164913842803445
tp539
Rp540
sg278
Nsg267
(dp541
g537
F1.0
ssbF-21.043418984306165
ssbag2
(g262
g4
Ntp542
Rp543
(dp544
g266
F1.4825119702374532
sg267
(dp545
g2
(g269
g4
Ntp546
Rp547
(dp548
g266
F0.014843514807238422
sg273
g2
(g274
g275
F0.0011485428235216734
tp549
Rp550
sg278
Nsg267
(dp551
g547
F1.0
ssbF99.8760731194547
sg2
(g269
g4
Ntp552
Rp553
(dp554
g266
F0.010012408064982398
sg273
g2
(g274
g275
F0.0005463077754211329
tp555
Rp556
sg278
Nsg267
(dp557
g553
F1.0
ssbF-148.06747393990275
ssbag2
(g262
g4
Ntp558
Rp559
(dp560
g266
F0.6827169986852712
sg267
(dp561
g2
(g269
g4
Ntp562
Rp563
(dp564
g266
F0.023296693071493877
sg273
g2
(g274
g275
F0.0014137998951832278
tp565
Rp566
sg278
Nsg267
(dp567
g563
F1.0
ssbF29.305317994709398
sg2
(g269
g4
Ntp568
Rp569
(dp570
g266
F0.034123499365559994
sg273
g2
(g274
g275
F0.0020191805309527243
tp571
Rp572
sg278
Nsg267
(dp573
g569
F1.0
ssbF-20.00723874686547
ssbag2
(g262
g4
Ntp574
Rp575
(dp576
g266
F1.463327109337065
sg267
(dp577
g2
(g269
g4
Ntp578
Rp579
(dp580
g266
F0.013772383059326562
sg273
g2
(g274
g275
F0.0016364943231431393
tp581
Rp582
sg278
Nsg267
(dp583
g579
F1.0
ssbF106.25082841753446
sg2
(g269
g4
Ntp584
Rp585
(dp586
g266
F0.009411691324140029
sg273
g2
(g274
g275
F0.0010923594117789083
tp587
Rp588
sg278
Nsg267
(dp589
g585
F1.0
ssbF-155.47971761289918
ssbag2
(g262
g4
Ntp590
Rp591
(dp592
g266
F0.6899391277816568
sg267
(dp593
g2
(g269
g4
Ntp594
Rp595
(dp596
g266
F0.024173268344845494
sg273
g2
(g274
g275
F0.0011565753693176522
tp597
Rp598
sg278
Nsg267
(dp599
g595
F1.0
ssbF28.541408548454463
sg2
(g269
g4
Ntp600
Rp601
(dp602
g266
F0.03503681320781033
sg273
g2
(g274
g275
F0.0013151818968028196
tp603
Rp604
sg278
Nsg267
(dp605
g601
F1.0
ssbF-19.691834519580595
ssbag2
(g262
g4
Ntp606
Rp607
(dp608
g266
F1.4661889829198453
sg267
(dp609
g2
(g269
g4
Ntp610
Rp611
(dp612
g266
F0.014684778550221744
sg273
g2
(g274
g275
F0.002411099469944424
tp613
Rp614
sg278
Nsg267
(dp615
g611
F1.0
ssbF99.84413301879214
sg2
(g269
g4
Ntp616
Rp617
(dp618
g266
F0.01001561103056286
sg273
g2
(g274
g275
F0.0014856472810149863
tp619
Rp620
sg278
Nsg267
(dp621
g617
F1.0
ssbF-146.39036784133657
ssbag2
(g262
g4
Ntp622
Rp623
(dp624
g266
F0.693647701365014
sg267
(dp625
g2
(g269
g4
Ntp626
Rp627
(dp628
g266
F0.02367093869164819
sg273
g2
(g274
g275
F0.0018286422236238585
tp629
Rp630
sg278
Nsg267
(dp631
g627
F1.0
ssbF29.303768236692427
sg2
(g269
g4
Ntp632
Rp633
(dp634
g266
F0.03412530401970146
sg273
g2
(g274
g275
F0.00244992517893325
tp635
Rp636
sg278
Nsg267
(dp637
g633
F1.0
ssbF-20.326491478714814
ssbag2
(g262
g4
Ntp638
Rp639
(dp640
g266
F1.4762145369478057
sg267
(dp641
g2
(g269
g4
Ntp642
Rp643
(dp644
g266
F0.015186721123818258
sg273
g2
(g274
g275
F0.001496245309139689
tp645
Rp646
sg278
Nsg267
(dp647
g643
F1.0
ssbF97.20429610263723
sg2
(g269
g4
Ntp648
Rp649
(dp650
g266
F0.01028761114574718
sg273
g2
(g274
g275
F0.0010345949450419462
tp651
Rp652
sg278
Nsg267
(dp653
g649
F1.0
ssbF-143.49439496049203
ssbag2
(g262
g4
Ntp654
Rp655
(dp656
g266
F0.6785864110843395
sg267
(dp657
g2
(g269
g4
Ntp658
Rp659
(dp660
g266
F0.023358448757093142
sg273
g2
(g274
g275
F0.0011781127394524737
tp661
Rp662
sg278
Nsg267
(dp663
g659
F1.0
ssbF29.05100497644462
sg2
(g269
g4
Ntp664
Rp665
(dp666
g266
F0.03442221709062487
sg273
g2
(g274
g275
F0.0017773361877827867
tp667
Rp668
sg278
Nsg267
(dp669
g665
F1.0
ssbF-19.71361720535884
ssbag2
(g262
g4
Ntp670
Rp671
(dp672
g266
F1.4679026032140916
sg267
(dp673
g2
(g269
g4
Ntp674
Rp675
(dp676
g266
F0.015179602275838472
sg273
g2
(g274
g275
F0.0019649510233694747
tp677
Rp678
sg278
Nsg267
(dp679
g675
F1.0
ssbF96.70230988532336
sg2
(g269
g4
Ntp680
Rp681
(dp682
g266
F0.010341014616774644
sg273
g2
(g274
g275
F0.0011735889244513468
tp683
Rp684
sg278
Nsg267
(dp685
g681
F1.0
ssbF-141.94957241748193
ssbag2
(g262
g4
Ntp686
Rp687
(dp688
g266
F0.673629386427977
sg267
(dp689
g2
(g269
g4
Ntp690
Rp691
(dp692
g266
F0.022555597732068423
sg273
g2
(g274
g275
F0.0012972610071773456
tp693
Rp694
sg278
Nsg267
(dp695
g691
F1.0
ssbF29.865286410487997
sg2
(g269
g4
Ntp696
Rp697
(dp698
g266
F0.03348369027021362
sg273
g2
(g274
g275
F0.0019899018935666487
tp699
Rp700
sg278
Nsg267
(dp701
g697
F1.0
ssbF-20.11813456019283
ssbag2
(g262
g4
Ntp702
Rp703
(dp704
g266
F1.4665951440283334
sg267
(dp705
g2
(g269
g4
Ntp706
Rp707
(dp708
g266
F0.013528138631497193
sg273
g2
(g274
g275
F0.0012086900698692646
tp709
Rp710
sg278
Nsg267
(dp711
g707
F1.0
ssbF108.41071221828702
sg2
(g269
g4
Ntp712
Rp713
(dp714
g266
F0.00922418070629848
sg273
g2
(g274
g275
F0.0007712319066043686
tp715
Rp716
sg278
Nsg267
(dp717
g713
F1.0
ssbF-158.99462409999285
ssbag2
(g262
g4
Ntp718
Rp719
(dp720
g266
F0.6826900724301171
sg267
(dp721
g2
(g269
g4
Ntp722
Rp723
(dp724
g266
F0.023705195308418536
sg273
g2
(g274
g275
F0.0009276632327031014
tp725
Rp726
sg278
Nsg267
(dp727
g723
F1.0
ssbF28.799175182820377
sg2
(g269
g4
Ntp728
Rp729
(dp730
g266
F0.034723216677279414
sg273
g2
(g274
g275
F0.0006424245708824055
tp731
Rp732
sg278
Nsg267
(dp733
g729
F1.0
ssbF-19.660910991487277
ssbag2
(g262
g4
Ntp734
Rp735
(dp736
g266
F1.4747838997835225
sg267
(dp737
g2
(g269
g4
Ntp738
Rp739
(dp740
g266
F0.013651866980976823
sg273
g2
(g274
g275
F0.002156085855254023
tp741
Rp742
sg278
Nsg267
(dp743
g739
F1.0
ssbF108.02800099345814
sg2
(g269
g4
Ntp744
Rp745
(dp746
g266
F0.009256859247636704
sg273
g2
(g274
g275
F0.0014554048380987794
tp747
Rp748
sg278
Nsg267
(dp749
g745
F1.0
ssbF-159.31795659095044
ssbag2
(g262
g4
Ntp750
Rp751
(dp752
g266
F0.6793280965732958
sg267
(dp753
g2
(g269
g4
Ntp754
Rp755
(dp756
g266
F0.023565567041276565
sg273
g2
(g274
g275
F0.0009833334068020771
tp757
Rp758
sg278
Nsg267
(dp759
g755
F1.0
ssbF28.82714832973933
sg2
(g269
g4
Ntp760
Rp761
(dp762
g266
F0.03468952213245307
sg273
g2
(g274
g275
F0.001464532862772715
tp763
Rp764
sg278
Nsg267
(dp765
g761
F1.0
ssbF-19.583091804477885
ssbag2
(g262
g4
Ntp766
Rp767
(dp768
g266
F1.467606750374992
sg267
(dp769
g2
(g269
g4
Ntp770
Rp771
(dp772
g266
F0.01479523232972157
sg273
g2
(g274
g275
F0.0004610454372540545
tp773
Rp774
sg278
Nsg267
(dp775
g771
F1.0
ssbF99.19457279672274
sg2
(g269
g4
Ntp776
Rp777
(dp778
g266
F0.010081196700642867
sg273
g2
(g274
g275
F0.0004137149323186131
tp779
Rp780
sg278
Nsg267
(dp781
g777
F1.0
ssbF-145.57862463703384
ssbag2
(g262
g4
Ntp782
Rp783
(dp784
g266
F0.6919459631568103
sg267
(dp785
g2
(g269
g4
Ntp786
Rp787
(dp788
g266
F0.023896538108226086
sg273
g2
(g274
g275
F0.0007627898531475957
tp789
Rp790
sg278
Nsg267
(dp791
g787
F1.0
ssbF28.95590817477518
sg2
(g269
g4
Ntp792
Rp793
(dp794
g266
F0.034535266307797796
sg273
g2
(g274
g275
F0.0010325999062457511
tp795
Rp796
sg278
Nsg267
(dp797
g793
F1.0
ssbF-20.03592377107497
ssbag2
(g262
g4
Ntp798
Rp799
(dp800
g266
F1.4602258131478212
sg267
(dp801
g2
(g269
g4
Ntp802
Rp803
(dp804
g266
F0.014318101430954962
sg273
g2
(g274
g275
F0.002262292664571317
tp805
Rp806
sg278
Nsg267
(dp807
g803
F1.0
ssbF101.98459762206265
sg2
(g269
g4
Ntp808
Rp809
(dp810
g266
F0.00980540222069442
sg273
g2
(g274
g275
F0.00146482828525712
tp811
Rp812
sg278
Nsg267
(dp813
g809
F1.0
ssbF-148.92054199122978
ssbag2
(g262
g4
Ntp814
Rp815
(dp816
g266
F0.6773184759397235
sg267
(dp817
g2
(g269
g4
Ntp818
Rp819
(dp820
g266
F0.023541989982438664
sg273
g2
(g274
g275
F0.0009259624795093684
tp821
Rp822
sg278
Nsg267
(dp823
g819
F1.0
ssbF28.77065517592075
sg2
(g269
g4
Ntp824
Rp825
(dp826
g266
F0.03475763738731045
sg273
g2
(g274
g275
F0.0014161505260634978
tp827
Rp828
sg278
Nsg267
(dp829
g825
F1.0
ssbF-19.486896315541962
ssbag2
(g262
g4
Ntp830
Rp831
(dp832
g266
F1.4738827305661826
sg267
(dp833
g2
(g269
g4
Ntp834
Rp835
(dp836
g266
F0.014323615587859818
sg273
g2
(g274
g275
F0.00205110042604371
tp837
Rp838
sg278
Nsg267
(dp839
g835
F1.0
ssbF102.89879126715692
sg2
(g269
g4
Ntp840
Rp841
(dp842
g266
F0.009718287141038347
sg273
g2
(g274
g275
F0.001090443754540927
tp843
Rp844
sg278
Nsg267
(dp845
g841
F1.0
ssbF-151.66075144479692
ssbag2
(g262
g4
Ntp846
Rp847
(dp848
g266
F0.6879892038553672
sg267
(dp849
g2
(g269
g4
Ntp850
Rp851
(dp852
g266
F0.024081980086855838
sg273
g2
(g274
g275
F0.0020093881009490854
tp853
Rp854
sg278
Nsg267
(dp855
g851
F1.0
ssbF28.568631041717286
sg2
(g269
g4
Ntp856
Rp857
(dp858
g266
F0.03500342730947633
sg273
g2
(g274
g275
F0.002270361849729243
tp859
Rp860
sg278
Nsg267
(dp861
g857
F1.0
ssbF-19.6549097256288
ssbag2
(g262
g4
Ntp862
Rp863
(dp864
g266
F1.470174399843549
sg267
(dp865
g2
(g269
g4
Ntp866
Rp867
(dp868
g266
F0.013350158574740395
sg273
g2
(g274
g275
F0.002089080943542669
tp869
Rp870
sg278
Nsg267
(dp871
g867
F1.0
ssbF110.12411512663532
sg2
(g269
g4
Ntp872
Rp873
(dp874
g266
F0.009080663203060177
sg273
g2
(g274
g275
F0.0014680092332340186
tp875
Rp876
sg278
Nsg267
(dp877
g873
F1.0
ssbF-161.90165486460296
ssbag2
(g262
g4
Ntp878
Rp879
(dp880
g266
F0.6878635828381356
sg267
(dp881
g2
(g269
g4
Ntp882
Rp883
(dp884
g266
F0.023962648186889004
sg273
g2
(g274
g275
F0.0016184692395413618
tp885
Rp886
sg278
Nsg267
(dp887
g883
F1.0
ssbF28.705657967072916
sg2
(g269
g4
Ntp888
Rp889
(dp890
g266
F0.03483633787969811
sg273
g2
(g274
g275
F0.0024083080370463383
tp891
Rp892
sg278
Nsg267
(dp893
g889
F1.0
ssbF-19.74557673695685
ssbag2
(g262
g4
Ntp894
Rp895
(dp896
g266
F1.462612281591795
sg267
(dp897
g2
(g269
g4
Ntp898
Rp899
(dp900
g266
F0.013614703531637708
sg273
g2
(g274
g275
F0.002713548181584614
tp901
Rp902
sg278
Nsg267
(dp903
g899
F1.0
ssbF107.42887483322656
sg2
(g269
g4
Ntp904
Rp905
(dp906
g266
F0.00930848434885321
sg273
g2
(g274
g275
F0.001665173212779819
tp907
Rp908
sg278
Nsg267
(dp909
g905
F1.0
ssbF-157.12679172866487
ssbag2
(g262
g4
Ntp910
Rp911
(dp912
g266
F0.676541137223839
sg267
(dp913
g2
(g269
g4
Ntp914
Rp915
(dp916
g266
F0.023473786853967744
sg273
g2
(g274
g275
F0.0010109568519716923
tp917
Rp918
sg278
Nsg267
(dp919
g915
F1.0
ssbF28.821133182841532
sg2
(g269
g4
Ntp920
Rp921
(dp922
g266
F0.034696762048042694
sg273
g2
(g274
g275
F0.0014529362205873678
tp923
Rp924
sg278
Nsg267
(dp925
g921
F1.0
ssbF-19.498682219599335
ssbag2
(g262
g4
Ntp926
Rp927
(dp928
g266
F1.4841381689244342
sg267
(dp929
g2
(g269
g4
Ntp930
Rp931
(dp932
g266
F0.015667985056945673
sg273
g2
(g274
g275
F0.001296854644422411
tp933
Rp934
sg278
Nsg267
(dp935
g931
F1.0
ssbF94.72425225900446
sg2
(g269
g4
Ntp936
Rp937
(dp938
g266
F0.010556958499558284
sg273
g2
(g274
g275
F0.0006795603129221217
tp939
Rp940
sg278
Nsg267
(dp941
g937
F1.0
ssbF-140.58387830041508
ssbag2
(g262
g4
Ntp942
Rp943
(dp944
g266
F0.6848990154545946
sg267
(dp945
g2
(g269
g4
Ntp946
Rp947
(dp948
g266
F0.024455140299567836
sg273
g2
(g274
g275
F0.002235350803967386
tp949
Rp950
sg278
Nsg267
(dp951
g947
F1.0
ssbF28.00634169605226
sg2
(g269
g4
Ntp952
Rp953
(dp954
g266
F0.03570619864789262
sg273
g2
(g274
g275
F0.0021021491573992635
tp955
Rp956
sg278
Nsg267
(dp957
g953
F1.0
ssbF-19.181515854111158
ssbag2
(g262
g4
Ntp958
Rp959
(dp960
g266
F1.4528070691663744
sg267
(dp961
g2
(g269
g4
Ntp962
Rp963
(dp964
g266
F0.014328857053010808
sg273
g2
(g274
g275
F0.0018555251888536617
tp965
Rp966
sg278
Nsg267
(dp967
g963
F1.0
ssbF101.39029678302971
sg2
(g269
g4
Ntp968
Rp969
(dp970
g266
F0.009862876741942587
sg273
g2
(g274
g275
F0.0013154511453208778
tp971
Rp972
sg278
Nsg267
(dp973
g969
F1.0
ssbF-147.30053991126226
ssbag2
(g262
g4
Ntp974
Rp975
(dp976
g266
F0.6702111084788126
sg267
(dp977
g2
(g269
g4
Ntp978
Rp979
(dp980
g266
F0.02347255686274988
sg273
g2
(g274
g275
F0.0020653219265610616
tp981
Rp982
sg278
Nsg267
(dp983
g979
F1.0
ssbF28.552965592871306
sg2
(g269
g4
Ntp984
Rp985
(dp986
g266
F0.03502263177348085
sg273
g2
(g274
g275
F0.0021975127125047544
tp987
Rp988
sg278
Nsg267
(dp989
g985
F1.0
ssbF-19.136514720355674
ssbag2
(g262
g4
Ntp990
Rp991
(dp992
g266
F1.4562335169475868
sg267
(dp993
g2
(g269
g4
Ntp994
Rp995
(dp996
g266
F0.013283310831945247
sg273
g2
(g274
g275
F0.0016170669086042592
tp997
Rp998
sg278
Nsg267
(dp999
g995
F1.0
ssbF109.62880680661839
sg2
(g269
g4
Ntp1000
Rp1001
(dp1002
g266
F0.009121690084285667
sg273
g2
(g274
g275
F0.0011771903654532844
tp1003
Rp1004
sg278
Nsg267
(dp1005
g1001
F1.0
ssbF-159.64514289476944
ssbag2
(g262
g4
Ntp1006
Rp1007
(dp1008
g266
F0.6843742187967148
sg267
(dp1009
g2
(g269
g4
Ntp1010
Rp1011
(dp1012
g266
F0.023524435958015403
sg273
g2
(g274
g275
F0.0012777579621203617
tp1013
Rp1014
sg278
Nsg267
(dp1015
g1011
F1.0
ssbF29.0920564479477
sg2
(g269
g4
Ntp1016
Rp1017
(dp1018
g266
F0.03437364428978155
sg273
g2
(g274
g275
F0.0013110930002336698
tp1019
Rp1020
sg278
Nsg267
(dp1021
g1017
F1.0
ssbF-19.90985340475414
ssbag2
(g262
g4
Ntp1022
Rp1023
(dp1024
g266
F1.4561347383003815
sg267
(dp1025
g2
(g269
g4
Ntp1026
Rp1027
(dp1028
g266
F0.01429898071981898
sg273
g2
(g274
g275
F0.001078478782516017
tp1029
Rp1030
sg278
Nsg267
(dp1031
g1027
F1.0
ssbF101.8348626963402
sg2
(g269
g4
Ntp1032
Rp1033
(dp1034
g266
F0.009819819789828602
sg273
g2
(g274
g275
F0.0006849977554709221
tp1035
Rp1036
sg278
Nsg267
(dp1037
g1033
F1.0
ssbF-148.28528114219063
ssbatp1038
bsS'# groups'
p1039
I2
sS'xs type'
p1040
g135
s.