(dp0
S'domain'
p1
ccopy_reg
_reconstructor
p2
(copenmc.universe
Cell
p3
c__builtin__
object
p4
Ntp5
Rp6
(dp7
S'_type'
p8
S'normal'
p9
sS'_rotation'
p10
NsS'_fill'
p11
g2
(copenmc.material
Material
p12
g4
Ntp13
Rp14
(dp15
S'_density_units'
p16
S'g/cm3'
p17
sS'_density'
p18
F0.07425478275227912
sS'_sab'
p19
NsS'_name'
p20
S''
p21
sS'_nuclides'
p22
(dp23
sS'_elements'
p24
(dp25
sS'_id'
p26
I10003
sbsg20
g21
sS'_translation'
p27
NsS'_offset'
p28
Nsg26
I10012
sS'_surfaces'
p29
(dp30
I10003
(g2
(copenmc.surface
ZCylinder
p31
g4
Ntp32
Rp33
(dp34
g8
S'z-cylinder'
p35
sS'_R'
p36
NsS'_coeffs'
p37
(dp38
S'y0'
p39
F0.0
sS'x0'
p40
F0.0
sS'R'
p41
F0.56134
ssg20
g21
sS'_bc_type'
p42
S'transmission'
p43
sg26
I10003
sS'_x0'
p44
NsS'_coeff_keys'
p45
(lp46
g40
ag39
ag41
asS'_y0'
p47
Nsbcnumpy.core.multiarray
scalar
p48
(cnumpy
dtype
p49
(S'i8'
p50
I0
I1
tp51
Rp52
(I3
S'<'
p53
NNNI-1
I-1
I0
tp54
bS'\xff\xff\xff\xff\xff\xff\xff\xff'
p55
tp56
Rp57
tp58
ssbsS'group bounds'
p59
cnumpy.core.multiarray
_reconstruct
p60
(cnumpy
ndarray
p61
(I0
tp62
S'b'
p63
tp64
Rp65
(I1
(I3
tp66
g49
(S'f8'
p67
I0
I1
tp68
Rp69
(I3
S'<'
p70
NNNI-1
I-1
I0
tp71
bI00
S'\x00\x00\x00\x00\x00\x00\x00\x00\xf1h\xe3\x88\xb5\xf8\xa4>\x00\x00\x00\x00\x00\x00$@'
p72
tp73
bsS'tallies'
p74
(dp75
S'flux'
p76
g2
(copenmc.tallies
Tally
p77
g4
Ntp78
Rp79
(dp80
S'_num_tot_score_bins'
p81
I1
sS'_label'
p82
S'2 groups'
p83
sS'_filters'
p84
(lp85
g2
(copenmc.tallies
Filter
p86
g4
Ntp87
Rp88
(dp89
S'_mesh'
p90
Nsg8
S'distribcell'
p91
sg28
I5
sS'_stride'
p92
I1
sS'_bin_edges'
p93
(lp94
I10012
asbag2
(g86
g4
Ntp95
Rp96
(dp97
g90
Nsg8
S'energy'
p98
sg28
I0
sg92
I24
sg93
(lp99
F0.0
aF6.25e-07
aF10.0
asbasS'_sum_sq'
p100
g60
(g61
(I0
tp101
g63
tp102
Rp103
(I1
(I48
I1
tp104
g69
I00
S'\x08\x86\xfeT,\xabc?>\xf2\x19\xf1Oc\xa0?j\x1f\xe4{\xac\xaag?\x12\xdeNQP[\xa0?\xfa@\x12O9\x0fb?0\x11\x89\x94\xa4\xae\x9e?\x85\xb4\xbf+\x7f1c?\xd4\x90\x16\xe3\x9c\xfb\x9d?4\xd5\x9c=\xc2mc?\xd0-\xfe0\xc2\x0b\x9d?\x01\x8d\xe7\xc7\xdf\xdbe?\x91Q\xefu\xd2\x9a\x9f?\xea\x97\xfe\x1a[\xf5g?\xbf\xa2\xa4U$#\x9e?tT\xa3\x01\xf1wd?}\x1b]\x03d\xca\x9c?\xf8i2\xb8\xb5qg?6\xd5\xce\xca\xee\x0b\x9c?\xe2W\x9c\x14\xcb\x0ea?\xf0\xef\xe5\x8ep\x15\x9f?_\x81\xd5\xffEWe?\x85\xce\xe8[\x18"\x9d?\t\xaf\xd2]c\x10d?\tG\x1e\xa3\xfch\x9f?n\xd1Scy\x02e?\xc7$\xc8\xae\xfdD\x9d?\xc1\x05f\xc7I\xf7b?n\n\x01F\xd1\xb4\xa0?\x1f\xc9\x02h\x9c;a?0\x9a\xaf1\x12\xe8\x9c?\xc5\xf4\xad\x86\xfcRg?N\xfa\x1e\xca?\xe9\x9e?InuM)\xb6e?\xfd\x05J\xc9\xe36\x99?6sJ\x82\xd2\x95b?e\x89\xbeJ\x93U\x9d?\xccw\xc1\x8a.\xa5_?I\x8e\xae\x85\xb4\xb2\x9b?T0\xd4b\xfer`?\x18\x08[\xe0\x92b\x9b?\x1e\xb6\xafDjSe?\xa0\x98\tN\x14r\x9c?\x16mo\xbff\xe4b?z8\x9aR\xc3Q\x9e?\x0f\t\x8a\x9a.?]?\x83(q7\x14\x9b\x9c?JW\xc84\xe3\x80d?\x90\xce\xe6\xeb\xe7\xb2\x9c?'
p105
tp106
bsS'_std_dev'
p107
g60
(g61
(I0
tp108
g63
tp109
Rp110
(I1
(I48
I1
tp111
g69
I00
S'\x7f\x07\xdbz\\\xef`?\xb5\xa0\xa5G\x94Nz?(\xb8\xb8dK\xc9V?J9\xb2\xf4\x1a\xb4|?\n\xbe\x82\xc8I|`?\xc3\xbeh\xbc\xb2:\x80?\xde%\x16\x1a\x82ie? \xa2\x8e\x99\x1a\xa5u?L\xfc\r\xa0y\x06t?\xef\xe3\xd5\xe2\n\xb4f?>.1\xbe\xd1\xfer?e\xab\xb6\xa1\x07\x97s?\x80h\x04\x88\xdbHt?\xf6\x81\xf3\xf8u~j?p\xd7Ws\xb3\x92i?P\x1ed\x16Q\x94\x81?*\x0c\xe7\xfb1\x80r?\xf2/\xae<\xeb\x11d?B\xfc_\xb6\xf9Ap?mU\xb2\x1b\x0f\ns?\xd2 \x96T\xa4?k?\x1a\xc8\xc3\xf1\xd1\xb0z?\xcb\xa066\x1b~k? \x14\xa8\xb4-\xa4q?\xd5I\xef\x0b\x89\xdec?\xa4\x06\xa7\x07F\xda\x80?\xd7\x1bMM\x1c\x8fh?F\xa1\x0e\x18\x93dy?6\x81\x8d\xb2O+d?\x83\t\xec\x11\x90\x9d}?\xbbE\x9c\xea\x1e\x05Q?\xda\xa5\x01\xe2\x92\x0c\x83?\xaeim\ne\x8dj?\xcayg\xf7\x94\xfd\x80?\xc3\x07\x8b\x0f\n<d?;\xb8\xe0\x96\xfb\xe9\x83?\x8dm\x97\xd8\xbeVj?\xed\x13\xe4\x15\xc6/\x84?\x82\xf8e\xefU\x10g?\x18n\xe6o\xe1xU?\xd3\xd3;\x02\xf1\tZ?R5V\xa5r\x12\x7f?d\x96\xdb\xecd\x90p?\x83\x00XPa\xf9\x81?"\x12\xff+\xcd\xc1c?\x8a\x14}\xed+^\x84?:\xc51\xabM)a?\x82`\xa1\xbe\xc8\xfct?'
p112
tp113
bsS'_num_tot_filter_bins'
p114
I48
sS'_mean'
p115
g60
(g61
(I0
tp116
g63
tp117
Rp118
(I1
(I48
I1
tp119
g69
I00
S'\x1e\xeb\x86V\'c\x96?s\x92C\x92\xbcr\xb4?\xca\xe4_\xec\xcd\x97\x98?V\x8b\x9d~\rl\xb4?8\xdc0ILs\x95?R\xd9\x11\xe8u\xc3\xb3?\xdb\xa6\x877\x18\x15\x96?~\'\xe7\xd2\xe9\x90\xb3?>\x15J\xe2\'\x02\x96?\x0e\x19\x04JhF\xb3?\x9d\x98\xbe\x18.h\x97?J\x83\xdd>\x07\x18\xb4?FM\xeb\xfc\xa5~\x98?\xd409Y\xb3\xa1\xb3?\xde\xbf\x06\xb8Y\xc6\x96?K\xbf\x07h\xa9!\xb3?\xa3\xf1f\x83QE\x98?^g\x0c\x14\x1b\xf1\xb2?\x1c\x12\x08V\xd5\xb0\x94?s\x97\x0c6\xa5\xed\xb3?\xf0.\xbew\x98>\x97?F\x97"&\xf8E\xb3?\xed\xc1\xe3\xbf*\x87\x96?\xcf\xa8\x02\x0e\x12\t\xb4?\xb2=dGW\x1f\x97?9\xbb\xca\xba\xd9K\xb3?\xdfsM\xb2h\xec\x95?\xa6\xaa\xe1\xab\x1a\xa6\xb4?\x95\xbf\x0c+\xd8\xec\x94?\xa3t\x94\x0bp0\xb3?*\x83\x95\x07pl\x98?.@\x84V2\xd1\xb3?\xdb\xc6\x07\x12Gt\x97?x\x18\xb9P[\xe6\xb1?\x12\x05<\xf0w\xbc\x95?}\x0e\x85*LK\xb3?n\x95{\x0fa\xfc\x93?\x85H\xfb\x1f\xbd\xbd\xb2?Z\xc4\xc7cTj\x94?\x07\xfc?\xb8\x89\xb8\xb2?\xf8c\x12\xb7\x01V\x97?\xc1\xf3\xe0\x97\xb8\x07\xb3?je\xb31\xe0\xc9\x95?R\x80\x99\xca#\xa2\xb3?\xa5>\xf7\x063D\x93?6\x0e\xb2\x07\x0c\x0c\xb3?"\xd6\xae+\xb8\xdb\x96?3\x97\xb4H\x98$\xb3?'
p120
tp121
bsS'_num_realizations'
p122
I5
sg22
(lp123
sS'_sum'
p124
g60
(g61
(I0
tp125
g63
tp126
Rp127
(I1
(I48
I1
tp128
g69
I00
S'\xe6\xa5(,\xf1\xfb\xbb?\x10w\xd4\xb6k\x8f\xd9?\xfc\xddwg\xc1\xbd\xbe?,\xeeD\xde\x10\x87\xd9?F\x13}[\x1f\xd0\xba?\xa7O\x16bS\xb4\xd8?\x92\x90iE^\x9a\xbb?]\xf1\xa0G$u\xd8?\x8d\x9a\xdc\xda\xb1\x82\xbb?R\x1f\x85\\\x02\x18\xd8?\xc4>\xee\x9e9B\xbd?\x1c\xe4\x94\x0e\t\x1e\xd9?\x97 &|O\x9e\xbe?\t}\x87/ \x8a\xd8?\xd5o\x08&\xf0w\xbc?\x1e\xaf\t\xc2\x13\xea\xd7?\x0c\xae@\xe4\xa5V\xbe?5\x81\x0f\xd9a\xad\xd7?\xa3\x16\x8a\xab\n\xdd\xb9?P\xbd\x8f\x83\x0e\xe9\xd8?\xac\xba\xad\x95>\x0e\xbd?\x17=\xab/v\x17\xd8?h\xb2\xdco\xf5(\xbc?\x03S\x83\x91V\x0b\xd9?\x1eM=\x19-\xe7\xbc?\x07j})\xd0\x1e\xd8?\xd7\xd0\xe0\xde\x82g\xbb?P\x15\xdaV\xa1\xcf\xd9?z\xef\xcf5\x0e(\xba?\xcc\x91y\x0e\x8c\xfc\xd7?\xf5\xe3z\t\x8c\x87\xbe?:P%\xec~\xc5\xd8?\x92\xb8\x89\xd6XQ\xbd?\x96^\xe7$\xf2_\xd6?V\x06K\xec\x95+\xbb?\x1cR&5\x1f\x1e\xd8?\xc9zZSy\xfb\xb8?\xa6\x1a\xfag,m\xd7?p\xb5\xb9|\xe9\x84\xb9?\t\xfbO&\xacf\xd7?\xf6\xfc\xd6$\x82+\xbd?\xb10\xd9\xbd\xa6\xc9\xd7?\xc4> >X<\xbb?f\xe0?\xbd\xac\x8a\xd8?N\x0e\xb5\xc8?\x15\xb8?\xc3\x91\x9e\t\x0f\xcf\xd7?\xaa\x8b\x9a6\xa6\x92\xbc?\x00\xbd\xe1Z\xbe\xed\xd7?'
p129
tp130
bsS'_estimator'
p131
S'analog'
p132
sS'_scores'
p133
(lp134
g76
asg26
I10173
sbsS'total'
p135
g2
(g77
g4
Ntp136
Rp137
(dp138
g81
I1
sg82
S'2 groups'
p139
sg84
(lp140
g2
(g86
g4
Ntp141
Rp142
(dp143
g90
Nsg8
g91
sg28
I5
sg92
I1
sg93
(lp144
I10012
asbag2
(g86
g4
Ntp145
Rp146
(dp147
g90
Nsg8
g98
sg28
I0
sg92
I24
sg93
(lp148
F0.0
aF6.25e-07
aF10.0
asbasg100
g60
(g61
(I0
tp149
g63
tp150
Rp151
(I1
(I48
I1
tp152
g69
I00
S"\x1c\xd9*\xfb\x8d\xfat?\xc7\xd6\x8e=\xd6\xe7\x8d?\x02\x9c{\x9b@\tz?\xca\x0f\xc7\x80\r\x04\x90?-\xd5\x1eYm\xbcs?\xfe\xb8\xc3G@\\\x8c?F\x8a\x8e\x05\x01\tu?f\xf0\xf7\x8b\xd9\x92\x8d?\xec\xf0[\x9d1\x06u?<\xc2'\xa5\xb9x\x8c?\\\x13\x1c\xa8\x9d\xabw?l\xfa\x05\x1e\x8c\x96\x8b?\xa9\x91mK\xaa\xd7y?\xbe0\xdbF\xea\xda\x8a?~`\\\xe4}\xa0u? :\x04\x8e\x04\x1a\x8c?\xb3\xcf\x84\xa2P\x81y?\xd06\xed\x18\r\xcf\x89?\xaeE\x8f\x08[&r?}\x88\xba\xcd#\x98\x8d?|,}\xe8\x82\xfav?\xcag\xc3\xab\xf6\xfa\x8c?[\n\xa3\xb4\x92\xb1u?\x06\x87r\xfd\x16\xf8\x8d?\xbaA\xbc\xc7\xfcPw?\x81{u\xc0;\x1a\x8b?\xbd\xff,\xe9j#u?\xbe\x81\x0b\xaa\xf4\xb0\x8b?\x9a\x94\xc4\x8a\x01\xafr?\n\xb4\xe8[\xee\xe5\x89?\x06\xad4\xe7\xe8\ny?\xea.`4\xf1/\x8e?\xb2\xd7\xbb?\xde\xabv?[\x02\x19\xcf\xdaL\x89?\xa5\xe5\x17\x90\x833t?`h\x01\x1cs\x85\x8c?\xb4\xb1\xe9s{jq?Z\xce\xe7\xd4|2\x8a?\xe0w\xe3\x0f\xcc\xf2q?[[WPA\x13\x8b?\x8em|\x9aQ\xfbv?b\xdc\xec\x93\xcc\x7f\x8a?$5\x82\xc7\x96it?\xe8\xf9O\x0e\xd1\xae\x8b?\x1d\x1fN\xdc\x01\tp?\xa9\x0b\x04CNF\x8a?\xe3\xd60\x85\xff[v?0\xb3\xf0q}\x8a\x89?"
p153
tp154
bsg107
g60
(g61
(I0
tp155
g63
tp156
Rp157
(I1
(I48
I1
tp158
g69
I00
S'F\xd3\x82\x1e@\x96j?@o\x89=nHa?\xf8&pW\xf4\xb4W?\xfc\xbc,A\xcb\x9du?b\x8f\x18Uf\x7ff?\xd4Lq\x07\xc72i?\xb7\'\xcbq\xdaMp?\x11\x01\xfb`\x00\xbfg?\x1d\xb5\x84.C\x18~?\xbb\xee\xc8\x9e\xdc\x0bj?\x1a\xfd\xed[\x8fr}?6\xb3TZ\xc2\x92m?\x17\x8d\'\xba\xd4=\x80?\x0bP\t;\xb1\xd1t?\xdc\x87\xf6#1\x18r?\x9e\x9c\x1b\xa2\x8e:v?\x80:Vm\x83\xa9y?\xe3\x0e\xd9\x96+va?\xc8\x96\xd2j@Xx?8\xdb\xe0\xbdgcg?3\x00^o\xcd\x9bu?\xd5\x1ae\xba\xdf\xd5u?\xac\x8e\t\x9c\xd1\xc8u?_8\xab\xf8\xbfDg?oK\t\x01\xb9Ep?\xa5G\xedE\xd3\xb3m?\xaf\x9c4\x12\xd8\xaes?\xfa\xf0\xd0\n\xf5\x85r?\xdb\xdb\xccIh}l?\xb5\xcf\x81\xb1\x9d\xeer?\xfe\x18\x9a\xc8\x8b[Q?\x94\xde\x8cfs\xc7u?\x86gT\xd2C\nr?L)3~8{r?\xf9kr\xc6:\x08p?\xd1\xfawg\xb9\xdds?\xd52\x97`yts?\xc5\xfb`\x93\xaf\xc9s?\xd5L\xe8;l\xb8s?\xca\xdde\x13\xe9~`?\x18\xf4\x93\xf7{\x13j?E\x18\x16\xf7\xf2\xb5t?u\x8c\r\xe3\xf1sw?\xab\xbe.\x07"<u?\xc1Q\xdc\xee\r\xf8o?B\x877y)=o?\xeb|\xfd\xd1U|m?mN\xfbX]+r?'
p159
tp160
bsg114
I48
sg115
g60
(g61
(I0
tp161
g63
tp162
Rp163
(I1
(I48
I1
tp164
g69
I00
S'G8-x\xd1W\xa0?E\xeb\xa8j\x82\xa8\xab?\x8f\xdf\xdb\xf4g?\xa2?6\xcd;N\xd1\x91\xac?}\x00R\x9b8\xb9\x9f?\x95\xec\xd8\x08\xc4\xeb\xaa?G8-x\xd1W\xa0?u$\x97\xff\x90~\xab?vq\x1b\r\xe0-\xa0?\xb8zNz\xdf\xf8\xaa?\x16\x8cJ\xea\x044\xa1?\xd0\xd0?\xc1\xc5\x8a\xaa?3\xa7\xcbbb\xf3\xa1?\x9e\x98\xf5b(\'\xaa?;\x8d\xb4T\xde\x8e\xa0?V\t\x16\x873\xbf\xaa?\xebQ\xb8\x1e\x85\xeb\xa1?p\x99\xd3e1\xb1\xa9?\xb3\x1f)"\xc3*\x9e?\xe2@H\x160\x81\xab?C\xc58\x7f\x13\n\xa1?\xd0\x96s)\xae*\xab?\xcep\x03>?\x8c\xa0? $\x0b\x98\xc0\xad\xab?\x82\xa8\xfb\x00\xa46\xa1?\x02CV\xb7zN\xaa?\xb4T\xde\x8epZ\xa0?\x18&S\x05\xa3\x92\xaa?\xfd:p\xce\x88\xd2\x9e?p\x99\xd3e1\xb1\xa9?\x12\x19V\xf1F\xe6\xa1?B\xb2\x80\t\xdc\xba\xab?\xda\xe1\xaf\xc9\x1a\xf5\xa0?\x13a\xc3\xd3+e\xa9?\xa4\xaa\t\xa2\xee\x03\xa0?J^\x9dc@\xf6\xaa?c\x92\x91\xb3\xb0\xa7\x9d?f\'\x83\xa3\xe4\xd5\xa9?%u\x02\x9a\x08\x1b\x9e?p_\x07\xce\x19Q\xaa??\x8c\x10\x1em\x1c\xa1?`\xb52\xe1\x97\xfa\xa9?\x11\xc7\xba\xb8\x8d\x06\xa0?=\xed\xf0\xd7d\x8d\xaa?\xa6"\x15\xc6\x16\x82\x9c?\xf6\xd1\xa9+\x9f\xe5\xa9?\x04\xe2u\xfd\x82\xdd\xa0?0\xb6\x10\xe4\xa0\x84\xa9?'
p165
tp166
bsg122
I5
sg22
(lp167
sg124
g60
(g61
(I0
tp168
g63
tp169
Rp170
(I1
(I48
I1
tp171
g69
I00
S'Y\x868\xd6\xc5m\xc4?\x0b\x93\xa9\x82QI\xd1?s\xd7\x12\xf2A\xcf\xc6?B`\xe5\xd0"\xdb\xd1?N@\x13a\xc3\xd3\xc3?\xdd\x93\x87\x85Z\xd3\xd0?Y\x868\xd6\xc5m\xc4?\xc9v\xbe\x9f\x1a/\xd1?\xd3Mb\x10X9\xc4?\xb3\x0cq\xac\x8b\xdb\xd0?\x1b/\xdd$\x06\x81\xc5?\x82\xe2\xc7\x98\xbb\x96\xd0?\x00\x91~\xfb:p\xc6?c\x7f\xd9=yX\xd0?\x8a\xb0\xe1\xe9\x95\xb2\xc4?\xd6\xc5m4\x80\xb7\xd0?ffffff\xc6?\xe6?\xa4\xdf\xbe\x0e\xd0?\xd0\xb3Y\xf5\xb9\xda\xc2?\x8d(\xed\r\xbe0\xd1?\x94\xf6\x06_\x98L\xc5?B>\xe8\xd9\xac\xfa\xd0?\x01M\x84\rO\xaf\xc4?\x94\xf6\x06_\x98L\xd1?\xa3\x92:\x01M\x84\xc5?\xe1\xe9\x95\xb2\x0cq\xd0?\xe1\xe9\x95\xb2\x0cq\xc4?\xcf\xf7S\xe3\xa5\x9b\xd0?\xde$\x06\x81\x95C\xc3?\xe6?\xa4\xdf\xbe\x0e\xd0?V\x9f\xab\xad\xd8_\xc6?io\xf0\x85\xc9T\xd1?Q\xda\x1b|a2\xc5?X9\xb4\xc8v\xbe\xcf?M\x15\x8cJ\xea\x04\xc4?\xeeZB>\xe8\xd9\xd0?~\xfb:p\xce\x88\xc2?\xa0\xf81\xe6\xae%\xd0?7\x89A`\xe5\xd0\xc2?\xa6\x9b\xc4 \xb0r\xd0?O\xaf\x94e\x88c\xc5?\\\xb1\xbf\xec\x9e<\xd0?\xd5x\xe9&1\x08\xc4?F\x94\xf6\x06_\x98\xd0?\xa85\xcd;N\xd1\xc1?:#J{\x83/\xd0?\x85Z\xd3\xbc\xe3\x14\xc5?\xbc\xe3\x14\x1d\xc9\xe5\xcf?'
p172
tp173
bsg131
g132
sg133
(lp174
g135
asg26
I10174
sbsS'scatter-1'
p175
g2
(g77
g4
Ntp176
Rp177
(dp178
g81
I1
sg82
S'2 groups'
p179
sg84
(lp180
g2
(g86
g4
Ntp181
Rp182
(dp183
g90
Nsg8
g91
sg28
I5
sg92
I1
sg93
(lp184
I10012
asbag2
(g86
g4
Ntp185
Rp186
(dp187
g90
Nsg8
g98
sg28
I0
sg92
I24
sg93
(lp188
F0.0
aF6.25e-07
aF10.0
asbasg100
g60
(g61
(I0
tp189
g63
tp190
Rp191
(I1
(I48
I1
tp192
g69
I00
S'\x05+\xef\xba`\x03I?@\xdc\x0c\x81cfu?v\xb5k\xde\xdb\x9aL?\xec!;j\x84>v?\xdc4\x17\x96\xc5\xb2G?E\xa1\xec\x8c\x83^s?\xdd\x84\xe9P|\xeaG?\xec8.\xa4\xa2St?\x11\x10Jh(pJ?\xe4m\x9d \x98dt?RS@\x8b\xa35K?\xa9\xee\xb22\x1d\xc0s?\x168\xdb\xed1[N?\xf1\x99\x0fG\xf2(r?\x8cQR\xf8mZJ?\xb5\x03s\xc8\xca\x90s?q\xec\x98\x95R\xcaL?\xf8\x9aE,\x9f\xd5r?l*\xc3\xbf\x16QH?#\xe3gA*\xfas?\x8c\x8e\xb8\xc3T\xbaL?\x7f\xfd@ij\rt?T\x98\x03\x99\x1f\x18H?Hy\x04C\x14\xc2t?.\xde\x0f\xa6\xfd\xe5J?\x86\x1bH\x9d\xb1\xbcr?\x90\xb4;q\xb7)G?\x9e\x9e\xf4\xcac\xb1r?\x19?i\xb8q\xb2E?\x13-\x10X\x061r?\xfalDb\x8e\xf3M?\x9a\x0f\x86 \x87\ru?\xf4\xde$/r\xe8K?7v\xd5*#\xecp?0\x81\xa1\xf8T\xfaL?\x94\xf0~\x1aQ\x90t?\xe6\xbb\xd1(\x05eD?\x12\xe0\xcd3\x84or?A\xa2L\x93cED?V\xf5{\xe7\xe5\xdds?\xec\x10\xf3sN\x17K?\xaa\x10\x87O\x17Bs?\xa2Y\x87\xe1\xf9\x1cI??UO[\x0e\xd9r?\xbf\xe8\xc7\xfdf\x8aB?\x15\xf6\x06\x160or?\xadq\xc3\r\xa66F?2@y\xff\xf7:r?'
p193
tp194
bsg107
g60
(g61
(I0
tp195
g63
tp196
Rp197
(I1
(I48
I1
tp198
g69
I00
S'\xd0g\x8e\xb4PPb?\x81q\xb1X\xdd._?\xc2\x89[)\xae\xfa`?\x92}\x9cZ\xc4Tk?\x8d \xe6H\t\xe2S?\xe6`\xf5\xe6\xed\xe2b?{T\x94\xb7;`a?\xa0\xd2t]~3d?~=\x02mM\x12o?\x96K\xd9v\x11Fd?\xearR\x80P$d?Dc\x81\x15\x84\x9aU?B\x0e\xa0\xe8\x92%i?\x9f\xfb\xe0\xab\x1b\xc0c?\n-\xe3\x9e\x95\xfc]?\xf5\\\xd8\xfcU\xf8n?\x99\xc6d9\xf2\xfbh?\xce\xcb\xfc}\xe0\x8d_?uh\x1cJ\xc2\x82h?\xe1\x94\xa7D\x10#W?\xde\xaf\x149\xd3Og?\xce\xed\x7f\x90.\x82h?\xe4r\xbfw(pa?\xba\xa2\xc3u\x96\xee`?+q\x9a\x08B\x06a?\xed\xa3i\x82\xf2\xede?%\x89\x8d\xf8|\x9bR?)\xc0{Y\x92\x06e?\x0f\x0ch\xa0\xc3LV?\xc4\xb4\xaaq-\xbce?\xf7\xd6(\xff\xb1"O?8\xbc\xaa\x85a@j?cV\xbb\x13\xa3Ma?\x0c,G\x1c\x13\x14d?|^\xa9\xcf\x18W]?!m9\x9e\xa8\x11a?\xf3\xd5\xd1\r\xc6\xf5U?\xeb\xc8\x15\x18]Ui?\xfeHE\xe7*b[?k\x1b9\xd7\xc8=T?$%\xca\xd8=\x95`?\x08\xaa[\x1c\xa1\xcdi?\\\x9e\xfe\x16\xa2\xefe?\xec\xfc^\x85)\xa3g?[\xf0r\xeb@\xf8T?\xfa\xbfj\x9a\xf2\x86`?:\xe2\xd0\xa7y\xa4T?Z\xa3xo8\xd0c?'
p199
tp200
bsg114
I48
sg115
g60
(g61
(I0
tp201
g63
tp202
Rp203
(I1
(I48
I1
tp204
g69
I00
S"mmt<\xcc\x16\x89?ra\x0cR\x1e\x89\xa0?\xf0\x0b k1\xe3\x8a?\x93dF\x8e2\xd4\xa0?\xae\xab\x84s\xcf\x90\x88?\xb2\x19\xed2\x03r\x9f?\xc0\xf4\x18\xef\x84\x8b\x88?f\xfa\xfb\xda\xbf\x1a\xa0?D\x98\xbe%$h\x89?m\xfe\xab\xaeo!\xa0?U\x8a\x8c`]$\x8a?EB\xd6\x0c\xec\xc8\x9f?0A>\x88\xae\x81\x8b?f\x1e,^\xc7p\x9e?\xb5\xed\x99WJ\xd5\x89?\x85Yf\xd2\x08\x87\x9f?\xcd\xbbv'\xdd\xc5\x8a?\xddnc7d\x05\x9f?\x89F\x82,{\x8e\x88?\xe3\x03\x97\xa1\xfc\xf6\x9f?p\x17>g\xbd\xca\x8a?\xebb\xac^?\xf7\x9f?r2\xf1\xc0\xe8\xa2\x88?\xc8\x1f\xdc\nXH\xa0?\xd8\xc6|\x9d\xbb\x0f\x8a?2\x82G\x12\x02\xe9\x9e?\xf4^m\xc3\x15K\x88?\xc5O\x95\x07\xf2\xe0\x9e?@s\xce\xd6o{\x87?HK,\xbb\xc3t\x9e?\xaa\xb8\xdf)\xa4\xa7\x8b?F^\xa8\xc2\x85_\xa0?\xaa\xaa;\x99\xfd\x8b\x8a?]\xea#8+a\x9d?\xa3\xcd\xf3\xec\xb1\x1b\x8b?p\xe6Z\xec\xa94\xa0?\xd2B\xb4\x8d\x8a\xc3\x86?\xc8\xe5\x17\xa8a\xa3\x9e?\xe4\x0e\xbe2z\xa5\x86?sA\xff\xd6V\xe1\x9f?v\x86\xce\xbbC*\x8a?U\x08{.\x9aP\x9f?\x1b%z|\xb9\x0b\x89?\x05\xa6]\x8a\xdb\xfd\x9e?_\x86\x13\x87J\xb4\x85?\xda\x03\x07\x8a\x95\xaf\x9e?\r\x03\x7fw.\xc6\x87?\xdd\xb1\x8b\xf9\xd5\x7f\x9e?"
p205
tp206
bsg122
I5
sg22
(lp207
sg124
g60
(g61
(I0
tp208
g63
tp209
Rp210
(I1
(I48
I1
tp211
g69
I00
S"\xc8\x88\x91K\x7f\\\xaf?\xcfy\x8f\xe6e\xab\xc4?v\x07\xf4\xe2\xfe\xcd\xb0?\xb8\xfd\xd71?\t\xc5?\x99\xd6eP\x03\xb5\xae?\x0f0\xd4\xffA\xa7\xc3?\xf01\xdf*f\xae\xae?\x00\xf9\xba\xd1o!\xc4?U>./-\xc2\xaf?\x08\xfeV\x9a\xcb)\xc4?u\xd6W\\\xbaV\xb0?k\xe9\x05\x88\x93\xdd\xc3?\xbe\xe8&\x15\r1\xb1?\x00\x93\xdb\x9a|\x06\xc3?\x914\xc0vN%\xb0?\xf3\xf7\x7f\x83e\xb4\xc3?`5\xaa8\xaa\xbb\xb0?J%\x9e\xa2^c\xc3?+\xd8\xa2\xf7\x19\xb2\xae?nb\xfe\xe4]\xfa\xc3?\xa6\xce\x86`\xb6\xbe\xb0?\xd3\xbd+\x9b\x87\xfa\xc3?\x0f\x7f-\xf1\xa2\xcb\xae?\xba'\x93\rnZ\xc4?G\xfcmB\xd5I\xb0?_\xb1lK\xa1Q\xc3?\xb1\xb6H4\xdb]\xae?\xdbQ\xbdD\x97L\xc3?\x10\x10\x82\xccKZ\xad?\r\xaf\xfbT\xfa\x08\xc3?j\xd3+\x9a\xc6H\xb1?\xd7uR3gw\xc4?\xaaJ\xc5\x7f~\x97\xb0?zr\x16\x03\xbb\\\xc2?\x86`\x184O\xf1\xb0?\x0c\xa0qg\xd4A\xc4?\x86S!1mt\xac?\x9d\xef\x0e\t\x1d&\xc3?\x9d\x92m\xbf\xd8N\xac?\xe8\x88_F\xd6\xec\xc3?\n\x14aUjZ\xb0?5\xe5\x0c]`\x92\xc3?b\xae\x98\xdb\xa7N\xaf?\xc3\x87z6\xa9^\xc3?\xf7g\xd8(]!\xab?hbDv\xbd-\xc3?\xd0\xc3^\x15\xba\xb7\xad?*O\xf7\xbb\xe5\x0f\xc3?"
p212
tp213
bsg131
g132
sg133
(lp214
S'scatter-1'
p215
asg26
I10175
sbssS'subdomain offsets'
p216
(dp217
I387
g48
(g52
S'\t\x00\x00\x00\x00\x00\x00\x00'
p218
tp219
Rp220
sI774
g48
(g52
S'\x11\x00\x00\x00\x00\x00\x00\x00'
p221
tp222
Rp223
sI785
g48
(g52
S'\x12\x00\x00\x00\x00\x00\x00\x00'
p224
tp225
Rp226
sI915
g48
(g52
S'\x14\x00\x00\x00\x00\x00\x00\x00'
p227
tp228
Rp229
sI156
g48
(g52
S'\x00\x00\x00\x00\x00\x00\x00\x00'
p230
tp231
Rp232
sI542
g48
(g52
S'\n\x00\x00\x00\x00\x00\x00\x00'
p233
tp234
Rp235
sI167
g48
(g52
S'\x01\x00\x00\x00\x00\x00\x00\x00'
p236
tp237
Rp238
sI553
g48
(g52
S'\x0b\x00\x00\x00\x00\x00\x00\x00'
p239
tp240
Rp241
sI178
g48
(g52
S'\x02\x00\x00\x00\x00\x00\x00\x00'
p242
tp243
Rp244
sI950
g48
(g52
S'\x15\x00\x00\x00\x00\x00\x00\x00'
p245
tp246
Rp247
sI575
g48
(g52
S'\x0c\x00\x00\x00\x00\x00\x00\x00'
p248
tp249
Rp250
sI961
g48
(g52
S'\x16\x00\x00\x00\x00\x00\x00\x00'
p251
tp252
Rp253
sI586
g48
(g52
S'\r\x00\x00\x00\x00\x00\x00\x00'
p254
tp255
Rp256
sI972
g48
(g52
S'\x17\x00\x00\x00\x00\x00\x00\x00'
p257
tp258
Rp259
sI213
g48
(g52
S'\x03\x00\x00\x00\x00\x00\x00\x00'
p260
tp261
Rp262
sI343
g48
(g52
S'\x05\x00\x00\x00\x00\x00\x00\x00'
p263
tp264
Rp265
sI354
g48
(g52
S'\x06\x00\x00\x00\x00\x00\x00\x00'
p266
tp267
Rp268
sI741
g48
(g52
S'\x0e\x00\x00\x00\x00\x00\x00\x00'
p269
tp270
Rp271
sI876
g48
(g52
S'\x13\x00\x00\x00\x00\x00\x00\x00'
p272
tp273
Rp274
sI365
g48
(g52
S'\x07\x00\x00\x00\x00\x00\x00\x00'
p275
tp276
Rp277
sI752
g48
(g52
S'\x0f\x00\x00\x00\x00\x00\x00\x00'
p278
tp279
Rp280
sI376
g48
(g52
S'\x08\x00\x00\x00\x00\x00\x00\x00'
p281
tp282
Rp283
sI763
g48
(g52
S'\x10\x00\x00\x00\x00\x00\x00\x00'
p284
tp285
Rp286
sI252
g48
(g52
S'\x04\x00\x00\x00\x00\x00\x00\x00'
p287
tp288
Rp289
ssS'offset'
p290
I5
sS'domain type'
p291
g91
sS'xs'
p292
g60
(g61
(I0
tp293
g63
tp294
Rp295
(I1
(I24
I2
tp296
g49
(S'O8'
p297
I0
I1
tp298
Rp299
(I3
S'|'
p300
NNNI-1
I-1
I63
tp301
bI00
(lp302
g2
(cuncertainties
AffineScalarFunc
p303
g4
Ntp304
Rp305
(dp306
S'_nominal_value'
p307
F0.2719707995275892
sS'derivatives'
p308
(dp309
g2
(cuncertainties
Variable
p310
g4
Ntp311
Rp312
(dp313
g307
F0.05401999999999999
sS'_std_dev'
p314
g2
(cuncertainties
CallableStdDev
p315
c__builtin__
float
p316
F0.0021097329265965803
tp317
Rp318
sS'tag'
p319
Nsg308
(dp320
g312
F1.0
ssbF12.519445565748697
sg2
(g310
g4
Ntp321
Rp322
(dp323
g307
F0.032296130672139337
sg314
g2
(g315
g316
F0.001903263243341419
tp324
Rp325
sg319
Nsg308
(dp326
g322
F1.0
ssbF-12.519445565748697
sg2
(g310
g4
Ntp327
Rp328
(dp329
g307
F0.07987574168107318
sg314
g2
(g315
g316
F0.006422595232244689
tp330
Rp331
sg319
Nsg308
(dp332
g328
F1.0
ssbF-3.4049236201588045
ssbag2
(g303
g4
Ntp333
Rp334
(dp335
g307
F0.899685802112123
sg308
(dp336
g2
(g310
g4
Ntp337
Rp338
(dp339
g307
F0.03192
sg314
g2
(g315
g316
F0.0032454731300170262
tp340
Rp341
sg319
Nsg308
(dp342
g338
F1.0
ssbF45.740179964894004
sg2
(g310
g4
Ntp343
Rp344
(dp345
g307
F0.012250514597829743
sg314
g2
(g315
g316
F0.0022355629229879673
tp346
Rp347
sg319
Nsg308
(dp348
g344
F1.0
ssbF-45.740179964894004
sg2
(g310
g4
Ntp349
Rp350
(dp351
g307
F0.021862616211119172
sg314
g2
(g315
g316
F0.0020672613380562917
tp352
Rp353
sg319
Nsg308
(dp354
g350
F1.0
ssbF-41.151790500468515
ssbag2
(g303
g4
Ntp355
Rp356
(dp357
g307
F0.28745120615750713
sg308
(dp358
g2
(g310
g4
Ntp359
Rp360
(dp361
g307
F0.0558
sg314
g2
(g315
g316
F0.005277437175023932
tp362
Rp363
sg319
Nsg308
(dp364
g360
F1.0
ssbF12.535451265426788
sg2
(g310
g4
Ntp365
Rp366
(dp367
g307
F0.032868938319731054
sg314
g2
(g315
g316
F0.003336318496522225
tp368
Rp369
sg319
Nsg308
(dp370
g366
F1.0
ssbF-12.535451265426788
sg2
(g310
g4
Ntp371
Rp372
(dp373
g307
F0.07977375355907887
sg314
g2
(g315
g316
F0.00700769929529905
tp374
Rp375
sg319
Nsg308
(dp376
g372
F1.0
ssbF-3.6033305859755793
ssbag2
(g303
g4
Ntp377
Rp378
(dp379
g307
F0.9373251257274123
sg308
(dp380
g2
(g310
g4
Ntp381
Rp382
(dp383
g307
F0.03564
sg314
g2
(g315
g316
F0.0014469514987944226
tp384
Rp385
sg319
Nsg308
(dp386
g382
F1.0
ssbF41.63788832098915
sg2
(g310
g4
Ntp387
Rp388
(dp389
g307
F0.013128648835850826
sg314
g2
(g315
g316
F0.0020726586907226794
tp390
Rp391
sg319
Nsg308
(dp392
g388
F1.0
ssbF-41.63788832098915
sg2
(g310
g4
Ntp393
Rp394
(dp395
g307
F0.024016587783965794
sg314
g2
(g315
g316
F0.001390765787515411
tp396
Rp397
sg319
Nsg308
(dp398
g394
F1.0
ssbF-39.02823890549511
ssbag2
(g303
g4
Ntp399
Rp400
(dp401
g307
F0.28330683390975836
sg308
(dp402
g2
(g310
g4
Ntp403
Rp404
(dp405
g307
F0.052579999999999995
sg314
g2
(g315
g316
F0.0030759703909467393
tp406
Rp407
sg319
Nsg308
(dp408
g404
F1.0
ssbF12.953159543947585
sg2
(g310
g4
Ntp409
Rp410
(dp411
g307
F0.03070836065605826
sg314
g2
(g315
g316
F0.002305473950098602
tp412
Rp413
sg319
Nsg308
(dp414
g410
F1.0
ssbF-12.953159543947585
sg2
(g310
g4
Ntp415
Rp416
(dp417
g307
F0.07720124164356904
sg314
g2
(g315
g316
F0.00792445790747765
tp418
Rp419
sg319
Nsg308
(dp420
g416
F1.0
ssbF-3.66971861952376
ssbag2
(g303
g4
Ntp421
Rp422
(dp423
g307
F0.9063095736598052
sg308
(dp424
g2
(g310
g4
Ntp425
Rp426
(dp427
g307
F0.030979999999999997
sg314
g2
(g315
g316
F0.0027462958030514554
tp428
Rp429
sg319
Nsg308
(dp430
g426
F1.0
ssbF47.73807584131587
sg2
(g310
g4
Ntp431
Rp432
(dp433
g307
F0.01199495383533197
sg314
g2
(g315
g316
F0.0012135592147349023
tp434
Rp435
sg319
Nsg308
(dp436
g432
F1.0
ssbF-47.73807584131587
sg2
(g310
g4
Ntp437
Rp438
(dp439
g307
F0.020947639434066384
sg314
g2
(g315
g316
F0.002012390239620525
tp440
Rp441
sg319
Nsg308
(dp442
g438
F1.0
ssbF-43.26547516308243
ssbag2
(g303
g4
Ntp443
Rp444
(dp445
g307
F0.29106282609445
sg308
(dp446
g2
(g310
g4
Ntp447
Rp448
(dp449
g307
F0.053700000000000005
sg314
g2
(g315
g316
F0.0028986937903426953
tp450
Rp451
sg319
Nsg308
(dp452
g448
F1.0
ssbF13.083875703519452
sg2
(g310
g4
Ntp453
Rp454
(dp455
g307
F0.03145408199451509
sg314
g2
(g315
g316
F0.002465960318341523
tp456
Rp457
sg319
Nsg308
(dp458
g454
F1.0
ssbF-13.083875703519452
sg2
(g310
g4
Ntp459
Rp460
(dp461
g307
F0.07642995261190141
sg314
g2
(g315
g316
F0.005284408479305586
tp462
Rp463
sg319
Nsg308
(dp464
g460
F1.0
ssbF-3.808229838534882
ssbag2
(g303
g4
Ntp465
Rp466
(dp467
g307
F0.9244276304538517
sg308
(dp468
g2
(g310
g4
Ntp469
Rp470
(dp471
g307
F0.03192
sg314
g2
(g315
g316
F0.003980496691562799
tp472
Rp473
sg319
Nsg308
(dp474
g470
F1.0
ssbF46.37176956570451
sg2
(g310
g4
Ntp475
Rp476
(dp477
g307
F0.011984861895252386
sg314
g2
(g315
g316
F0.0021210829114673402
tp478
Rp479
sg319
Nsg308
(dp480
g476
F1.0
ssbF-46.37176956570451
sg2
(g310
g4
Ntp481
Rp482
(dp483
g307
F0.02156484450271177
sg314
g2
(g315
g316
F0.002613786797785108
tp484
Rp485
sg319
Nsg308
(dp486
g482
F1.0
ssbF-42.86734505957626
ssbag2
(g303
g4
Ntp487
Rp488
(dp489
g307
F0.2812330324163025
sg308
(dp490
g2
(g310
g4
Ntp491
Rp492
(dp493
g307
F0.052680000000000005
sg314
g2
(g315
g316
F0.0031794842709852145
tp494
Rp495
sg319
Nsg308
(dp496
g492
F1.0
ssbF13.281432796503319
sg2
(g310
g4
Ntp497
Rp498
(dp499
g307
F0.03150509841179603
sg314
g2
(g315
g316
F0.002474817380780657
tp500
Rp501
sg319
Nsg308
(dp502
g498
F1.0
ssbF-13.281432796503319
sg2
(g310
g4
Ntp503
Rp504
(dp505
g307
F0.07529308135062626
sg314
g2
(g315
g316
F0.0027713978403736054
tp506
Rp507
sg319
Nsg308
(dp508
g504
F1.0
ssbF-3.7351776201939604
ssbag2
(g303
g4
Ntp509
Rp510
(dp511
g307
F0.8930672102681664
sg308
(dp512
g2
(g310
g4
Ntp513
Rp514
(dp515
g307
F0.0316
sg314
g2
(g315
g316
F0.007347357204975394
tp516
Rp517
sg319
Nsg308
(dp518
g514
F1.0
ssbF46.52764486132487
sg2
(g310
g4
Ntp519
Rp520
(dp521
g307
F0.012405664827223835
sg314
g2
(g315
g316
F0.0037929069731671974
tp522
Rp523
sg319
Nsg308
(dp524
g520
F1.0
ssbF-46.52764486132487
sg2
(g310
g4
Ntp525
Rp526
(dp527
g307
F0.021492598711593695
sg314
g2
(g315
g316
F0.0048889876351259735
tp528
Rp529
sg319
Nsg308
(dp530
g526
F1.0
ssbF-41.55231399665139
ssbag2
(g303
g4
Ntp531
Rp532
(dp533
g307
F0.26499771035210534
sg308
(dp534
g2
(g310
g4
Ntp535
Rp536
(dp537
g307
F0.05184
sg314
g2
(g315
g316
F0.0036100192980001123
tp538
Rp539
sg319
Nsg308
(dp540
g536
F1.0
ssbF12.740209839398311
sg2
(g310
g4
Ntp541
Rp542
(dp543
g307
F0.031039894374375505
sg314
g2
(g315
g316
F0.0013185777552477554
tp544
Rp545
sg319
Nsg308
(dp546
g542
F1.0
ssbF-12.740209839398311
sg2
(g310
g4
Ntp547
Rp548
(dp549
g307
F0.0784916428069781
sg314
g2
(g315
g316
F0.004782705127051344
tp550
Rp551
sg319
Nsg308
(dp552
g548
F1.0
ssbF-3.3761264368459156
ssbag2
(g303
g4
Ntp553
Rp554
(dp555
g307
F0.911497312072123
sg308
(dp556
g2
(g310
g4
Ntp557
Rp558
(dp559
g307
F0.033600000000000005
sg314
g2
(g315
g316
F0.0071893310513353684
tp560
Rp561
sg319
Nsg308
(dp562
g558
F1.0
ssbF43.74768400703567
sg2
(g310
g4
Ntp563
Rp564
(dp565
g307
F0.012764672764722077
sg314
g2
(g315
g316
F0.002458722332973164
tp566
Rp567
sg319
Nsg308
(dp568
g564
F1.0
ssbF-43.74768400703567
sg2
(g310
g4
Ntp569
Rp570
(dp571
g307
F0.022858352909360325
sg314
g2
(g315
g316
F0.004637545879699055
tp572
Rp573
sg319
Nsg308
(dp574
g570
F1.0
ssbF-39.875896381793616
ssbag2
(g303
g4
Ntp575
Rp576
(dp577
g307
F0.2784455942996781
sg308
(dp578
g2
(g310
g4
Ntp579
Rp580
(dp581
g307
F0.05108
sg314
g2
(g315
g316
F0.005082790667604096
tp582
Rp583
sg319
Nsg308
(dp584
g580
F1.0
ssbF13.040172002747633
sg2
(g310
g4
Ntp585
Rp586
(dp587
g307
F0.029727091906379143
sg314
g2
(g315
g316
F0.0024109402138771797
tp588
Rp589
sg319
Nsg308
(dp590
g586
F1.0
ssbF-13.040172002747633
sg2
(g310
g4
Ntp591
Rp592
(dp593
g307
F0.07668610504441925
sg314
g2
(g315
g316
F0.003234129347774446
tp594
Rp595
sg319
Nsg308
(dp596
g592
F1.0
ssbF-3.630978443075088
ssbag2
(g303
g4
Ntp597
Rp598
(dp599
g307
F0.904201193196549
sg308
(dp600
g2
(g310
g4
Ntp601
Rp602
(dp603
g307
F0.03506
sg314
g2
(g315
g316
F0.007930433207497018
tp604
Rp605
sg319
Nsg308
(dp606
g602
F1.0
ssbF41.804927285919575
sg2
(g310
g4
Ntp607
Rp608
(dp609
g307
F0.013430942089855152
sg314
g2
(g315
g316
F0.0030696744261165263
tp610
Rp611
sg319
Nsg308
(dp612
g608
F1.0
ssbF-41.804927285919575
sg2
(g310
g4
Ntp613
Rp614
(dp615
g307
F0.02392062526889773
sg314
g2
(g315
g316
F0.0049522948686676616
tp616
Rp617
sg319
Nsg308
(dp618
g614
F1.0
ssbF-37.800065133423445
ssbag2
(g303
g4
Ntp619
Rp620
(dp621
g307
F0.28704351147118473
sg308
(dp622
g2
(g310
g4
Ntp623
Rp624
(dp625
g307
F0.052239999999999995
sg314
g2
(g315
g316
F0.005426938210553759
tp626
Rp627
sg319
Nsg308
(dp628
g624
F1.0
ssbF13.381079264057634
sg2
(g310
g4
Ntp629
Rp630
(dp631
g307
F0.030788553087029342
sg314
g2
(g315
g316
F0.003780525154762788
tp632
Rp633
sg319
Nsg308
(dp634
g630
F1.0
ssbF-13.381079264057634
sg2
(g310
g4
Ntp635
Rp636
(dp637
g307
F0.07473238744546255
sg314
g2
(g315
g316
F0.008583672996351016
tp638
Rp639
sg319
Nsg308
(dp640
g636
F1.0
ssbF-3.84095197922936
ssbag2
(g303
g4
Ntp641
Rp642
(dp643
g307
F0.8869264021254953
sg308
(dp644
g2
(g310
g4
Ntp645
Rp646
(dp647
g307
F0.03234
sg314
g2
(g315
g316
F0.0044176024961490555
tp648
Rp649
sg319
Nsg308
(dp650
g646
F1.0
ssbF44.96196268243461
sg2
(g310
g4
Ntp651
Rp652
(dp653
g307
F0.012613850401286134
sg314
g2
(g315
g316
F0.0018302403582762272
tp654
Rp655
sg319
Nsg308
(dp656
g652
F1.0
ssbF-44.96196268243461
sg2
(g310
g4
Ntp657
Rp658
(dp659
g307
F0.022241021973684265
sg314
g2
(g315
g316
F0.0031217102903111013
tp660
Rp661
sg319
Nsg308
(dp662
g658
F1.0
ssbF-39.87795179443251
ssbag2
(g303
g4
Ntp663
Rp664
(dp665
g307
F0.2687606072173151
sg308
(dp666
g2
(g310
g4
Ntp667
Rp668
(dp669
g307
F0.05018
sg314
g2
(g315
g316
F0.0021315432884721915
tp670
Rp671
sg319
Nsg308
(dp672
g668
F1.0
ssbF13.515069178817024
sg2
(g310
g4
Ntp673
Rp674
(dp675
g307
F0.03029400432647732
sg314
g2
(g315
g316
F0.0019259159379998339
tp676
Rp677
sg319
Nsg308
(dp678
g674
F1.0
ssbF-13.515069178817024
sg2
(g310
g4
Ntp679
Rp680
(dp681
g307
F0.07399148215736548
sg314
g2
(g315
g316
F0.0024499506448076797
tp682
Rp683
sg319
Nsg308
(dp684
g680
F1.0
ssbF-3.632318199082884
ssbag2
(g303
g4
Ntp685
Rp686
(dp687
g307
F0.9251269092934123
sg308
(dp688
g2
(g310
g4
Ntp689
Rp690
(dp691
g307
F0.034999999999999996
sg314
g2
(g315
g316
F0.006265176188562038
tp692
Rp693
sg319
Nsg308
(dp694
g690
F1.0
ssbF42.1906592657124
sg2
(g310
g4
Ntp695
Rp696
(dp697
g307
F0.013072707907523818
sg314
g2
(g315
g316
F0.003049824804428902
tp698
Rp699
sg319
Nsg308
(dp700
g696
F1.0
ssbF-42.1906592657124
sg2
(g310
g4
Ntp701
Rp702
(dp703
g307
F0.023701928753995138
sg314
g2
(g315
g316
F0.004516787767388878
tp704
Rp705
sg319
Nsg308
(dp706
g702
F1.0
ssbF-39.03171420753998
ssbag2
(g303
g4
Ntp707
Rp708
(dp709
g307
F0.2890924607501528
sg308
(dp710
g2
(g310
g4
Ntp711
Rp712
(dp713
g307
F0.053720000000000004
sg314
g2
(g315
g316
F0.0028550173001592703
tp714
Rp715
sg319
Nsg308
(dp716
g712
F1.0
ssbF12.84605170040744
sg2
(g310
g4
Ntp717
Rp718
(dp719
g307
F0.031215617525734884
sg314
g2
(g315
g316
F0.0014121683949437846
tp720
Rp721
sg319
Nsg308
(dp722
g718
F1.0
ssbF-12.84605170040744
sg2
(g310
g4
Ntp723
Rp724
(dp725
g307
F0.07784493035850719
sg314
g2
(g315
g316
F0.0046482649005573475
tp726
Rp727
sg319
Nsg308
(dp728
g724
F1.0
ssbF-3.713696696994472
ssbag2
(g303
g4
Ntp729
Rp730
(dp731
g307
F0.8645772612891256
sg308
(dp732
g2
(g310
g4
Ntp733
Rp734
(dp735
g307
F0.029459999999999997
sg314
g2
(g315
g316
F0.005943538312896464
tp736
Rp737
sg319
Nsg308
(dp738
g734
F1.0
ssbF49.49070189221489
sg2
(g310
g4
Ntp739
Rp740
(dp741
g307
F0.01199051122265195
sg314
g2
(g315
g316
F0.0029920382229536254
tp742
Rp743
sg319
Nsg308
(dp744
g740
F1.0
ssbF-49.49070189221489
sg2
(g310
g4
Ntp745
Rp746
(dp747
g307
F0.020205815673778202
sg314
g2
(g315
g316
F0.003969169081755432
tp748
Rp749
sg319
Nsg308
(dp750
g746
F1.0
ssbF-42.78853550124769
ssbag2
(g303
g4
Ntp751
Rp752
(dp753
g307
F0.2901372463258031
sg308
(dp754
g2
(g310
g4
Ntp755
Rp756
(dp757
g307
F0.053059999999999996
sg314
g2
(g315
g316
F0.005330919206534464
tp758
Rp759
sg319
Nsg308
(dp760
g756
F1.0
ssbF13.282611948222083
sg2
(g310
g4
Ntp761
Rp762
(dp763
g307
F0.031216612008480842
sg314
g2
(g315
g316
F0.002991763063617126
tp764
Rp765
sg319
Nsg308
(dp766
g762
F1.0
ssbF-13.282611948222083
sg2
(g310
g4
Ntp767
Rp768
(dp769
g307
F0.0752863972762415
sg314
g2
(g315
g316
F0.006516285033500347
tp770
Rp771
sg319
Nsg308
(dp772
g768
F1.0
ssbF-3.8537804546713663
ssbag2
(g303
g4
Ntp773
Rp774
(dp775
g307
F0.8897903282227537
sg308
(dp776
g2
(g310
g4
Ntp777
Rp778
(dp779
g307
F0.03328
sg314
g2
(g315
g316
F0.005275537949160069
tp780
Rp781
sg319
Nsg308
(dp782
g778
F1.0
ssbF44.05340551245426
sg2
(g310
g4
Ntp783
Rp784
(dp785
g307
F0.013082008088314473
sg314
g2
(g315
g316
F0.002845680756442078
tp786
Rp787
sg319
Nsg308
(dp788
g784
F1.0
ssbF-44.05340551245426
sg2
(g310
g4
Ntp789
Rp790
(dp791
g307
F0.02269972067692455
sg314
g2
(g315
g316
F0.0033262452677186105
tp792
Rp793
sg319
Nsg308
(dp794
g790
F1.0
ssbF-39.19829415025674
ssbag2
(g303
g4
Ntp795
Rp796
(dp797
g307
F0.2843993262856078
sg308
(dp798
g2
(g310
g4
Ntp799
Rp800
(dp801
g307
F0.05406
sg314
g2
(g315
g316
F0.0028403996887851747
tp802
Rp803
sg319
Nsg308
(dp804
g800
F1.0
ssbF12.777363786321702
sg2
(g310
g4
Ntp805
Rp806
(dp807
g307
F0.03180194027487421
sg314
g2
(g315
g316
F0.002066892497272069
tp808
Rp809
sg319
Nsg308
(dp810
g806
F1.0
ssbF-12.777363786321702
sg2
(g310
g4
Ntp811
Rp812
(dp813
g307
F0.07826340524721619
sg314
g2
(g315
g316
F0.00430696347985296
tp814
Rp815
sg319
Nsg308
(dp816
g812
F1.0
ssbF-3.6338736525360154
ssbag2
(g303
g4
Ntp817
Rp818
(dp819
g307
F0.9222967692328036
sg308
(dp820
g2
(g310
g4
Ntp821
Rp822
(dp823
g307
F0.03232
sg314
g2
(g315
g316
F0.0053184688445956745
tp824
Rp825
sg319
Nsg308
(dp826
g822
F1.0
ssbF45.45455341099557
sg2
(g310
g4
Ntp827
Rp828
(dp829
g307
F0.012029474628570489
sg314
g2
(g315
g316
F0.0021286764513049772
tp830
Rp831
sg319
Nsg308
(dp832
g828
F1.0
ssbF-45.45455341099557
sg2
(g310
g4
Ntp833
Rp834
(dp835
g307
F0.021999996149078816
sg314
g2
(g315
g316
F0.003356030605306958
tp836
Rp837
sg319
Nsg308
(dp838
g834
F1.0
ssbF-41.92258775788113
ssbag2
(g303
g4
Ntp839
Rp840
(dp841
g307
F0.28118009954472833
sg308
(dp842
g2
(g310
g4
Ntp843
Rp844
(dp845
g307
F0.051379999999999995
sg314
g2
(g315
g316
F0.0036257864407298218
tp846
Rp847
sg319
Nsg308
(dp848
g844
F1.0
ssbF13.266798238971763
sg2
(g310
g4
Ntp849
Rp850
(dp851
g307
F0.030185730329210077
sg314
g2
(g315
g316
F0.0026769386779972233
tp852
Rp853
sg319
Nsg308
(dp854
g850
F1.0
ssbF-13.266798238971763
sg2
(g310
g4
Ntp855
Rp856
(dp857
g307
F0.07537613687848656
sg314
g2
(g315
g316
F0.008228823765310374
tp858
Rp859
sg319
Nsg308
(dp860
g856
F1.0
ssbF-3.730359649473907
ssbag2
(g303
g4
Ntp861
Rp862
(dp863
g307
F0.9253420112133874
sg308
(dp864
g2
(g310
g4
Ntp865
Rp866
(dp867
g307
F0.03362
sg314
g2
(g315
g316
F0.003972742721617502
tp868
Rp869
sg319
Nsg308
(dp870
g866
F1.0
ssbF44.28601139261701
sg2
(g310
g4
Ntp871
Rp872
(dp873
g307
F0.012725320571550666
sg314
g2
(g315
g316
F0.0020781793326262363
tp874
Rp875
sg319
Nsg308
(dp876
g872
F1.0
ssbF-44.28601139261701
sg2
(g310
g4
Ntp877
Rp878
(dp879
g307
F0.02258049367179433
sg314
g2
(g315
g316
F0.0024254490558430577
tp880
Rp881
sg319
Nsg308
(dp882
g878
F1.0
ssbF-40.97970685066321
ssbag2
(g303
g4
Ntp883
Rp884
(dp885
g307
F0.26959022997241316
sg308
(dp886
g2
(g310
g4
Ntp887
Rp888
(dp889
g307
F0.0519
sg314
g2
(g315
g316
F0.004522282787601245
tp890
Rp891
sg319
Nsg308
(dp892
g888
F1.0
ssbF12.397788182730357
sg2
(g310
g4
Ntp893
Rp894
(dp895
g307
F0.030154973709912065
sg314
g2
(g315
g316
F0.0025666101827184385
tp896
Rp897
sg319
Nsg308
(dp898
g894
F1.0
ssbF-12.397788182730357
sg2
(g310
g4
Ntp899
Rp900
(dp901
g307
F0.0806595487244218
sg314
g2
(g315
g316
F0.006199431024392082
tp902
Rp903
sg319
Nsg308
(dp904
g900
F1.0
ssbF-3.342322567331543
ssbag2
(g303
g4
Ntp905
Rp906
(dp907
g307
F0.9378035137637029
sg308
(dp908
g2
(g310
g4
Ntp909
Rp910
(dp911
g307
F0.031939999999999996
sg314
g2
(g315
g316
F0.004805416133684278
tp912
Rp913
sg319
Nsg308
(dp914
g910
F1.0
ssbF46.70792904961671
sg2
(g310
g4
Ntp915
Rp916
(dp917
g307
F0.011861963297334445
sg314
g2
(g315
g316
F0.0011357040804900822
tp918
Rp919
sg319
Nsg308
(dp920
g916
F1.0
ssbF-46.70792904961671
sg2
(g310
g4
Ntp921
Rp922
(dp923
g307
F0.02140964115402599
sg314
g2
(g315
g316
F0.002997927930127524
tp924
Rp925
sg319
Nsg308
(dp926
g922
F1.0
ssbF-43.802859983356285
ssbag2
(g303
g4
Ntp927
Rp928
(dp929
g307
F0.27265594485976624
sg308
(dp930
g2
(g310
g4
Ntp931
Rp932
(dp933
g307
F0.05018
sg314
g2
(g315
g316
F0.004622093190949463
tp934
Rp935
sg319
Nsg308
(dp936
g932
F1.0
ssbF13.340830828430404
sg2
(g310
g4
Ntp937
Rp938
(dp939
g307
F0.029742296504149196
sg314
g2
(g315
g316
F0.002653206594308873
tp940
Rp941
sg319
Nsg308
(dp942
g938
F1.0
ssbF-13.340830828430404
sg2
(g310
g4
Ntp943
Rp944
(dp945
g307
F0.07495785029137152
sg314
g2
(g315
g316
F0.0072303416952784775
tp946
Rp947
sg319
Nsg308
(dp948
g944
F1.0
ssbF-3.63745683473999
ssbag2
(g303
g4
Ntp949
Rp950
(dp951
g307
F0.911883114992292
sg308
(dp952
g2
(g310
g4
Ntp953
Rp954
(dp955
g307
F0.030100000000000005
sg314
g2
(g315
g316
F0.003477767646838254
tp956
Rp957
sg319
Nsg308
(dp958
g954
F1.0
ssbF48.93627294138638
sg2
(g310
g4
Ntp959
Rp960
(dp961
g307
F0.011465905897972584
sg314
g2
(g315
g316
F0.0013610754409689762
tp962
Rp963
sg319
Nsg308
(dp964
g960
F1.0
ssbF-48.93627294138638
sg2
(g310
g4
Ntp965
Rp966
(dp967
g307
F0.020434739711333434
sg314
g2
(g315
g316
F0.0024620586959117853
tp968
Rp969
sg319
Nsg308
(dp970
g966
F1.0
ssbF-44.624161005904426
ssbag2
(g303
g4
Ntp971
Rp972
(dp973
g307
F0.2865389643883426
sg308
(dp974
g2
(g310
g4
Ntp975
Rp976
(dp977
g307
F0.05416
sg314
g2
(g315
g316
F0.005317164214652021
tp978
Rp979
sg319
Nsg308
(dp980
g976
F1.0
ssbF12.918087893217365
sg2
(g310
g4
Ntp981
Rp982
(dp983
g307
F0.031978778850483766
sg314
g2
(g315
g316
F0.003204527352259425
tp984
Rp985
sg319
Nsg308
(dp986
g982
F1.0
ssbF-12.918087893217365
sg2
(g310
g4
Ntp987
Rp988
(dp989
g307
F0.07741083729001794
sg314
g2
(g315
g316
F0.009301326296013924
tp990
Rp991
sg319
Nsg308
(dp992
g988
F1.0
ssbF-3.7015355268000905
ssbag2
(g303
g4
Ntp993
Rp994
(dp995
g307
F0.8996065140870431
sg308
(dp996
g2
(g310
g4
Ntp997
Rp998
(dp999
g307
F0.034960000000000005
sg314
g2
(g315
g316
F0.0010594239305717341
tp1000
Rp1001
sg319
Nsg308
(dp1002
g998
F1.0
ssbF41.9266878154498
sg2
(g310
g4
Ntp1003
Rp1004
(dp1005
g307
F0.013503344085588804
sg314
g2
(g315
g316
F0.0009501809239000615
tp1006
Rp1007
sg319
Nsg308
(dp1008
g1004
F1.0
ssbF-41.9266878154498
sg2
(g310
g4
Ntp1009
Rp1010
(dp1011
g307
F0.023851156676190012
sg314
g2
(g315
g316
F0.0010388185423305513
tp1012
Rp1013
sg319
Nsg308
(dp1014
g1010
F1.0
ssbF-37.7175214728725
ssbag2
(g303
g4
Ntp1015
Rp1016
(dp1017
g307
F0.2990368238921763
sg308
(dp1018
g2
(g310
g4
Ntp1019
Rp1020
(dp1021
g307
F0.0496
sg314
g2
(g315
g316
F0.0045120436436241855
tp1022
Rp1023
sg319
Nsg308
(dp1024
g1020
F1.0
ssbF14.301811116767466
sg2
(g310
g4
Ntp1025
Rp1026
(dp1027
g307
F0.028690982152492207
sg314
g2
(g315
g316
F0.0024509785891715426
tp1028
Rp1029
sg319
Nsg308
(dp1030
g1026
F1.0
ssbF-14.301811116767466
sg2
(g310
g4
Ntp1031
Rp1032
(dp1033
g307
F0.0699212143018445
sg314
g2
(g315
g316
F0.00829616909043986
tp1034
Rp1035
sg319
Nsg308
(dp1036
g1032
F1.0
ssbF-4.276768172263962
ssbag2
(g303
g4
Ntp1037
Rp1038
(dp1039
g307
F0.8800748908896036
sg308
(dp1040
g2
(g310
g4
Ntp1041
Rp1042
(dp1043
g307
F0.03312
sg314
g2
(g315
g316
F0.004404320648314091
tp1044
Rp1045
sg319
Nsg308
(dp1046
g1042
F1.0
ssbF43.65954018782688
sg2
(g310
g4
Ntp1047
Rp1048
(dp1049
g307
F0.012962323416521333
sg314
g2
(g315
g316
F0.0021122155284086105
tp1050
Rp1051
sg319
Nsg308
(dp1052
g1048
F1.0
ssbF-43.65954018782688
sg2
(g310
g4
Ntp1053
Rp1054
(dp1055
g307
F0.022904501414763394
sg314
g2
(g315
g316
F0.0032412503673359882
tp1056
Rp1057
sg319
Nsg308
(dp1058
g1054
F1.0
ssbF-38.423665067092
ssbag2
(g303
g4
Ntp1059
Rp1060
(dp1061
g307
F0.278742851993587
sg308
(dp1062
g2
(g310
g4
Ntp1063
Rp1064
(dp1065
g307
F0.05266
sg314
g2
(g315
g316
F0.0048501245832983245
tp1066
Rp1067
sg319
Nsg308
(dp1068
g1064
F1.0
ssbF13.268283533076467
sg2
(g310
g4
Ntp1069
Rp1070
(dp1071
g307
F0.03165179262346107
sg314
g2
(g315
g316
F0.00208361561980798
tp1072
Rp1073
sg319
Nsg308
(dp1074
g1070
F1.0
ssbF-13.268283533076467
sg2
(g310
g4
Ntp1075
Rp1076
(dp1077
g307
F0.07536769903259173
sg314
g2
(g315
g316
F0.009723630468297375
tp1078
Rp1079
sg319
Nsg308
(dp1080
g1076
F1.0
ssbF-3.6984391930692806
ssbag2
(g303
g4
Ntp1081
Rp1082
(dp1083
g307
F0.8500392806698982
sg308
(dp1084
g2
(g310
g4
Ntp1085
Rp1086
(dp1087
g307
F0.03128
sg314
g2
(g315
g316
F0.0039140983491519005
tp1088
Rp1089
sg319
Nsg308
(dp1090
g1086
F1.0
ssbF47.11033938918471
sg2
(g310
g4
Ntp1091
Rp1092
(dp1093
g307
F0.013236417812072803
sg314
g2
(g315
g316
F0.0017907850548421192
tp1094
Rp1095
sg319
Nsg308
(dp1096
g1092
F1.0
ssbF-47.11033938918471
sg2
(g310
g4
Ntp1097
Rp1098
(dp1099
g307
F0.02122676280760511
sg314
g2
(g315
g316
F0.0024700352190345234
tp1100
Rp1101
sg319
Nsg308
(dp1102
g1098
F1.0
ssbF-40.04563900649734
ssbag2
(g303
g4
Ntp1103
Rp1104
(dp1105
g307
F0.28056992198903175
sg308
(dp1106
g2
(g310
g4
Ntp1107
Rp1108
(dp1109
g307
F0.05045999999999999
sg314
g2
(g315
g316
F0.004831014483044298
tp1110
Rp1111
sg319
Nsg308
(dp1112
g1108
F1.0
ssbF13.659768310028957
sg2
(g310
g4
Ntp1113
Rp1114
(dp1115
g307
F0.029920125851253393
sg314
g2
(g315
g316
F0.003092462372188289
tp1116
Rp1117
sg319
Nsg308
(dp1118
g1114
F1.0
ssbF-13.659768310028957
sg2
(g310
g4
Ntp1119
Rp1120
(dp1121
g307
F0.07320768385696581
sg314
g2
(g315
g316
F0.009856746237810266
tp1122
Rp1123
sg319
Nsg308
(dp1124
g1120
F1.0
ssbF-3.8325201291330724
ssbag2
(g303
g4
Ntp1125
Rp1126
(dp1127
g307
F0.9143027710313989
sg308
(dp1128
g2
(g310
g4
Ntp1129
Rp1130
(dp1131
g307
F0.028959999999999996
sg314
g2
(g315
g316
F0.004749750261407744
tp1132
Rp1133
sg319
Nsg308
(dp1134
g1130
F1.0
ssbF51.23623419980012
sg2
(g310
g4
Ntp1135
Rp1136
(dp1137
g307
F0.011115152787654212
sg314
g2
(g315
g316
F0.0013403352852753264
tp1138
Rp1139
sg319
Nsg308
(dp1140
g1136
F1.0
ssbF-51.23623419980012
sg2
(g310
g4
Ntp1141
Rp1142
(dp1143
g307
F0.0195174375247879
sg314
g2
(g315
g316
F0.003215191599094508
tp1144
Rp1145
sg319
Nsg308
(dp1146
g1142
F1.0
ssbF-46.84543090609098
ssbag2
(g303
g4
Ntp1147
Rp1148
(dp1149
g307
F0.27714242525216426
sg308
(dp1150
g2
(g310
g4
Ntp1151
Rp1152
(dp1153
g307
F0.0514
sg314
g2
(g315
g316
F0.0020136406193917754
tp1154
Rp1155
sg319
Nsg308
(dp1156
g1152
F1.0
ssbF13.674591717780784
sg2
(g310
g4
Ntp1157
Rp1158
(dp1159
g307
F0.03113303839910615
sg314
g2
(g315
g316
F0.0012354337058171027
tp1160
Rp1161
sg319
Nsg308
(dp1162
g1158
F1.0
ssbF-13.674591717780784
sg2
(g310
g4
Ntp1163
Rp1164
(dp1165
g307
F0.07312832592286621
sg314
g2
(g315
g316
F0.0013105584654117316
tp1166
Rp1167
sg319
Nsg308
(dp1168
g1164
F1.0
ssbF-3.7898095129989247
ssbag2
(g303
g4
Ntp1169
Rp1170
(dp1171
g307
F0.9200137105571109
sg308
(dp1172
g2
(g310
g4
Ntp1173
Rp1174
(dp1175
g307
F0.0294
sg314
g2
(g315
g316
F0.004814551152338716
tp1176
Rp1177
sg319
Nsg308
(dp1178
g1174
F1.0
ssbF50.15833628558689
sg2
(g310
g4
Ntp1179
Rp1180
(dp1181
g307
F0.011057810472045522
sg314
g2
(g315
g316
F0.0016713541964077923
tp1182
Rp1183
sg319
Nsg308
(dp1184
g1180
F1.0
ssbF-50.15833628558689
sg2
(g310
g4
Ntp1185
Rp1186
(dp1187
g307
F0.01993686541567672
sg314
g2
(g315
g316
F0.002815406648720987
tp1188
Rp1189
sg319
Nsg308
(dp1190
g1186
F1.0
ssbF-46.14635708147417
ssbag2
(g303
g4
Ntp1191
Rp1192
(dp1193
g307
F0.2711867230829659
sg308
(dp1194
g2
(g310
g4
Ntp1195
Rp1196
(dp1197
g307
F0.05074000000000001
sg314
g2
(g315
g316
F0.005056332667100765
tp1198
Rp1199
sg319
Nsg308
(dp1200
g1196
F1.0
ssbF13.452330109249873
sg2
(g310
g4
Ntp1201
Rp1202
(dp1203
g307
F0.030580910765600617
sg314
g2
(g315
g316
F0.003149809522132733
tp1204
Rp1205
sg319
Nsg308
(dp1206
g1202
F1.0
ssbF-13.452330109249873
sg2
(g310
g4
Ntp1207
Rp1208
(dp1209
g307
F0.07433656414009616
sg314
g2
(g315
g316
F0.007585952601755723
tp1210
Rp1211
sg319
Nsg308
(dp1212
g1208
F1.0
ssbF-3.6480933201577894
ssbag2
(g303
g4
Ntp1213
Rp1214
(dp1215
g307
F0.9058778236791942
sg308
(dp1216
g2
(g310
g4
Ntp1217
Rp1218
(dp1219
g307
F0.03342
sg314
g2
(g315
g316
F0.0031831189377258366
tp1220
Rp1221
sg319
Nsg308
(dp1222
g1218
F1.0
ssbF43.880767661838114
sg2
(g310
g4
Ntp1223
Rp1224
(dp1225
g307
F0.012775925797373616
sg314
g2
(g315
g316
F0.002024288935278522
tp1226
Rp1227
sg319
Nsg308
(dp1228
g1224
F1.0
ssbF-43.880767661838114
sg2
(g310
g4
Ntp1229
Rp1230
(dp1231
g307
F0.022789027022188407
sg314
g2
(g315
g316
F0.001589284286578553
tp1232
Rp1233
sg319
Nsg308
(dp1234
g1230
F1.0
ssbF-39.75061431087828
ssbag2
(g303
g4
Ntp1235
Rp1236
(dp1237
g307
F0.2815744524503373
sg308
(dp1238
g2
(g310
g4
Ntp1239
Rp1240
(dp1241
g307
F0.051859999999999996
sg314
g2
(g315
g316
F0.005184300348375063
tp1242
Rp1243
sg319
Nsg308
(dp1244
g1240
F1.0
ssbF13.039032433465287
sg2
(g310
g4
Ntp1245
Rp1246
(dp1247
g307
F0.03026526481645499
sg314
g2
(g315
g316
F0.002885418983140311
tp1248
Rp1249
sg319
Nsg308
(dp1250
g1246
F1.0
ssbF-13.039032433465287
sg2
(g310
g4
Ntp1251
Rp1252
(dp1253
g307
F0.07669280716209073
sg314
g2
(g315
g316
F0.00877643610419932
tp1254
Rp1255
sg319
Nsg308
(dp1256
g1252
F1.0
ssbF-3.671458417935178
ssbag2
(g303
g4
Ntp1257
Rp1258
(dp1259
g307
F0.8962632261367615
sg308
(dp1260
g2
(g310
g4
Ntp1261
Rp1262
(dp1263
g307
F0.0313
sg314
g2
(g315
g316
F0.005725808020403557
tp1264
Rp1265
sg319
Nsg308
(dp1266
g1262
F1.0
ssbF46.9971027243605
sg2
(g310
g4
Ntp1267
Rp1268
(dp1269
g307
F0.012229394065132617
sg314
g2
(g315
g316
F0.0026777425591324854
tp1270
Rp1271
sg319
Nsg308
(dp1272
g1268
F1.0
ssbF-46.9971027243605
sg2
(g310
g4
Ntp1273
Rp1274
(dp1275
g307
F0.021277907403463393
sg314
g2
(g315
g316
F0.004043955077326442
tp1276
Rp1277
sg319
Nsg308
(dp1278
g1274
F1.0
ssbF-42.12177490681613
ssbag2
(g303
g4
Ntp1279
Rp1280
(dp1281
g307
F0.27705123591990766
sg308
(dp1282
g2
(g310
g4
Ntp1283
Rp1284
(dp1285
g307
F0.05058
sg314
g2
(g315
g316
F0.003813344004570591
tp1286
Rp1287
sg319
Nsg308
(dp1288
g1284
F1.0
ssbF13.440395488767493
sg2
(g310
g4
Ntp1289
Rp1290
(dp1291
g307
F0.0299666753287545
sg314
g2
(g315
g316
F0.00201747306285682
tp1292
Rp1293
sg319
Nsg308
(dp1294
g1290
F1.0
ssbF-13.440395488767493
sg2
(g310
g4
Ntp1295
Rp1296
(dp1297
g307
F0.07440257251624235
sg314
g2
(g315
g316
F0.009945243058277837
tp1298
Rp1299
sg319
Nsg308
(dp1300
g1296
F1.0
ssbF-3.723678181415386
ssbag2
(g303
g4
Ntp1301
Rp1302
(dp1303
g307
F0.9164153961201676
sg308
(dp1304
g2
(g310
g4
Ntp1305
Rp1306
(dp1307
g307
F0.027839999999999997
sg314
g2
(g315
g316
F0.0039024612550610798
tp1308
Rp1309
sg319
Nsg308
(dp1310
g1306
F1.0
ssbF53.149514592638994
sg2
(g310
g4
Ntp1311
Rp1312
(dp1313
g307
F0.010597784278107257
sg314
g2
(g315
g316
F0.0012798913938203624
tp1314
Rp1315
sg319
Nsg308
(dp1316
g1312
F1.0
ssbF-53.149514592638994
sg2
(g310
g4
Ntp1317
Rp1318
(dp1319
g307
F0.01881484727874629
sg314
g2
(g315
g316
F0.002411747671404522
tp1320
Rp1321
sg319
Nsg308
(dp1322
g1318
F1.0
ssbF-48.70703346900789
ssbag2
(g303
g4
Ntp1323
Rp1324
(dp1325
g307
F0.26820321164195
sg308
(dp1326
g2
(g310
g4
Ntp1327
Rp1328
(dp1329
g307
F0.049839999999999995
sg314
g2
(g315
g316
F0.004435886992456878
tp1330
Rp1331
sg319
Nsg308
(dp1332
g1328
F1.0
ssbF13.373070388451971
sg2
(g310
g4
Ntp1333
Rp1334
(dp1335
g307
F0.029784530025539147
sg314
g2
(g315
g316
F0.002418623185594643
tp1336
Rp1337
sg319
Nsg308
(dp1338
g1334
F1.0
ssbF-13.373070388451971
sg2
(g310
g4
Ntp1339
Rp1340
(dp1341
g307
F0.07477714324030842
sg314
g2
(g315
g316
F0.00512388625983118
tp1342
Rp1343
sg319
Nsg308
(dp1344
g1340
F1.0
ssbF-3.5867004276966785
ssbag2
(g303
g4
Ntp1345
Rp1346
(dp1347
g307
F0.9556050463992681
sg308
(dp1348
g2
(g310
g4
Ntp1349
Rp1350
(dp1351
g307
F0.03294
sg314
g2
(g315
g316
F0.0035993267228345747
tp1352
Rp1353
sg319
Nsg308
(dp1354
g1350
F1.0
ssbF44.797773327723455
sg2
(g310
g4
Ntp1355
Rp1356
(dp1357
g307
F0.011608469983799741
sg314
g2
(g315
g316
F0.0012599170725150614
tp1358
Rp1359
sg319
Nsg308
(dp1360
g1356
F1.0
ssbF-44.797773327723455
sg2
(g310
g4
Ntp1361
Rp1362
(dp1363
g307
F0.02232253805751417
sg314
g2
(g315
g316
F0.0020948903052661312
tp1364
Rp1365
sg319
Nsg308
(dp1366
g1362
F1.0
ssbF-42.80897825942307
ssbatp1367
bsS'# groups'
p1368
I2
sS'xs type'
p1369
S'transport'
p1370
s.