(dp0
S'domain'
p1
ccopy_reg
_reconstructor
p2
(copenmc.universe
Cell
p3
c__builtin__
object
p4
Ntp5
Rp6
(dp7
S'_type'
p8
S'normal'
p9
sS'_rotation'
p10
NsS'_fill'
p11
g2
(copenmc.material
Material
p12
g4
Ntp13
Rp14
(dp15
S'_density_units'
p16
S'g/cm3'
p17
sS'_density'
p18
F0.07425478275227912
sS'_sab'
p19
NsS'_name'
p20
S''
p21
sS'_nuclides'
p22
(dp23
sS'_elements'
p24
(dp25
sS'_id'
p26
I10003
sbsg20
g21
sS'_translation'
p27
NsS'_offset'
p28
Nsg26
I10014
sS'_surfaces'
p29
(dp30
I10004
(g2
(copenmc.surface
ZCylinder
p31
g4
Ntp32
Rp33
(dp34
g8
S'z-cylinder'
p35
sS'_R'
p36
NsS'_coeffs'
p37
(dp38
S'y0'
p39
F0.0
sS'x0'
p40
F0.0
sS'R'
p41
F0.60198
ssg20
g21
sS'_bc_type'
p42
S'transmission'
p43
sg26
I10004
sS'_x0'
p44
NsS'_coeff_keys'
p45
(lp46
g40
ag39
ag41
asS'_y0'
p47
Nsbcnumpy.core.multiarray
scalar
p48
(cnumpy
dtype
p49
(S'i8'
p50
I0
I1
tp51
Rp52
(I3
S'<'
p53
NNNI-1
I-1
I0
tp54
bS'\x01\x00\x00\x00\x00\x00\x00\x00'
p55
tp56
Rp57
tp58
ssbsS'group bounds'
p59
cnumpy.core.multiarray
_reconstruct
p60
(cnumpy
ndarray
p61
(I0
tp62
S'b'
p63
tp64
Rp65
(I1
(I3
tp66
g49
(S'f8'
p67
I0
I1
tp68
Rp69
(I3
S'<'
p70
NNNI-1
I-1
I0
tp71
bI00
S'\x00\x00\x00\x00\x00\x00\x00\x00\xf1h\xe3\x88\xb5\xf8\xa4>\x00\x00\x00\x00\x00\x00$@'
p72
tp73
bsS'tallies'
p74
(dp75
S'nu-scatter'
p76
g2
(copenmc.tallies
Tally
p77
g4
Ntp78
Rp79
(dp80
S'_num_tot_score_bins'
p81
I1
sS'_label'
p82
S'2 groups'
p83
sS'_filters'
p84
(lp85
g2
(copenmc.tallies
Filter
p86
g4
Ntp87
Rp88
(dp89
S'_mesh'
p90
Nsg8
S'distribcell'
p91
sg28
I7
sS'_stride'
p92
I1
sS'_bin_edges'
p93
(lp94
I10014
asbag2
(g86
g4
Ntp95
Rp96
(dp97
g90
Nsg8
S'energy'
p98
sg28
I0
sg92
I24
sg93
(lp99
F0.0
aF6.25e-07
aF10.0
asbasS'_sum_sq'
p100
g60
(g61
(I0
tp101
g63
tp102
Rp103
(I1
(I48
I1
tp104
g69
I00
S'\x9e\x10\xb6\xafn\x82P?\xe4\xd6I"\xa0gh?\x92\x1a\xc1c\xcb4R?\x03\xc6~?\xca\xc2f?^M\xb7O;\xbaI?\x8dNm\xdb\xbd\xfde?f\xf1\xa4}Z\xe2T?\xfax*\xd8-\x9fh?%\xea&\xad\xcf\x07Q?\x1a_I,\x08if?\xc1\xa5\xe7\x06\xd8\x81R?\x83G\x02\xaa\x0b\xbae?\x9d\xb1\x16<\xd8\xa4S?d\xfe\x97\x8c\xdf\xebf?\xbfd\x80\x97[RL?ng>k\xa7{g?\\\x84\xb5s\x92\x94Q?K\xe4\x06l\x9c\x87b?\x19\x91\xa4{\x08pK?\x15z\x16\xe7\x1c\xfaf?}\xb7\xcc+\xcfjN?+\x7fBf\xfc5h?\tw\xfcQ\xb3\x8bR?\xf4\xa6d1\x98\\h?\x0c\xd2\xe7\xfeE+R?h\x9a\xa8\x8c\x1cuf?\xfdj\xed\x01\xe3\xaeH?\x0e\x9a\xa7\x84q\x81e?p\xa8\x8c=\x83\x9fK?\xb0\xfe\x11~\x90\x02g?\xa9IS\xb1\xef\x92Q?\xee\xdf\xab\x0c\x99\xe1e?L\x9aq\xe0\xf6\x80P?\xeb\xbe\xef!\xd9\ng?\xc3$C+\x83\xacO?*\xd9wf\xfe\xa8h?\t\xed\x0fs\xcd\rK?:\xd7Ao;~i?\xc2&\x9d\x0e\x85KN?U\xf5\x97\x82\xda\x14d?\x1e\x94(b\xae\x98S?F\xbd3\x1c\xc7\xf6g?+\x91\x97w\xcd\x92M?w\x9f%\xc0\x97_i?\x10{\x1dHI\xd5G?RU\xd3\xbb\x99Mg?`\x1e\xf0\xc8q\nO?\x0e\xe2\x1c\xd8\x9e\x17f?'
p105
tp106
bsS'_std_dev'
p107
g60
(g61
(I0
tp108
g63
tp109
Rp110
(I1
(I48
I1
tp111
g69
I00
S'`\\\xbdC\xe8\xb0o?\xd4T\x9c\x05\xf3\xa7a?\x11\xba\x95\x92+[d?x\xedi\xf9d[\\?\n{\x8aW\xc1wg?f\xe7\x90\xb3\x8d=[?z\xb0\xb9G\xc6\xf3d?\xc8\xa7\x97\xbdx\x1ec?\x0f\xea\xdc\\\xed\x96P?\xa6w\xf6\xe6I\x82a?\xb9m\xd4\x96\xf2\x04\\?6\x10\xd9\x96+va?\xcb\x9b\xec9\xfd\x10h?B\x19\xf5%P\xc1S?\x0b\xb6\xc7\xe6\x19sY?\xf1\x135z\xfcbX?_\x94\x06nr\x17f?\xf3r\xe4\xffi&f?\xe0\xe1V\xd9 \x11d?<\xbef\x06p\x90X?aM$b\xa4\xebR?\x18\xe3\x8e\xafh\x1eb?\xf5\xcc(\x04\x0fJb?&\x1c\xad\xedK\x82Z?W\xdc2"\xcegV?\xfe\xf8`n\xf8We?\x15sSE\x1c\x94d?\xc0\x0e\xf9\xf7\xd0F\\?\xf24\xac\x8b\x01pX?\xbe\x15\\\xa1\xaf\x08W?\x13i\xb2\xcf\x05\xc2_?\x98\xc5,\xdb\x93\xc9a?\xe5\xc6D\xee\n\x1bf?_AG;\xbd0U?R\\\xff\xfb\x9f%Y?\xf78\x9cP\x0c\x0ff?(w@\xae\xa3\x1fG?\xdf}m\x1a\xab\xacl?\xd8\x954^\x85\x94k?j;\x00K\x01\x05_?C\xdc\xb7\xecSE[?\xf8C\xb1"jpg?\x12\x9d\x1d1\x07\x9de?U:\xcd\xd0\'\x82u?.N\x9an\x8d\x94V?]\xcd\xfa\xf1o\xeca?\x85\xc8g\xc7\x1f>^?,\xfc\xe2\x14\'wf?'
p112
tp113
bsS'_num_tot_filter_bins'
p114
I48
sS'_mean'
p115
g60
(g61
(I0
tp116
g63
tp117
Rp118
(I1
(I48
I1
tp119
g69
I00
S'\xa6"\x15\xc6\x16\x82\x8c?R~R\xed\xd3\xf1\x98?\xab\xad\xd8_vO\x8e?^c\x97\xa8\xde\x1a\x98?\xaa}:\x1e3P\x89?R\xf2\xea\x1c\x03\xb2\x97?\x04\x1cB\x95\x9a=\x90?\x96\x9a=\xd0\n\x0c\x99?\x92\xcb\x7fH\xbf}\x8d?\xd8*\xc1\xe2p\xe6\x97?\x03\xad\xc0\x90\xd5\xad\x8e?\x7f+\xd9\xb1\x11\x88\x97?\xb3\xab\x90\xf2\x93j\x8f?\xa2\x7f\x82\x8b\x155\x98?\xc0\xec\x9e<,\xd4\x8a?\x92\x9b\xe1\x06|~\x98?\xcdu\x1ai\xa9\xbc\x8d?\xc6.Q\xbd5\xb0\x95?\xe0\xb4\xe0E_A\x8a?{\xb8\xe4\xb8S:\x98?`\x07\xce\x19Q\xda\x8b?\x0fbg\n\x9d\xd7\x98?P;\xfc5Y\xa3\x8e?R~R\xed\xd3\xf1\x98?\xca\x02&p\xebn\x8e?\xd8*\xc1\xe2p\xe6\x97?\xe9\x9a\xc97\xdb\xdc\x88?=\x0f\xee\xce\xdam\x97?\x1d_{fI\x80\x8a?V\xf1F\xe6\x91?\x98?\xeb\xcagy\x1e\xdc\x8d?\xe8\x0ebg\n\x9d\x97?\x96>tA}\xcb\x8c?0*\xa9\x13\xd0D\x98?\x8a\xcd\xc7\xb5\xa1b\x8c?\x95\x9a=\xd0\n\x0c\x99?\x96&\xa5\xa0\xdbK\x8a?\xee\x99%\x01jj\x99?\x9e$]3\xf9f\x8b?\xfde\xf7\xe4a\xa1\x96?\x86r\xa2]\x85\x94\x8f?=\x9bU\x9f\xab\xad\x98?\xcb]K\xc8\x07=\x8b?\x8d(\xed\r\xbe0\x99?\xae\xf0.\x17\xf1\x9d\x88?sF\x94\xf6\x06_\x98?\xe6?\xa4\xdf\xbe\x0e\x8c?R\xf2\xea\x1c\x03\xb2\x97?'
p120
tp121
bsS'_num_realizations'
p122
I5
sg22
(lp123
sS'_sum'
p124
g60
(g61
(I0
tp125
g63
tp126
Rp127
(I1
(I48
I1
tp128
g69
I00
S'\xa85\xcd;N\xd1\xb1?\xe6\x1d\xa7\xe8H.\xbf?\x8bl\xe7\xfb\xa9\xf1\xb2?6<\xbdR\x96!\xbe?\x15\x1d\xc9\xe5?\xa4\xaf?\xe7\xae%\xe4\x83\x9e\xbd?\x05\xa3\x92:\x01M\xb4?;\x01M\x84\rO\xbf?;\xdfO\x8d\x97n\xb2?\x8euq\x1b\r\xe0\xbd?"lxz\xa5,\xb3?_vO\x1e\x16j\xbd?Pk\x9aw\x9c\xa2\xb3?\x8a\x1fc\xeeZB\xbe?\xf8S\xe3\xa5\x9b\xc4\xb0?v\x02\x9a\x08\x1b\x9e\xbe?\xa0\x89\xb0\xe1\xe9\x95\xb2?xz\xa5,C\x1c\xbb?\x0cq\xac\x8b\xdbh\xb0?\x9a\xe6\x1d\xa7\xe8H\xbe?\x9c\xc4 \xb0rh\xb1?\x93:\x01M\x84\r\xbf?\x12\xa5\xbd\xc1\x17&\xb3?\xe7\x1d\xa7\xe8H.\xbf?\xbe\xc1\x17&S\x05\xb3?\x8euq\x1b\r\xe0\xbd?\xa3\x01\xbc\x05\x12\x14\xaf?\x0c\x93\xa9\x82QI\xbd?r\x1b\r\xe0-\x90\xb0?\xac\xad\xd8_vO\xbe?\xd3\xde\xe0\x0b\x93\xa9\xb2?\xa2\x92:\x01M\x84\xbd?\x1e\xa7\xe8H.\xff\xb1?\xbct\x93\x18\x04V\xbe?v\xe0\x9c\x11\xa5\xbd\xb1?:\x01M\x84\rO\xbf?\x1e8gDio\xb0?i\x00o\x81\x04\xc5\xbf?\xe36\x1a\xc0[ \xb1?|?5^\xbaI\xbc?\x94\x87\x85Z\xd3\xbc\xb3?\x0c\x02+\x87\x16\xd9\xbe?\x9f\x1a/\xdd$\x06\xb1?\xb0rh\x91\xed|\xbf?\xda\xac\xfa\\m\xc5\xae?\x10X9\xb4\xc8v\xbe?\xf0\xa7\xc6K7\x89\xb1?\xe6\xae%\xe4\x83\x9e\xbd?'
p129
tp130
bsS'_estimator'
p131
S'analog'
p132
sS'_scores'
p133
(lp134
S'nu-scatter'
p135
asg26
I10048
sbsS'flux'
p136
g2
(g77
g4
Ntp137
Rp138
(dp139
g81
I1
sg82
S'2 groups'
p140
sg84
(lp141
g2
(g86
g4
Ntp142
Rp143
(dp144
g90
Nsg8
g91
sg28
I7
sg92
I1
sg93
(lp145
I10014
asbag2
(g86
g4
Ntp146
Rp147
(dp148
g90
Nsg8
g98
sg28
I0
sg92
I24
sg93
(lp149
F0.0
aF6.25e-07
aF10.0
asbasg100
g60
(g61
(I0
tp150
g63
tp151
Rp152
(I1
(I48
I1
tp153
g69
I00
S'\x13&/\x07\x96\xc5??a,\x8a/\t\xda{?\x00\x8b\xba\x92jBB?{\x7f\x9c\x8a\x8c\xeez?\xc5X\x92|:D:?\x03D\x823\xa6]y?1(\xebC&\x1eD?+\x97\x16\x80^\xcfy?\xccc\xc7\xe0#\x06A?\x9e0\xc7\xcb\xe0\x19x?\x81\x9cM$yiB?\xa9\xec\x07\n\xbeOv?\x1d\x96p\'l\xbeB?&\t\x12\xd1w\xd8z?\x12\x98\xda:\x99\xe5:?\xde\x19\xa9\xbd\xd4aw?\xca\xcc\x98\x8cR\xa9A?\xf5\xd8\x9e\xa8\x114u?\x1b[\xafk\xb0\x02<?\xa3\n\xa7\xe9e\xefw?x\xbd\xa8\xd3OZ=?Nh<\xe5\x04\x01|?\xc7I<S\xb3\x81B?\xdau\x00vX{x?\xa2\x89C\x1dd\xcfA?\xd8\x1e09\xd6\x97y?\xee5zU\xb6\n8?\xa3\xbd\xf2\r\x8d\x13w?V\xf0\xea\x97gr:?\n\x00\x833E\xa7z?\xc8qa?\x92\xe1@?\x91WN\x1e\xe0\xedv?\x01\x10A^\xfa\xef??\xc2R7\xf1!/w?d\xab\xb0\x16L.>?\x03\x83nr\x1e\xb7z?\xfa\x7f2\xedm\x0b:?\xd7\xff\xe4\xf9\xcb\xb1{?\xbcg)\xbdrq>?\x07#\xa3w\x00^t?Q\xe22\x06\t\xccB?W\xf0\xc9\xb1\xb1"y? \xf8\xce\xc4\xa4Q=?\xc2\t\xf5\x05\xd2\xeby?:r\xdb\xd4\xe487?\xc0\x08y\xa2!\xb6v?^\xcd\xb0\xd2\xd4\xa8>?\xed%.\xd0D\xfcu?'
p154
tp155
bsg107
g60
(g61
(I0
tp156
g63
tp157
Rp158
(I1
(I48
I1
tp159
g69
I00
S'\xf0U\x93\x02\x9fIf?\xc5}!\xfc\xc0\xa7t?\x97~d\xc1m\x02]?\x01E\xab\xc3\x00\xddu?\xd3s\xa3{\r\xb4`?\xb2y\xdd\xd6E\x8br?\xa9\xc2S\xab\x1a\\`?\x1a\xe9\x87\xd78\x1fr?\xd2\xb2\xcc6^6L?\x1ad\xfd\xad\xfb\x98o?\xfe\x17[~\x84\xcfI?\xf7\xbdq\x9a\x8a\x0ci?\x14\xcd{\xba\xd8\xb3^?L\x83\x88a\xf2\xd2f?T\x9e2e5\x0fR?KT\x8fzUeZ?\xcd\xd7\xf6Mq`_?\x89\xc1\xb8\xcc\xa9L`?\xd2.k\xd78\xbd\\?l\xd8\x90\xb2\xe1Ui?D\x8e{@Z\x86C?\xbc\xda\'o\x14\xf7q?7"\xd7\xba\x91\xe4W?\t\x984\x90&\xb3d?\xe9\x1e\x0e\x1f\xef\x10M?\xe9\x1d\x0f\xc3\xdd\x8fl?\x0b\x02\xc2\xf7\xc29\\?\xdb\xe6\x1e\xd0\xd4\xf7_?q\xa8,\xea\xab4K?\x04\x16Ly<\x7fq?\x07\x85\xe0\x1e$EW?@2\x07^,fj?%\xc0iB\xc8M[?\xb7U\xf4X\x7f\xc3c?\xf0\xdd\x06\xfd\x1c\x8fR?/8\t\xea\xa9\xd7g?\xfbMUx\x9e\x9eB?\xaa\xf4#\xb7\xdd4t?\xc1\x84-\x14\x80\x81a?\\|\x85\xf0\x9cEe?5\x7f\xc4\x17k\xdbQ?K\x9dK\xd9\x03\xdet?\xf8\x01E\xa1\x80\xb1^?az`\x92\x1a\x00\x80?\x8c,\xac+ACP?\x98B\xf5v\xfe\xaft?\x85\x0bTM\xb1qT?J\x1eE\xeblTo?'
p160
tp161
bsg114
I48
sg115
g60
(g61
(I0
tp162
g63
tp163
Rp164
(I1
(I48
I1
tp165
g69
I00
S"Of\xbf\x0fI\xc3\x83?rp\x9a\x17\x18\xca\xa2?\xaf\x03\x12IGv\x85?\x84\x16r\x18Qv\xa2?'\xb85Dp\x16\x82?U\xe5\xd3\x87\x00\xf1\xa1?\xce\xe6\xca\xca{\x80\x86?\xbd\xcaM\x0eG\x1a\xa2?\x0cs\x14Ge\xd6\x84?\xd1\xd8.8\x9c\x81\xa1?\xc0\xe1\xea\x14\xee\xad\x85?\xb6\xbf\x169\x95\xdc\xa0?R\xf6\xf97\xeb\xba\x85?\xb3\x02\xc1:2\x82\xa2?\xe6\x83\x10T\xbf{\x82?\xce\xce\xa2\xcd2J\xa1?\xb8\xa3B\xae*\x13\x85?X\x07\xae\xdb=u\xa0?i\xc62A\xe1\xc1\x82?\xf3_\xa9/Zw\xa1?Lvv\x87\n]\x83?\x8a\x04n\xca\x12\xdd\xa2?\xaa\x11S\x8b\xe0\xa8\x85?[\xcb\x96wy\xad\xa1?;\xa2k(\x06P\x85?\xbb\xc9\x03H\xc3\r\xa2?\xc6\xe5\x8a\xc1x[\x81?\x81\xc5\xe1\t\xe6+\xa1?\x1a\xc4#\xb5\xac[\x82?z#\xba\x7f>g\xa2?\xaf'\x0c\xe2\xb9\xae\x84?\xae\x92\x1fL#\x17\xa1?\xb7\x98+R\x99\x11\x84?\xba\xf9\xc7\x1f!4\xa1?\xd8\x03`\xebn\x95\x83?(U\xc3\x8c\xfbu\xa2?-\x85\n\xcf<=\x82?&\xccnQb\xbd\xa2?m\xc2n(\x9c|\x83?O<\xb6\xfc&\x1e\xa0?B\x8dx\x91\x99\xe0\x85?p\xe7i\x87\x99\xd6\xa1?j\x17<.\x8e,\x83?L\xc9\xf5\xfd[\xfc\xa1?J=\xb2B\xb1-\x81?\x86'\xd6\xed\xb3\xf2\xa0?\x9bf\xb8\xb9s\xb9\x83?\x03\xbc\xfeAJ\xb7\xa0?"
p166
tp167
bsg122
I5
sg22
(lp168
sg124
g60
(g61
(I0
tp169
g63
tp170
Rp171
(I1
(I48
I1
tp172
g69
I00
S'\xe3?\xafS\x1b\xb4\xa8?\x8f\x0c\x81\x1d\x9e|\xc7?\x9b\x84V\x1b\xd9\xd3\xaa?%\x9c\x8e^\xe5\x13\xc7?1&CU\x0c\x9c\xa6?\xaa\xde\xc8\xa9@m\xc6?\x81\xa0}\xbd\x9a \xac?l=\xe1\xd1\xd8\xa0\xc6?\xcf\x8f\xd9\x98\xfe\x0b\xaa?\x05\x8f:F\x03\xe2\xc5?0\x9a%\x9ai\x19\xab?\xa4o\\\x87\xba\x13\xc5?\xe6s\xf8\x05\xa6)\xab?`Cq\xc9\xbe"\xc7?\xdf\xa4\x14)\xaf\x1a\xa7?\x82\x82\x0b\x81\xbf\x9c\xc5?\xa6L\xd3Y\xf5W\xaa?.\x89\x99R\x8d\x92\xc4?\x03x\x7f\x91Yr\xa7?\xf0\xb7\x93\xbb0\xd5\xc5?\xdf\x13T)M4\xa8?\xac\x85\t}W\x94\xc7?\x14\xd6\'\xae\x18\x13\xab?2~|\xd5\xd7\x18\xc6?\xca\x8a\x86\xb2\x07\xa4\xaa?*\xbc\x04\x1a4\x91\xc6?7\x9f\xed\xf1V\xb2\xa5?\xe16Z\x8c\xdfv\xc5?!\xb5l\xe2\x97\xf2\xa6?X\xac\xa8\x1f\x0e\x01\xc7?\x9b1\x8fZh\xda\xa9?Zw\'\x1f\xec\\\xc5?\xe5~\xb6\xa6\xff\x15\xa9?(\xf8\xb9g)\x81\xc5?\xce\x048\xa6\xcaz\xa8?r*\xf4oz\x13\xc7?x&\xcd\x02\x8c\xcc\xa6?0\x7f\xca\xe5\xbal\xc7?\x08s\x8a2\xc3[\xa8?c\xcb\xe3\xbb\xb0%\xc4?\x93\xb0\xd6\xf5\xbfX\xab?LaD\xe9?L\xc6?D\x1d\xcb\xb9\xb1\xf7\xa7?\x9f;s\xfdr{\xc6?\x9c\xcc^\x93\x1dy\xa5?g\xb1K\xe9`/\xc5?B\x80&\xa8\xd0\xa7\xa8?\x04k~\xd2\x1c\xe5\xc4?'
p173
tp174
bsg131
g132
sg133
(lp175
g136
asg26
I10040
sbssS'subdomain offsets'
p176
(dp177
I389
g48
(g52
S'\t\x00\x00\x00\x00\x00\x00\x00'
p178
tp179
Rp180
sI776
g48
(g52
S'\x11\x00\x00\x00\x00\x00\x00\x00'
p181
tp182
Rp183
sI787
g48
(g52
S'\x12\x00\x00\x00\x00\x00\x00\x00'
p184
tp185
Rp186
sI917
g48
(g52
S'\x14\x00\x00\x00\x00\x00\x00\x00'
p187
tp188
Rp189
sI158
g48
(g52
S'\x00\x00\x00\x00\x00\x00\x00\x00'
p190
tp191
Rp192
sI544
g48
(g52
S'\n\x00\x00\x00\x00\x00\x00\x00'
p193
tp194
Rp195
sI169
g48
(g52
S'\x01\x00\x00\x00\x00\x00\x00\x00'
p196
tp197
Rp198
sI555
g48
(g52
S'\x0b\x00\x00\x00\x00\x00\x00\x00'
p199
tp200
Rp201
sI180
g48
(g52
S'\x02\x00\x00\x00\x00\x00\x00\x00'
p202
tp203
Rp204
sI952
g48
(g52
S'\x15\x00\x00\x00\x00\x00\x00\x00'
p205
tp206
Rp207
sI577
g48
(g52
S'\x0c\x00\x00\x00\x00\x00\x00\x00'
p208
tp209
Rp210
sI963
g48
(g52
S'\x16\x00\x00\x00\x00\x00\x00\x00'
p211
tp212
Rp213
sI588
g48
(g52
S'\r\x00\x00\x00\x00\x00\x00\x00'
p214
tp215
Rp216
sI974
g48
(g52
S'\x17\x00\x00\x00\x00\x00\x00\x00'
p217
tp218
Rp219
sI215
g48
(g52
S'\x03\x00\x00\x00\x00\x00\x00\x00'
p220
tp221
Rp222
sI345
g48
(g52
S'\x05\x00\x00\x00\x00\x00\x00\x00'
p223
tp224
Rp225
sI356
g48
(g52
S'\x06\x00\x00\x00\x00\x00\x00\x00'
p226
tp227
Rp228
sI743
g48
(g52
S'\x0e\x00\x00\x00\x00\x00\x00\x00'
p229
tp230
Rp231
sI878
g48
(g52
S'\x13\x00\x00\x00\x00\x00\x00\x00'
p232
tp233
Rp234
sI367
g48
(g52
S'\x07\x00\x00\x00\x00\x00\x00\x00'
p235
tp236
Rp237
sI754
g48
(g52
S'\x0f\x00\x00\x00\x00\x00\x00\x00'
p238
tp239
Rp240
sI378
g48
(g52
S'\x08\x00\x00\x00\x00\x00\x00\x00'
p241
tp242
Rp243
sI765
g48
(g52
S'\x10\x00\x00\x00\x00\x00\x00\x00'
p244
tp245
Rp246
sI254
g48
(g52
S'\x04\x00\x00\x00\x00\x00\x00\x00'
p247
tp248
Rp249
ssS'offset'
p250
I7
sS'domain type'
p251
g91
sS'xs'
p252
g60
(g61
(I0
tp253
g63
tp254
Rp255
(I1
(I24
I2
tp256
g49
(S'O8'
p257
I0
I1
tp258
Rp259
(I3
S'|'
p260
NNNI-1
I-1
I63
tp261
bI00
(lp262
g2
(cuncertainties
AffineScalarFunc
p263
g4
Ntp264
Rp265
(dp266
S'_nominal_value'
p267
F0.663794480290426
sS'derivatives'
p268
(dp269
g2
(cuncertainties
Variable
p270
g4
Ntp271
Rp272
(dp273
g267
F0.02436
sS'_std_dev'
p274
g2
(cuncertainties
CallableStdDev
p275
c__builtin__
float
p276
F0.0021552797815141776
tp277
Rp278
sS'tag'
p279
Nsg268
(dp280
g272
F1.0
ssbF27.24936290190583
sg2
(g270
g4
Ntp281
Rp282
(dp283
g267
F0.03669810569883304
sg274
g2
(g275
g276
F0.005042795035563545
tp284
Rp285
sg279
Nsg268
(dp286
g282
F1.0
ssbF-18.087976685715795
ssbag2
(g263
g4
Ntp287
Rp288
(dp289
g267
F1.442513791570424
sg268
(dp290
g2
(g270
g4
Ntp291
Rp292
(dp293
g267
F0.013919999999999998
sg274
g2
(g275
g276
F0.0038685356538894905
tp294
Rp295
sg279
Nsg268
(dp296
g292
F1.0
ssbF103.62886433695577
sg2
(g270
g4
Ntp297
Rp298
(dp299
g267
F0.00964982108409909
sg274
g2
(g275
g276
F0.0027206521668670033
tp300
Rp301
sg279
Nsg268
(dp302
g298
F1.0
ssbF-149.48606601083918
ssbag2
(g263
g4
Ntp303
Rp304
(dp305
g267
F0.6528201608361855
sg268
(dp306
g2
(g270
g4
Ntp307
Rp308
(dp309
g267
F0.02354
sg274
g2
(g275
g276
F0.0017307745053177486
tp310
Rp311
sg279
Nsg268
(dp312
g308
F1.0
ssbF27.732377265768292
sg2
(g270
g4
Ntp313
Rp314
(dp315
g267
F0.03605893538864982
sg274
g2
(g275
g276
F0.005337717996284797
tp316
Rp317
sg279
Nsg268
(dp318
g314
F1.0
ssbF-18.10425498700863
ssbag2
(g263
g4
Ntp319
Rp320
(dp321
g267
F1.4122805129564358
sg268
(dp322
g2
(g270
g4
Ntp323
Rp324
(dp325
g267
F0.014799999999999999
sg274
g2
(g275
g276
F0.002484879591683205
tp326
Rp327
sg279
Nsg268
(dp328
g324
F1.0
ssbF95.42435898354296
sg2
(g270
g4
Ntp329
Rp330
(dp331
g267
F0.010479504506521879
sg274
g2
(g275
g276
F0.0017705985861268586
tp332
Rp333
sg279
Nsg268
(dp334
g330
F1.0
ssbF-134.76596265381713
ssbag2
(g263
g4
Ntp335
Rp336
(dp337
g267
F0.6603537364191092
sg268
(dp338
g2
(g270
g4
Ntp339
Rp340
(dp341
g267
F0.02314
sg274
g2
(g275
g276
F0.0016626247218156308
tp342
Rp343
sg279
Nsg268
(dp344
g340
F1.0
ssbF28.53732655225191
sg2
(g270
g4
Ntp345
Rp346
(dp347
g267
F0.03504182489445876
sg274
g2
(g275
g276
F0.004527352151710339
tp348
Rp349
sg279
Nsg268
(dp350
g346
F1.0
ssbF-18.844730216191802
ssbag2
(g263
g4
Ntp351
Rp352
(dp353
g267
F1.3994786072424592
sg268
(dp354
g2
(g270
g4
Ntp355
Rp356
(dp357
g267
F0.01236
sg274
g2
(g275
g276
F0.002864720936784142
tp358
Rp359
sg279
Nsg268
(dp360
g356
F1.0
ssbF113.22642453417956
sg2
(g270
g4
Ntp361
Rp362
(dp363
g267
F0.008831860620116384
sg274
g2
(g275
g276
F0.0020389808024518868
tp364
Rp365
sg279
Nsg268
(dp366
g362
F1.0
ssbF-158.45795891013702
ssbag2
(g263
g4
Ntp367
Rp368
(dp369
g267
F0.6918060209172285
sg268
(dp370
g2
(g270
g4
Ntp371
Rp372
(dp373
g267
F0.024460000000000003
sg274
g2
(g275
g276
F0.002333865949130296
tp374
Rp375
sg279
Nsg268
(dp376
g372
F1.0
ssbF28.283157028504846
sg2
(g270
g4
Ntp377
Rp378
(dp379
g267
F0.035356731887892213
sg274
g2
(g275
g276
F0.004424306906452702
tp380
Rp381
sg279
Nsg268
(dp382
g378
F1.0
ssbF-19.56645832286708
ssbag2
(g263
g4
Ntp383
Rp384
(dp385
g267
F1.4434912605665633
sg268
(dp386
g2
(g270
g4
Ntp387
Rp388
(dp389
g267
F0.01586
sg274
g2
(g275
g276
F0.002557647005053507
tp390
Rp391
sg279
Nsg268
(dp392
g388
F1.0
ssbF91.01458137241887
sg2
(g270
g4
Ntp393
Rp394
(dp395
g267
F0.010987250448454413
sg274
g2
(g275
g276
F0.001997043693897933
tp396
Rp397
sg279
Nsg268
(dp398
g394
F1.0
ssbF-131.378752795211
ssbag2
(g263
g4
Ntp399
Rp400
(dp401
g267
F0.6826163636369097
sg268
(dp402
g2
(g270
g4
Ntp403
Rp404
(dp405
g267
F0.02334
sg274
g2
(g275
g276
F0.0021373217966375755
tp406
Rp407
sg279
Nsg268
(dp408
g404
F1.0
ssbF29.24663083277248
sg2
(g270
g4
Ntp409
Rp410
(dp411
g267
F0.034191972597385274
sg274
g2
(g275
g276
F0.003857127725421805
tp412
Rp413
sg279
Nsg268
(dp414
g410
F1.0
ssbF-19.96422878769828
ssbag2
(g263
g4
Ntp415
Rp416
(dp417
g267
F1.4152957042739027
sg268
(dp418
g2
(g270
g4
Ntp419
Rp420
(dp421
g267
F0.0144
sg274
g2
(g275
g276
F0.0010125463481488494
tp422
Rp423
sg279
Nsg268
(dp424
g420
F1.0
ssbF98.28442390790991
sg2
(g270
g4
Ntp425
Rp426
(dp427
g267
F0.010174552184758955
sg274
g2
(g275
g276
F0.0008609733609766473
tp428
Rp429
sg279
Nsg268
(dp430
g426
F1.0
ssbF-139.10152295390017
ssbag2
(g263
g4
Ntp431
Rp432
(dp433
g267
F0.6977821643030153
sg268
(dp434
g2
(g270
g4
Ntp435
Rp436
(dp437
g267
F0.022979999999999997
sg274
g2
(g275
g276
F0.0021315432884723385
tp438
Rp439
sg279
Nsg268
(dp440
g436
F1.0
ssbF30.36475910805115
sg2
(g270
g4
Ntp441
Rp442
(dp443
g267
F0.0329329139889291
sg274
g2
(g275
g276
F0.0030577380271592475
tp444
Rp445
sg279
Nsg268
(dp446
g442
F1.0
ssbF-21.187987328955632
ssbag2
(g263
g4
Ntp447
Rp448
(dp449
g267
F1.4151231151659351
sg268
(dp450
g2
(g270
g4
Ntp451
Rp452
(dp453
g267
F0.014979999999999999
sg274
g2
(g275
g276
F0.0017101639780950763
tp454
Rp455
sg279
Nsg268
(dp456
g452
F1.0
ssbF94.46749767462852
sg2
(g270
g4
Ntp457
Rp458
(dp459
g267
F0.010585651410438213
sg274
g2
(g275
g276
F0.000787677473191861
tp460
Rp461
sg279
Nsg268
(dp462
g458
F1.0
ssbF-133.68313959125103
ssbag2
(g263
g4
Ntp463
Rp464
(dp465
g267
F0.653949719115734
sg268
(dp466
g2
(g270
g4
Ntp467
Rp468
(dp469
g267
F0.02364
sg274
g2
(g275
g276
F0.0012057573984108482
tp470
Rp471
sg279
Nsg268
(dp472
g468
F1.0
ssbF27.66284767833054
sg2
(g270
g4
Ntp473
Rp474
(dp475
g267
F0.036149568245041584
sg274
g2
(g275
g276
F0.002786134147996588
tp476
Rp477
sg279
Nsg268
(dp478
g474
F1.0
ssbF-18.09011146918559
ssbag2
(g263
g4
Ntp479
Rp480
(dp481
g267
F1.4457478485786912
sg268
(dp482
g2
(g270
g4
Ntp483
Rp484
(dp485
g267
F0.015339999999999998
sg274
g2
(g275
g276
F0.0029377885652084094
tp486
Rp487
sg279
Nsg268
(dp488
g484
F1.0
ssbF94.24692624372173
sg2
(g270
g4
Ntp489
Rp490
(dp491
g267
F0.010610425611271488
sg274
g2
(g275
g276
F0.001873933457258674
tp492
Rp493
sg279
Nsg268
(dp494
g490
F1.0
ssbF-136.25729085201527
ssbag2
(g263
g4
Ntp495
Rp496
(dp497
g267
F0.7083374763322609
sg268
(dp498
g2
(g270
g4
Ntp499
Rp500
(dp501
g267
F0.023920000000000004
sg274
g2
(g275
g276
F0.001488443908628453
tp502
Rp503
sg279
Nsg268
(dp504
g500
F1.0
ssbF29.612770749676454
sg2
(g270
g4
Ntp505
Rp506
(dp507
g267
F0.03376921425060929
sg274
g2
(g275
g276
F0.001611073947278346
tp508
Rp509
sg279
Nsg268
(dp510
g506
F1.0
ssbF-20.975835300031612
ssbag2
(g263
g4
Ntp511
Rp512
(dp513
g267
F1.451508766962102
sg268
(dp514
g2
(g270
g4
Ntp515
Rp516
(dp517
g267
F0.0131
sg274
g2
(g275
g276
F0.0015533211654842362
tp518
Rp519
sg279
Nsg268
(dp520
g516
F1.0
ssbF110.80219595130549
sg2
(g270
g4
Ntp521
Rp522
(dp523
g267
F0.009025091889329272
sg274
g2
(g275
g276
F0.0011022588194381693
tp524
Rp525
sg279
Nsg268
(dp526
g522
F1.0
ssbF-160.83035882197268
ssbag2
(g263
g4
Ntp527
Rp528
(dp529
g267
F0.6589000113499615
sg268
(dp530
g2
(g270
g4
Ntp531
Rp532
(dp533
g267
F0.021179999999999997
sg274
g2
(g275
g276
F0.0027038641266144913
tp534
Rp535
sg279
Nsg268
(dp536
g532
F1.0
ssbF31.10953783522009
sg2
(g270
g4
Ntp537
Rp538
(dp539
g267
F0.032144482675916464
sg274
g2
(g275
g276
F0.001989680900600092
tp540
Rp541
sg279
Nsg268
(dp542
g538
F1.0
ssbF-20.498074832718572
ssbag2
(g263
g4
Ntp543
Rp544
(dp545
g267
F1.4110151090718492
sg268
(dp546
g2
(g270
g4
Ntp547
Rp548
(dp549
g267
F0.01452
sg274
g2
(g275
g276
F0.0026967272717280245
tp550
Rp551
sg279
Nsg268
(dp552
g548
F1.0
ssbF97.17734910963149
sg2
(g270
g4
Ntp553
Rp554
(dp555
g267
F0.010290463870051045
sg274
g2
(g275
g276
F0.0019150835504268993
tp556
Rp557
sg279
Nsg268
(dp558
g554
F1.0
ssbF-137.11870785323987
ssbag2
(g263
g4
Ntp559
Rp560
(dp561
g267
F0.6935627790060394
sg268
(dp562
g2
(g270
g4
Ntp563
Rp564
(dp565
g267
F0.023659999999999997
sg274
g2
(g275
g276
F0.001499280356806922
tp566
Rp567
sg279
Nsg268
(dp568
g564
F1.0
ssbF29.313726923332183
sg2
(g270
g4
Ntp569
Rp570
(dp571
g267
F0.03411371070677651
sg274
g2
(g275
g276
F0.0030927093653430517
tp572
Rp573
sg279
Nsg268
(dp574
g570
F1.0
ssbF-20.330909907970426
ssbag2
(g263
g4
Ntp575
Rp576
(dp577
g267
F1.3997376649223323
sg268
(dp578
g2
(g270
g4
Ntp579
Rp580
(dp581
g267
F0.012819999999999998
sg274
g2
(g275
g276
F0.002449573667686375
tp582
Rp583
sg279
Nsg268
(dp584
g580
F1.0
ssbF109.18390522015075
sg2
(g270
g4
Ntp585
Rp586
(dp587
g267
F0.009158859064288554
sg274
g2
(g275
g276
F0.0017540984242029778
tp588
Rp589
sg279
Nsg268
(dp590
g586
F1.0
ssbF-152.82882453995504
ssbag2
(g263
g4
Ntp591
Rp592
(dp593
g267
F0.6584713993210964
sg268
(dp594
g2
(g270
g4
Ntp595
Rp596
(dp597
g267
F0.02426
sg274
g2
(g275
g276
F0.0022117657321952915
tp598
Rp599
sg279
Nsg268
(dp600
g596
F1.0
ssbF27.142267078363417
sg2
(g270
g4
Ntp601
Rp602
(dp603
g267
F0.03684290619913451
sg274
g2
(g275
g276
F0.0043860243044863655
tp604
Rp605
sg279
Nsg268
(dp606
g602
F1.0
ssbF-17.872406583836888
ssbag2
(g263
g4
Ntp607
Rp608
(dp609
g267
F1.4384219565115712
sg268
(dp610
g2
(g270
g4
Ntp611
Rp612
(dp613
g267
F0.013600000000000001
sg274
g2
(g275
g276
F0.0011548142725289134
tp614
Rp615
sg279
Nsg268
(dp616
g612
F1.0
ssbF105.76632033173318
sg2
(g270
g4
Ntp617
Rp618
(dp619
g267
F0.009454805621142225
sg274
g2
(g275
g276
F0.0005958500559839004
tp620
Rp621
sg279
Nsg268
(dp622
g618
F1.0
ssbF-152.1365974246012
ssbag2
(g263
g4
Ntp623
Rp624
(dp625
g267
F0.7055423543722005
sg268
(dp626
g2
(g270
g4
Ntp627
Rp628
(dp629
g267
F0.02436
sg274
g2
(g275
g276
F0.001617979191637317
tp630
Rp631
sg279
Nsg268
(dp632
g628
F1.0
ssbF28.963150836297228
sg2
(g270
g4
Ntp633
Rp634
(dp635
g267
F0.03452663025691179
sg274
g2
(g275
g276
F0.0025268319310667348
tp636
Rp637
sg279
Nsg268
(dp638
g634
F1.0
ssbF-20.434729631078312
ssbag2
(g263
g4
Ntp639
Rp640
(dp641
g267
F1.414521602892044
sg268
(dp642
g2
(g270
g4
Ntp643
Rp644
(dp645
g267
F0.014960000000000001
sg274
g2
(g275
g276
F0.0022325795446477233
tp646
Rp647
sg279
Nsg268
(dp648
g644
F1.0
ssbF94.55358308101897
sg2
(g270
g4
Ntp649
Rp650
(dp651
g267
F0.010576013805242496
sg274
g2
(g275
g276
F0.0014583037512797667
tp652
Rp653
sg279
Nsg268
(dp654
g650
F1.0
ssbF-133.748085898949
ssbag2
(g263
g4
Ntp655
Rp656
(dp657
g267
F0.6619163727624842
sg268
(dp658
g2
(g270
g4
Ntp659
Rp660
(dp661
g267
F0.02334
sg274
g2
(g275
g276
F0.0026054241343721465
tp662
Rp663
sg279
Nsg268
(dp664
g660
F1.0
ssbF28.359741763602575
sg2
(g270
g4
Ntp665
Rp666
(dp667
g267
F0.03526125196539761
sg274
g2
(g275
g276
F0.003486569527442408
tp668
Rp669
sg279
Nsg268
(dp670
g666
F1.0
ssbF-18.771777400644552
ssbag2
(g263
g4
Ntp671
Rp672
(dp673
g267
F1.427948191303684
sg268
(dp674
g2
(g270
g4
Ntp675
Rp676
(dp677
g267
F0.014860000000000002
sg274
g2
(g275
g276
F0.0013675225280118852
tp678
Rp679
sg279
Nsg268
(dp680
g676
F1.0
ssbF96.09341798813485
sg2
(g270
g4
Ntp681
Rp682
(dp683
g267
F0.010406540020498336
sg274
g2
(g275
g276
F0.0008870284637944845
tp684
Rp685
sg279
Nsg268
(dp686
g682
F1.0
ssbF-137.21642241234605
ssbag2
(g263
g4
Ntp687
Rp688
(dp689
g267
F0.6822103148583368
sg268
(dp690
g2
(g270
g4
Ntp691
Rp692
(dp693
g267
F0.02288
sg274
g2
(g275
g276
F0.0017258682927527164
tp694
Rp695
sg279
Nsg268
(dp696
g692
F1.0
ssbF29.816884390661574
sg2
(g270
g4
Ntp697
Rp698
(dp699
g267
F0.03353804464939981
sg274
g2
(g275
g276
F0.001951177430312637
tp700
Rp701
sg279
Nsg268
(dp702
g698
F1.0
ssbF-20.34138608824786
ssbag2
(g263
g4
Ntp703
Rp704
(dp705
g267
F1.4324061781197264
sg268
(dp706
g2
(g270
g4
Ntp707
Rp708
(dp709
g267
F0.01214
sg274
g2
(g275
g276
F0.002512030807891095
tp710
Rp711
sg279
Nsg268
(dp712
g708
F1.0
ssbF117.99062422732507
sg2
(g270
g4
Ntp713
Rp714
(dp715
g267
F0.00847524967808767
sg274
g2
(g275
g276
F0.001722755811926049
tp716
Rp717
sg279
Nsg268
(dp718
g714
F1.0
ssbF-169.01049910342348
ssbag2
(g263
g4
Ntp719
Rp720
(dp721
g267
F0.6588036769267384
sg268
(dp722
g2
(g270
g4
Ntp723
Rp724
(dp725
g267
F0.02368
sg274
g2
(g275
g276
F0.0014058795108565637
tp726
Rp727
sg279
Nsg268
(dp728
g724
F1.0
ssbF27.82110122156834
sg2
(g270
g4
Ntp729
Rp730
(dp731
g267
F0.035943940250098685
sg274
g2
(g275
g276
F0.004271732545708232
tp732
Rp733
sg279
Nsg268
(dp734
g730
F1.0
ssbF-18.328643780920196
ssbag2
(g263
g4
Ntp735
Rp736
(dp737
g267
F1.4435651914582452
sg268
(dp738
g2
(g270
g4
Ntp739
Rp740
(dp741
g267
F0.012940000000000002
sg274
g2
(g275
g276
F0.0014915480703082099
tp742
Rp743
sg279
Nsg268
(dp744
g740
F1.0
ssbF111.55836100913795
sg2
(g270
g4
Ntp745
Rp746
(dp747
g267
F0.008963917997308047
sg274
g2
(g275
g276
F0.0008302535464726047
tp748
Rp749
sg279
Nsg268
(dp750
g746
F1.0
ssbF-161.04176676892428
ssbag2
(g263
g4
Ntp751
Rp752
(dp753
g267
F0.6908400152620656
sg268
(dp754
g2
(g270
g4
Ntp755
Rp756
(dp757
g267
F0.023059999999999997
sg274
g2
(g275
g276
F0.002171314984842975
tp758
Rp759
sg279
Nsg268
(dp760
g756
F1.0
ssbF29.95837013278689
sg2
(g270
g4
Ntp761
Rp762
(dp763
g267
F0.0333796530174245
sg274
g2
(g275
g276
F0.0032225481556678315
tp764
Rp765
sg279
Nsg268
(dp766
g762
F1.0
ssbF-20.696440879761106
ssbag2
(g263
g4
Ntp767
Rp768
(dp769
g267
F1.4437232234007502
sg268
(dp770
g2
(g270
g4
Ntp771
Rp772
(dp773
g267
F0.014580000000000001
sg274
g2
(g275
g276
F0.0019383484603055542
tp774
Rp775
sg279
Nsg268
(dp776
g772
F1.0
ssbF99.02079721541496
sg2
(g270
g4
Ntp777
Rp778
(dp779
g267
F0.010098888598367354
sg274
g2
(g275
g276
F0.0014202931156506741
tp780
Rp781
sg279
Nsg268
(dp782
g778
F1.0
ssbF-142.95862453955093
ssbag2
(g263
g4
Ntp783
Rp784
(dp785
g267
F0.7053394948415185
sg268
(dp786
g2
(g270
g4
Ntp787
Rp788
(dp789
g267
F0.0237
sg274
g2
(g275
g276
F0.0012933586086668265
tp790
Rp791
sg279
Nsg268
(dp792
g788
F1.0
ssbF29.761160119895298
sg2
(g270
g4
Ntp793
Rp794
(dp795
g267
F0.0336008406920771
sg274
g2
(g275
g276
F0.002412556386512245
tp796
Rp797
sg279
Nsg268
(dp798
g794
F1.0
ssbF-20.991721644864498
ssbag2
(g263
g4
Ntp799
Rp800
(dp801
g267
F1.434812138711822
sg268
(dp802
g2
(g270
g4
Ntp803
Rp804
(dp805
g267
F0.01406
sg274
g2
(g275
g276
F0.002698441838355647
tp806
Rp807
sg279
Nsg268
(dp808
g804
F1.0
ssbF102.04922750439701
sg2
(g270
g4
Ntp809
Rp810
(dp811
g267
F0.009799192257059592
sg274
g2
(g275
g276
F0.0016664939554651506
tp812
Rp813
sg279
Nsg268
(dp814
g810
F1.0
ssbF-146.42147036947316
ssbag2
(g263
g4
Ntp815
Rp816
(dp817
g267
F0.6783819112501854
sg268
(dp818
g2
(g270
g4
Ntp819
Rp820
(dp821
g267
F0.02446
sg274
g2
(g275
g276
F0.002692722370631558
tp822
Rp823
sg279
Nsg268
(dp824
g820
F1.0
ssbF27.734338154136772
sg2
(g270
g4
Ntp825
Rp826
(dp827
g267
F0.03605638593004762
sg274
g2
(g275
g276
F0.0029104536663800066
tp828
Rp829
sg279
Nsg268
(dp830
g826
F1.0
ssbF-18.814473324262245
ssbag2
(g263
g4
Ntp831
Rp832
(dp833
g267
F1.4494322105337396
sg268
(dp834
g2
(g270
g4
Ntp835
Rp836
(dp837
g267
F0.01386
sg274
g2
(g275
g276
F0.001534849390727695
tp838
Rp839
sg279
Nsg268
(dp840
g836
F1.0
ssbF104.57663856664787
sg2
(g270
g4
Ntp841
Rp842
(dp843
g267
F0.009562365110470525
sg274
g2
(g275
g276
F0.001132753666849836
tp844
Rp845
sg279
Nsg268
(dp846
g842
F1.0
ssbF-151.57674840784438
ssbag2
(g263
g4
Ntp847
Rp848
(dp849
g267
F0.6781210348512057
sg268
(dp850
g2
(g270
g4
Ntp851
Rp852
(dp853
g267
F0.024820000000000002
sg274
g2
(g275
g276
F0.003500303445818295
tp854
Rp855
sg279
Nsg268
(dp856
g852
F1.0
ssbF27.321556601579598
sg2
(g270
g4
Ntp857
Rp858
(dp859
g267
F0.03660113567402616
sg274
g2
(g275
g276
F0.004933229518653418
tp860
Rp861
sg279
Nsg268
(dp862
g858
F1.0
ssbF-18.52732223640895
ssbag2
(g263
g4
Ntp863
Rp864
(dp865
g267
F1.4417467243200774
sg268
(dp866
g2
(g270
g4
Ntp867
Rp868
(dp869
g267
F0.01284
sg274
g2
(g275
g276
F0.0007056760046031162
tp870
Rp871
sg279
Nsg268
(dp872
g868
F1.0
ssbF112.28557042991257
sg2
(g270
g4
Ntp873
Rp874
(dp875
g267
F0.008905863827126293
sg274
g2
(g275
g276
F0.0005682252673672722
tp876
Rp877
sg279
Nsg268
(dp878
g874
F1.0
ssbF-161.8873533557378
ssbag2
(g263
g4
Ntp879
Rp880
(dp881
g267
F0.7020320613248329
sg268
(dp882
g2
(g270
g4
Ntp883
Rp884
(dp885
g267
F0.022099999999999998
sg274
g2
(g275
g276
F0.001893283140819791
tp886
Rp887
sg279
Nsg268
(dp888
g884
F1.0
ssbF31.766156621033165
sg2
(g270
g4
Ntp889
Rp890
(dp891
g267
F0.03148004374372048
sg274
g2
(g275
g276
F0.002596670649083017
tp892
Rp893
sg279
Nsg268
(dp894
g890
F1.0
ssbF-22.3008604130314
ssbag2
(g263
g4
Ntp895
Rp896
(dp897
g267
F1.4061980093282889
sg268
(dp898
g2
(g270
g4
Ntp899
Rp900
(dp901
g267
F0.01338
sg274
g2
(g275
g276
F0.003366718754153491
tp902
Rp903
sg279
Nsg268
(dp904
g900
F1.0
ssbF105.0970111605597
sg2
(g270
g4
Ntp905
Rp906
(dp907
g267
F0.009515018447786983
sg274
g2
(g275
g276
F0.0021369458713001725
tp908
Rp909
sg279
Nsg268
(dp910
g906
F1.0
ssbF-147.787207880332
ssbag2
(g263
g4
Ntp911
Rp912
(dp913
g267
F0.691725877448144
sg268
(dp914
g2
(g270
g4
Ntp915
Rp916
(dp917
g267
F0.0241
sg274
g2
(g275
g276
F0.002861220642025316
tp918
Rp919
sg279
Nsg268
(dp920
g916
F1.0
ssbF28.702318566313025
sg2
(g270
g4
Ntp921
Rp922
(dp923
g267
F0.03484039094924085
sg274
g2
(g275
g276
F0.00509454253617687
tp924
Rp925
sg279
Nsg268
(dp926
g922
F1.0
ssbF-19.854136495079032
ssbag2
(g263
g4
Ntp927
Rp928
(dp929
g267
F1.4435098273494198
sg268
(dp930
g2
(g270
g4
Ntp931
Rp932
(dp933
g267
F0.01542
sg274
g2
(g275
g276
F0.0016644782616575128
tp934
Rp935
sg279
Nsg268
(dp936
g932
F1.0
ssbF93.61282927039039
sg2
(g270
g4
Ntp937
Rp938
(dp939
g267
F0.010682296516341897
sg274
g2
(g275
g276
F0.0010899110630546275
tp940
Rp941
sg279
Nsg268
(dp942
g938
F1.0
ssbF-135.13103901779192
ssbag2
(g263
g4
Ntp943
Rp944
(dp945
g267
F0.7002866108376639
sg268
(dp946
g2
(g270
g4
Ntp947
Rp948
(dp949
g267
F0.0246
sg274
g2
(g275
g276
F0.005251079110918673
tp950
Rp951
sg279
Nsg268
(dp952
g948
F1.0
ssbF28.466935399905033
sg2
(g270
g4
Ntp953
Rp954
(dp955
g267
F0.03512847399805938
sg274
g2
(g275
g276
F0.00781269797522305
tp956
Rp957
sg279
Nsg268
(dp958
g954
F1.0
ssbF-19.93501371213421
ssbag2
(g263
g4
Ntp959
Rp960
(dp961
g267
F1.420587085553513
sg268
(dp962
g2
(g270
g4
Ntp963
Rp964
(dp965
g267
F0.013299999999999998
sg274
g2
(g275
g276
F0.0026383533922175262
tp966
Rp967
sg279
Nsg268
(dp968
g964
F1.0
ssbF106.81105906417393
sg2
(g270
g4
Ntp969
Rp970
(dp971
g267
F0.009362326417896322
sg274
g2
(g275
g276
F0.0018733745719857735
tp972
Rp973
sg279
Nsg268
(dp974
g970
F1.0
ssbF-151.73441110085898
ssbag2
(g263
g4
Ntp975
Rp976
(dp977
g267
F0.7189968314026313
sg268
(dp978
g2
(g270
g4
Ntp979
Rp980
(dp981
g267
F0.023799999999999998
sg274
g2
(g275
g276
F0.0021879373960815144
tp982
Rp983
sg279
Nsg268
(dp984
g980
F1.0
ssbF30.209950899270222
sg2
(g270
g4
Ntp985
Rp986
(dp987
g267
F0.03310167578008731
sg274
g2
(g275
g276
F0.005050653460174324
tp988
Rp989
sg279
Nsg268
(dp990
g986
F1.0
ssbF-21.720858973404358
ssbag2
(g263
g4
Ntp991
Rp992
(dp993
g267
F1.4330110322572105
sg268
(dp994
g2
(g270
g4
Ntp995
Rp996
(dp997
g267
F0.01202
sg274
g2
(g275
g276
F0.0013781911060605323
tp998
Rp999
sg279
Nsg268
(dp1000
g996
F1.0
ssbF119.21888787497592
sg2
(g270
g4
Ntp1001
Rp1002
(dp1003
g267
F0.008387932632358503
sg274
g2
(g275
g276
F0.0009925972396469833
tp1004
Rp1005
sg279
Nsg268
(dp1006
g1002
F1.0
ssbF-170.84198157827586
ssbag2
(g263
g4
Ntp1007
Rp1008
(dp1009
g267
F0.7087638441745293
sg268
(dp1010
g2
(g270
g4
Ntp1011
Rp1012
(dp1013
g267
F0.02314
sg274
g2
(g275
g276
F0.002742363291957447
tp1014
Rp1015
sg279
Nsg268
(dp1016
g1012
F1.0
ssbF30.629379609962374
sg2
(g270
g4
Ntp1017
Rp1018
(dp1019
g267
F0.03264839225391116
sg274
g2
(g275
g276
F0.0038244368862796795
tp1020
Rp1021
sg279
Nsg268
(dp1022
g1018
F1.0
ssbF-21.70899683703788
ssbag2
(g263
g4
Ntp1023
Rp1024
(dp1025
g267
F1.4224802067933684
sg268
(dp1026
g2
(g270
g4
Ntp1027
Rp1028
(dp1029
g267
F0.0137
sg274
g2
(g275
g276
F0.0018458662358367417
tp1030
Rp1031
sg279
Nsg268
(dp1032
g1028
F1.0
ssbF103.83067202871301
sg2
(g270
g4
Ntp1033
Rp1034
(dp1035
g267
F0.009631065469011537
sg274
g2
(g275
g276
F0.001247809549852903
tp1036
Rp1037
sg279
Nsg268
(dp1038
g1034
F1.0
ssbF-147.6970758188981
ssbatp1039
bsS'# groups'
p1040
I2
sS'xs type'
p1041
S'nu-scatter'
p1042
s.