(dp0
S'domain'
p1
ccopy_reg
_reconstructor
p2
(copenmc.universe
Cell
p3
c__builtin__
object
p4
Ntp5
Rp6
(dp7
S'_type'
p8
S'normal'
p9
sS'_rotation'
p10
NsS'_fill'
p11
g2
(copenmc.material
Material
p12
g4
Ntp13
Rp14
(dp15
S'_density_units'
p16
S'g/cm3'
p17
sS'_density'
p18
F0.07425478275227912
sS'_sab'
p19
NsS'_name'
p20
S''
p21
sS'_nuclides'
p22
(dp23
sS'_elements'
p24
(dp25
sS'_id'
p26
I10003
sbsg20
g21
sS'_translation'
p27
NsS'_offset'
p28
Nsg26
I10012
sS'_surfaces'
p29
(dp30
I10003
(g2
(copenmc.surface
ZCylinder
p31
g4
Ntp32
Rp33
(dp34
g8
S'z-cylinder'
p35
sS'_R'
p36
NsS'_coeffs'
p37
(dp38
S'y0'
p39
F0.0
sS'x0'
p40
F0.0
sS'R'
p41
F0.56134
ssg20
g21
sS'_bc_type'
p42
S'transmission'
p43
sg26
I10003
sS'_x0'
p44
NsS'_coeff_keys'
p45
(lp46
g40
ag39
ag41
asS'_y0'
p47
Nsbcnumpy.core.multiarray
scalar
p48
(cnumpy
dtype
p49
(S'i8'
p50
I0
I1
tp51
Rp52
(I3
S'<'
p53
NNNI-1
I-1
I0
tp54
bS'\xff\xff\xff\xff\xff\xff\xff\xff'
p55
tp56
Rp57
tp58
ssbsS'group bounds'
p59
cnumpy.core.multiarray
_reconstruct
p60
(cnumpy
ndarray
p61
(I0
tp62
S'b'
p63
tp64
Rp65
(I1
(I3
tp66
g49
(S'f8'
p67
I0
I1
tp68
Rp69
(I3
S'<'
p70
NNNI-1
I-1
I0
tp71
bI00
S'\x00\x00\x00\x00\x00\x00\x00\x00\xf1h\xe3\x88\xb5\xf8\xa4>\x00\x00\x00\x00\x00\x00$@'
p72
tp73
bsS'tallies'
p74
(dp75
S'nu-scatter'
p76
g2
(copenmc.tallies
Tally
p77
g4
Ntp78
Rp79
(dp80
S'_num_tot_score_bins'
p81
I1
sS'_label'
p82
S'2 groups'
p83
sS'_filters'
p84
(lp85
g2
(copenmc.tallies
Filter
p86
g4
Ntp87
Rp88
(dp89
S'_mesh'
p90
Nsg8
S'distribcell'
p91
sg28
I5
sS'_stride'
p92
I1
sS'_bin_edges'
p93
(lp94
I10012
asbag2
(g86
g4
Ntp95
Rp96
(dp97
g90
Nsg8
S'energy'
p98
sg28
I0
sg92
I24
sg93
(lp99
F0.0
aF6.25e-07
aF10.0
asbasS'_sum_sq'
p100
g60
(g61
(I0
tp101
g63
tp102
Rp103
(I1
(I48
I1
tp104
g69
I00
S"\x18\xda\x18\xbf\x19\xcas?\xea)(\xfb\x9d\xdc\x8d?\x81\xa1\xfd\xfe\x83\xfex?}\xf5+|\x01\xe6\x8f?\x88\xf1?\x9e\x02\x05s?\xbf\xa9\x1f\x06\x80K\x8c?\x04\x11\x98=\xbf\xdes?t\xe7\r \x11\x8d\x8d?\xdf\xf4W]\xc1\x15t?\x1a\x12\x94.?h\x8c?'\xd4x\x8em\xbev?\xd2vm\xeb~\x80\x8b?\x8b\x96\xf2\x10|\xc2x?\xb4\xb6)\x1e\x17\xd5\x8a?J\x9cWm\xe5\xc2t? :\x04\x8e\x04\x1a\x8c?\xf2\xeb\x03\xa0\xbcUx?\xcb\xf0\x86\xd1\xff\xb4\x89?\xa8\xcb\xde)O\xe6p?\xb9+`\xa7\xfd{\x8d?E1\x16\xd9\x10\x14v?\x90\x82\xa7\x90+\xf5\x8c?;\x8e@8v\xbbt?\xff\xa4\xa9\xb7i\xe0\x8d?\x9b&\x85\xdc\xb9\xeeu?\x8c\x1b\xc8\xc4\xf7\x0f\x8b?\xaf\x16L\xba5\x02t?6\x04\x8d\xbaR\xa6\x8b?Y\x7f\xcf8\xa2\xb5q?M{\xd6wv\xe0\x89?\x1e2\xcc\xa6\xaf)x?\xd1\x1fyk\x89*\x8e?$\x10L\xc1\\\x83u?\\h|\x99\x074\x89?&\xd0y\xf0\x87]s?:hD\xa3\x1az\x8c?\\\x1eJ8\x1d\x96p?\xef\xf1\xf8\xac!'\x8a?,\x02\xef&\xf05q?\x00\xe7b_\xf4\r\x8b?\xac\xe7\xff\xb0\x00\x01v?\xe6\x13\x05<ap\x8a?=rZ\xa6\x15\x95s?\xe8%1\xce\x00\x93\x8b?/SQ\xc4;#n?\x8dO\xf9\xbeU*\x8a?\xed\x19x\xa4\xb0Au?j@\xefSvv\x89?"
p105
tp106
bsS'_std_dev'
p107
g60
(g61
(I0
tp108
g63
tp109
Rp110
(I1
(I48
I1
tp111
g69
I00
S'\x03h\x03\xbf\xbe\nm?\x9e\x1e\x97]\x94na?\xdb\xdbWj\x16\xe6V?_~\xf1\xd5\x1b\xe4u?\x89\xfa\xcc\xf5\x8c\xb3d?{N\xa8\xe8Z\xfbh?<\xb5]\xbb\x05Dq?\x8a\xa4{\xd2&\x96g?\xaa\xaa\xf7h\x10\x9f}?\x8a_\x10E+ j?4B\xb5\x15\xa9q}?\xf5\xa8\xed\xd7\x06Mm?\x91\x19\xb2\xc8\xfb3\x80?\x9b"13\xf3\xadt?gD;pC\x15r?\x9e\x9c\x1b\xa2\x8e:v?\xa1t$\xfc\xaaAz?R\xc7R=\xd5\xc8a?X\x04\x1dR?\xc6w?\xa6d\xfa\xc8\x92`g?\xbe3\xe5%\xfdBu?\xe1\x19+\x87+\xc5u?\xe2\xde\x80\xdb4\x19t?\x82\xa4\xbe\x19g)f?\x88\x0f\r\xec4?p?V\xbdv\xd9\x87\x1en?\xe4} u\xba\xdfr?\xf9\xc5\xd5r\x00\x9br?gv\xb4\xc4\xcbcl?a\xff\xfc\x98E\xddr?\xcb\x06\xf8\xf6\xf5yQ?\x88\x06\xf7\xa8-\xdbu?N\xb2\xbf\x17\x95\xbeq?\x16\xf8\xdf\xcc\xbe\xdcr?\x98\xf6\x87\xd1\x8a\x12p?zu\x9aoU\xc5s?\xedM\x8bN`\x13s?\x07\xcds\xe99\x8bs??\xcc\x1d:\xd2\xc2s?\xee:\xd0\xf6~\xa0`?\x85\xd9\xd6\x08\x8d\xbbi?v\xf3\\Cf\xdet?.\xfc;\x03\x08\xd7v?\xddqW\x1c\x95\x0bu?5\x11)f\xe6\xe2o?\xcdN*a{\x0cn?\x07G\xc0*\x10`l?\xdc\x85\xec\x0b|ur?'
p112
tp113
bsS'_num_tot_filter_bins'
p114
I48
sS'_mean'
p115
g60
(g61
(I0
tp116
g63
tp117
Rp118
(I1
(I48
I1
tp119
g69
I00
S'~\x00R\x9b8\xb9\x9f?k\xb2F=D\xa3\xab?7\xe0\xf3\xc3\x08\xe1\xa1?\xa6"\x15\xc6\x16\x82\xac?\xa0\xc8\x93\xa4k&\x9f?N\x97\xc5\xc4\xe6\xe3\xaa?Z9\xb4\xc8v\xbe\x9f?\x08\x08\xe6\xe8\xf1{\xab?:\xe4f\xb8\x01\x9f\x9f?p%;6\x02\xf1\xaa?\x98\xc5\xc4\xe6\xe3\xda\xa0?\x1d_{fI\x80\xaa?\x01o\x81\x04\xc5\x8f\xa1?0|DL\x89$\xaa?*\xe3\xdfg\\8\xa0?V\t\x16\x873\xbf\xaa?\x05\xa8\xa9ek}\xa1?N\x0b^\xf4\x15\xa4\xa9?`\x935\xea!\x1a\x9d?\xc0\xb2\xd2\xa4\x14t\xab?2\x1bd\x92\x91\xb3\xa0?cz\xc2\x12\x0f(\xab?\xe2\x8d\xcc#\x7f0\xa0?m\xb2F=D\xa3\xab?\xc6\xfe\xb2{\xf2\xb0\xa0?(\n\xf4\x89<I\xaa?\xc2\x1c=~o\xd3\x9f?=\xed\xf0\xd7d\x8d\xaa?\xe2X\x17\xb7\xd1\x00\x9e?\x02}"O\x92\xae\xa9?\xdb\xa7\xe31\x03\x95\xa1?\xd5\x95\xcf\xf2<\xb8\xab?\x86\x1b\xf0\xf9a\x84\xa0?\xf2\xd2Mb\x10X\xa9?%\x01jj\xd9Z\x9f?p%;6\x02\xf1\xaa?\x8e\xcc#\x7f0\xf0\x9c?\x8d\xee v\xa6\xd0\xa9?\xb8\x92\x1d\x1b\x81x\x9d?\x03CV\xb7zN\xaa?\xe7\x8c(\xed\r\xbe\xa0?\x16`\x1f\x9d\xba\xf2\xa9?\xdbr.\xc5Ue\x9f?\x1d_{fI\x80\xaa?\xfe\x95\x95&\xa5\xa0\x9b?\xd5C4\xba\x83\xd8\xa9?\x8bT\x18[\x08r\xa0?|DL\x89$z\xa9?'
p120
tp121
bsS'_num_realizations'
p122
I5
sg22
(lp123
sS'_sum'
p124
g60
(g61
(I0
tp125
g63
tp126
Rp127
(I1
(I48
I1
tp128
g69
I00
S'O@\x13a\xc3\xd3\xc3?\x83/L\xa6\nF\xd1?E\xd8\xf0\xf4JY\xc6?\xa85\xcd;N\xd1\xd1?d]\xdcF\x03x\xc3?\x91~\xfb:p\xce\xd0?\xd8\xa3p=\n\xd7\xc3?\x05\xc5\x8f1w-\xd1?\xa4N@\x13a\xc3\xc3?f\xf7\xe4a\xa1\xd6\xd0?\xfe\xf6u\xe0\x9c\x11\xc5?r\x1b\r\xe0-\x90\xd0?\xc1\xca\xa1E\xb6\xf3\xc5?\x9e\xcd\xaa\xcf\xd5V\xd0?\xf4\xdb\xd7\x81sF\xc4?\xd6\xc5m4\x80\xb7\xd0?\x06\x12\x14?\xc6\xdc\xc5?\x11\xc7\xba\xb8\x8d\x06\xd0?\x1c|a2U0\xc2?\xb8\xaf\x03\xe7\x8c(\xd1?\xff!\xfd\xf6u\xe0\xc4?~\x8c\xb9k\t\xf9\xd0?[\xb1\xbf\xec\x9e<\xc4?\x84/L\xa6\nF\xd1?w\xbe\x9f\x1a/\xdd\xc4?Y\x868\xd6\xc5m\xd0?\xf91\xe6\xae%\xe4\xc3?F\x94\xf6\x06_\x98\xd0?\x8d\x97n\x12\x83\xc0\xc2?!\x8euq\x1b\r\xd0?\xd2\x91\\\xfeC\xfa\xc5?\xa5\xbd\xc1\x17&S\xd1?h"lxz\xa5\xc4?\xaeG\xe1z\x14\xae\xcf?\xb7@\x82\xe2\xc7\x98\xc3?f\xf7\xe4a\xa1\xd6\xd0?\xd9_vO\x1e\x16\xc2?\x18\x95\xd4\th"\xd0?\xb3{\xf2\xb0Pk\xc2?\xe2\xe9\x95\xb2\x0cq\xd0?!\xb0rh\x91\xed\xc4?\x0e\x9c3\xa2\xb47\xd0?\xc9\x07=\x9bU\x9f\xc3?r\x1b\r\xe0-\x90\xd0?\xbf}\x1d8gD\xc1?e\xaa`TR\'\xd0?\xaei\xdeq\x8a\x8e\xc4?\x9bU\x9f\xab\xad\xd8\xcf?'
p129
tp130
bsS'_estimator'
p131
S'analog'
p132
sS'_scores'
p133
(lp134
S'nu-scatter'
p135
asg26
I10181
sbsS'flux'
p136
g2
(g77
g4
Ntp137
Rp138
(dp139
g81
I1
sg82
S'2 groups'
p140
sg84
(lp141
g2
(g86
g4
Ntp142
Rp143
(dp144
g90
Nsg8
g91
sg28
I5
sg92
I1
sg93
(lp145
I10012
asbag2
(g86
g4
Ntp146
Rp147
(dp148
g90
Nsg8
g98
sg28
I0
sg92
I24
sg93
(lp149
F0.0
aF6.25e-07
aF10.0
asbasg100
g60
(g61
(I0
tp150
g63
tp151
Rp152
(I1
(I48
I1
tp153
g69
I00
S'\x08\x86\xfeT,\xabc?>\xf2\x19\xf1Oc\xa0?j\x1f\xe4{\xac\xaag?\x12\xdeNQP[\xa0?\xfa@\x12O9\x0fb?0\x11\x89\x94\xa4\xae\x9e?\x85\xb4\xbf+\x7f1c?\xd4\x90\x16\xe3\x9c\xfb\x9d?4\xd5\x9c=\xc2mc?\xd0-\xfe0\xc2\x0b\x9d?\x01\x8d\xe7\xc7\xdf\xdbe?\x91Q\xefu\xd2\x9a\x9f?\xea\x97\xfe\x1a[\xf5g?\xbf\xa2\xa4U$#\x9e?tT\xa3\x01\xf1wd?}\x1b]\x03d\xca\x9c?\xf8i2\xb8\xb5qg?6\xd5\xce\xca\xee\x0b\x9c?\xe2W\x9c\x14\xcb\x0ea?\xf0\xef\xe5\x8ep\x15\x9f?_\x81\xd5\xffEWe?\x85\xce\xe8[\x18"\x9d?\t\xaf\xd2]c\x10d?\tG\x1e\xa3\xfch\x9f?n\xd1Scy\x02e?\xc7$\xc8\xae\xfdD\x9d?\xc1\x05f\xc7I\xf7b?n\n\x01F\xd1\xb4\xa0?\x1f\xc9\x02h\x9c;a?0\x9a\xaf1\x12\xe8\x9c?\xc5\xf4\xad\x86\xfcRg?N\xfa\x1e\xca?\xe9\x9e?InuM)\xb6e?\xfd\x05J\xc9\xe36\x99?6sJ\x82\xd2\x95b?e\x89\xbeJ\x93U\x9d?\xccw\xc1\x8a.\xa5_?I\x8e\xae\x85\xb4\xb2\x9b?T0\xd4b\xfer`?\x18\x08[\xe0\x92b\x9b?\x1e\xb6\xafDjSe?\xa0\x98\tN\x14r\x9c?\x16mo\xbff\xe4b?z8\x9aR\xc3Q\x9e?\x0f\t\x8a\x9a.?]?\x83(q7\x14\x9b\x9c?JW\xc84\xe3\x80d?\x90\xce\xe6\xeb\xe7\xb2\x9c?'
p154
tp155
bsg107
g60
(g61
(I0
tp156
g63
tp157
Rp158
(I1
(I48
I1
tp159
g69
I00
S'\x7f\x07\xdbz\\\xef`?\xb5\xa0\xa5G\x94Nz?(\xb8\xb8dK\xc9V?J9\xb2\xf4\x1a\xb4|?\n\xbe\x82\xc8I|`?\xc3\xbeh\xbc\xb2:\x80?\xde%\x16\x1a\x82ie? \xa2\x8e\x99\x1a\xa5u?L\xfc\r\xa0y\x06t?\xef\xe3\xd5\xe2\n\xb4f?>.1\xbe\xd1\xfer?e\xab\xb6\xa1\x07\x97s?\x80h\x04\x88\xdbHt?\xf6\x81\xf3\xf8u~j?p\xd7Ws\xb3\x92i?P\x1ed\x16Q\x94\x81?*\x0c\xe7\xfb1\x80r?\xf2/\xae<\xeb\x11d?B\xfc_\xb6\xf9Ap?mU\xb2\x1b\x0f\ns?\xd2 \x96T\xa4?k?\x1a\xc8\xc3\xf1\xd1\xb0z?\xcb\xa066\x1b~k? \x14\xa8\xb4-\xa4q?\xd5I\xef\x0b\x89\xdec?\xa4\x06\xa7\x07F\xda\x80?\xd7\x1bMM\x1c\x8fh?F\xa1\x0e\x18\x93dy?6\x81\x8d\xb2O+d?\x83\t\xec\x11\x90\x9d}?\xbbE\x9c\xea\x1e\x05Q?\xda\xa5\x01\xe2\x92\x0c\x83?\xaeim\ne\x8dj?\xcayg\xf7\x94\xfd\x80?\xc3\x07\x8b\x0f\n<d?;\xb8\xe0\x96\xfb\xe9\x83?\x8dm\x97\xd8\xbeVj?\xed\x13\xe4\x15\xc6/\x84?\x82\xf8e\xefU\x10g?\x18n\xe6o\xe1xU?\xd3\xd3;\x02\xf1\tZ?R5V\xa5r\x12\x7f?d\x96\xdb\xecd\x90p?\x83\x00XPa\xf9\x81?"\x12\xff+\xcd\xc1c?\x8a\x14}\xed+^\x84?:\xc51\xabM)a?\x82`\xa1\xbe\xc8\xfct?'
p160
tp161
bsg114
I48
sg115
g60
(g61
(I0
tp162
g63
tp163
Rp164
(I1
(I48
I1
tp165
g69
I00
S'\x1e\xeb\x86V\'c\x96?s\x92C\x92\xbcr\xb4?\xca\xe4_\xec\xcd\x97\x98?V\x8b\x9d~\rl\xb4?8\xdc0ILs\x95?R\xd9\x11\xe8u\xc3\xb3?\xdb\xa6\x877\x18\x15\x96?~\'\xe7\xd2\xe9\x90\xb3?>\x15J\xe2\'\x02\x96?\x0e\x19\x04JhF\xb3?\x9d\x98\xbe\x18.h\x97?J\x83\xdd>\x07\x18\xb4?FM\xeb\xfc\xa5~\x98?\xd409Y\xb3\xa1\xb3?\xde\xbf\x06\xb8Y\xc6\x96?K\xbf\x07h\xa9!\xb3?\xa3\xf1f\x83QE\x98?^g\x0c\x14\x1b\xf1\xb2?\x1c\x12\x08V\xd5\xb0\x94?s\x97\x0c6\xa5\xed\xb3?\xf0.\xbew\x98>\x97?F\x97"&\xf8E\xb3?\xed\xc1\xe3\xbf*\x87\x96?\xcf\xa8\x02\x0e\x12\t\xb4?\xb2=dGW\x1f\x97?9\xbb\xca\xba\xd9K\xb3?\xdfsM\xb2h\xec\x95?\xa6\xaa\xe1\xab\x1a\xa6\xb4?\x95\xbf\x0c+\xd8\xec\x94?\xa3t\x94\x0bp0\xb3?*\x83\x95\x07pl\x98?.@\x84V2\xd1\xb3?\xdb\xc6\x07\x12Gt\x97?x\x18\xb9P[\xe6\xb1?\x12\x05<\xf0w\xbc\x95?}\x0e\x85*LK\xb3?n\x95{\x0fa\xfc\x93?\x85H\xfb\x1f\xbd\xbd\xb2?Z\xc4\xc7cTj\x94?\x07\xfc?\xb8\x89\xb8\xb2?\xf8c\x12\xb7\x01V\x97?\xc1\xf3\xe0\x97\xb8\x07\xb3?je\xb31\xe0\xc9\x95?R\x80\x99\xca#\xa2\xb3?\xa5>\xf7\x063D\x93?6\x0e\xb2\x07\x0c\x0c\xb3?"\xd6\xae+\xb8\xdb\x96?3\x97\xb4H\x98$\xb3?'
p166
tp167
bsg122
I5
sg22
(lp168
sg124
g60
(g61
(I0
tp169
g63
tp170
Rp171
(I1
(I48
I1
tp172
g69
I00
S'\xe6\xa5(,\xf1\xfb\xbb?\x10w\xd4\xb6k\x8f\xd9?\xfc\xddwg\xc1\xbd\xbe?,\xeeD\xde\x10\x87\xd9?F\x13}[\x1f\xd0\xba?\xa7O\x16bS\xb4\xd8?\x92\x90iE^\x9a\xbb?]\xf1\xa0G$u\xd8?\x8d\x9a\xdc\xda\xb1\x82\xbb?R\x1f\x85\\\x02\x18\xd8?\xc4>\xee\x9e9B\xbd?\x1c\xe4\x94\x0e\t\x1e\xd9?\x97 &|O\x9e\xbe?\t}\x87/ \x8a\xd8?\xd5o\x08&\xf0w\xbc?\x1e\xaf\t\xc2\x13\xea\xd7?\x0c\xae@\xe4\xa5V\xbe?5\x81\x0f\xd9a\xad\xd7?\xa3\x16\x8a\xab\n\xdd\xb9?P\xbd\x8f\x83\x0e\xe9\xd8?\xac\xba\xad\x95>\x0e\xbd?\x17=\xab/v\x17\xd8?h\xb2\xdco\xf5(\xbc?\x03S\x83\x91V\x0b\xd9?\x1eM=\x19-\xe7\xbc?\x07j})\xd0\x1e\xd8?\xd7\xd0\xe0\xde\x82g\xbb?P\x15\xdaV\xa1\xcf\xd9?z\xef\xcf5\x0e(\xba?\xcc\x91y\x0e\x8c\xfc\xd7?\xf5\xe3z\t\x8c\x87\xbe?:P%\xec~\xc5\xd8?\x92\xb8\x89\xd6XQ\xbd?\x96^\xe7$\xf2_\xd6?V\x06K\xec\x95+\xbb?\x1cR&5\x1f\x1e\xd8?\xc9zZSy\xfb\xb8?\xa6\x1a\xfag,m\xd7?p\xb5\xb9|\xe9\x84\xb9?\t\xfbO&\xacf\xd7?\xf6\xfc\xd6$\x82+\xbd?\xb10\xd9\xbd\xa6\xc9\xd7?\xc4> >X<\xbb?f\xe0?\xbd\xac\x8a\xd8?N\x0e\xb5\xc8?\x15\xb8?\xc3\x91\x9e\t\x0f\xcf\xd7?\xaa\x8b\x9a6\xa6\x92\xbc?\x00\xbd\xe1Z\xbe\xed\xd7?'
p173
tp174
bsg131
g132
sg133
(lp175
g136
asg26
I10173
sbssS'subdomain offsets'
p176
(dp177
I387
g48
(g52
S'\t\x00\x00\x00\x00\x00\x00\x00'
p178
tp179
Rp180
sI774
g48
(g52
S'\x11\x00\x00\x00\x00\x00\x00\x00'
p181
tp182
Rp183
sI785
g48
(g52
S'\x12\x00\x00\x00\x00\x00\x00\x00'
p184
tp185
Rp186
sI915
g48
(g52
S'\x14\x00\x00\x00\x00\x00\x00\x00'
p187
tp188
Rp189
sI156
g48
(g52
S'\x00\x00\x00\x00\x00\x00\x00\x00'
p190
tp191
Rp192
sI542
g48
(g52
S'\n\x00\x00\x00\x00\x00\x00\x00'
p193
tp194
Rp195
sI167
g48
(g52
S'\x01\x00\x00\x00\x00\x00\x00\x00'
p196
tp197
Rp198
sI553
g48
(g52
S'\x0b\x00\x00\x00\x00\x00\x00\x00'
p199
tp200
Rp201
sI178
g48
(g52
S'\x02\x00\x00\x00\x00\x00\x00\x00'
p202
tp203
Rp204
sI950
g48
(g52
S'\x15\x00\x00\x00\x00\x00\x00\x00'
p205
tp206
Rp207
sI575
g48
(g52
S'\x0c\x00\x00\x00\x00\x00\x00\x00'
p208
tp209
Rp210
sI961
g48
(g52
S'\x16\x00\x00\x00\x00\x00\x00\x00'
p211
tp212
Rp213
sI586
g48
(g52
S'\r\x00\x00\x00\x00\x00\x00\x00'
p214
tp215
Rp216
sI972
g48
(g52
S'\x17\x00\x00\x00\x00\x00\x00\x00'
p217
tp218
Rp219
sI213
g48
(g52
S'\x03\x00\x00\x00\x00\x00\x00\x00'
p220
tp221
Rp222
sI343
g48
(g52
S'\x05\x00\x00\x00\x00\x00\x00\x00'
p223
tp224
Rp225
sI354
g48
(g52
S'\x06\x00\x00\x00\x00\x00\x00\x00'
p226
tp227
Rp228
sI741
g48
(g52
S'\x0e\x00\x00\x00\x00\x00\x00\x00'
p229
tp230
Rp231
sI876
g48
(g52
S'\x13\x00\x00\x00\x00\x00\x00\x00'
p232
tp233
Rp234
sI365
g48
(g52
S'\x07\x00\x00\x00\x00\x00\x00\x00'
p235
tp236
Rp237
sI752
g48
(g52
S'\x0f\x00\x00\x00\x00\x00\x00\x00'
p238
tp239
Rp240
sI376
g48
(g52
S'\x08\x00\x00\x00\x00\x00\x00\x00'
p241
tp242
Rp243
sI763
g48
(g52
S'\x10\x00\x00\x00\x00\x00\x00\x00'
p244
tp245
Rp246
sI252
g48
(g52
S'\x04\x00\x00\x00\x00\x00\x00\x00'
p247
tp248
Rp249
ssS'offset'
p250
I5
sS'domain type'
p251
g91
sS'xs'
p252
g60
(g61
(I0
tp253
g63
tp254
Rp255
(I1
(I24
I2
tp256
g49
(S'O8'
p257
I0
I1
tp258
Rp259
(I3
S'|'
p260
NNNI-1
I-1
I63
tp261
bI00
(lp262
g2
(cuncertainties
AffineScalarFunc
p263
g4
Ntp264
Rp265
(dp266
S'_nominal_value'
p267
F0.6757996716391146
sS'derivatives'
p268
(dp269
g2
(cuncertainties
Variable
p270
g4
Ntp271
Rp272
(dp273
g267
F0.05397999999999999
sS'_std_dev'
p274
g2
(cuncertainties
CallableStdDev
p275
c__builtin__
float
p276
F0.0021279237523435654
tp277
Rp278
sS'tag'
p279
Nsg268
(dp280
g272
F1.0
ssbF12.519445565748697
sg2
(g270
g4
Ntp281
Rp282
(dp283
g267
F0.07987574168107318
sg274
g2
(g275
g276
F0.006422595232244689
tp284
Rp285
sg279
Nsg268
(dp286
g282
F1.0
ssbF-8.460637202436738
ssbag2
(g263
g4
Ntp287
Rp288
(dp289
g267
F1.4170307753124163
sg268
(dp290
g2
(g270
g4
Ntp291
Rp292
(dp293
g267
F0.03098
sg274
g2
(g275
g276
F0.003545162726465102
tp294
Rp295
sg279
Nsg268
(dp296
g292
F1.0
ssbF45.740179964894004
sg2
(g270
g4
Ntp297
Rp298
(dp299
g267
F0.021862616211119172
sg274
g2
(g275
g276
F0.0020672613380562917
tp300
Rp301
sg279
Nsg268
(dp302
g298
F1.0
ssbF-64.81524267858319
ssbag2
(g263
g4
Ntp303
Rp304
(dp305
g267
F0.6979739264589635
sg268
(dp306
g2
(g270
g4
Ntp307
Rp308
(dp309
g267
F0.05567999999999999
sg274
g2
(g275
g276
F0.005344494565263951
tp310
Rp311
sg279
Nsg268
(dp312
g308
F1.0
ssbF12.535451265426788
sg2
(g270
g4
Ntp313
Rp314
(dp315
g267
F0.07977375355907887
sg274
g2
(g275
g276
F0.00700769929529905
tp316
Rp317
sg279
Nsg268
(dp318
g314
F1.0
ssbF-8.749418139664918
ssbag2
(g263
g4
Ntp319
Rp320
(dp321
g267
F1.453995060168941
sg268
(dp322
g2
(g270
g4
Ntp323
Rp324
(dp325
g267
F0.03492
sg274
g2
(g275
g276
F0.0013976305866643033
tp326
Rp327
sg279
Nsg268
(dp328
g324
F1.0
ssbF41.63788832098915
sg2
(g270
g4
Ntp329
Rp330
(dp331
g267
F0.024016587783965794
sg274
g2
(g275
g276
F0.001390765787515411
tp332
Rp333
sg279
Nsg268
(dp334
g330
F1.0
ssbF-60.541283934584264
ssbag2
(g263
g4
Ntp335
Rp336
(dp337
g267
F0.6802999392481272
sg268
(dp338
g2
(g270
g4
Ntp339
Rp340
(dp341
g267
F0.05252
sg274
g2
(g275
g276
F0.003049542957578142
tp342
Rp343
sg279
Nsg268
(dp344
g340
F1.0
ssbF12.953159543947585
sg2
(g270
g4
Ntp345
Rp346
(dp347
g267
F0.07720124164356904
sg274
g2
(g275
g276
F0.00792445790747765
tp348
Rp349
sg279
Nsg268
(dp350
g346
F1.0
ssbF-8.81203365081884
ssbag2
(g263
g4
Ntp351
Rp352
(dp353
g267
F1.4521922670928287
sg268
(dp354
g2
(g270
g4
Ntp355
Rp356
(dp357
g267
F0.030420000000000003
sg274
g2
(g275
g276
F0.002527022660074711
tp358
Rp359
sg279
Nsg268
(dp360
g356
F1.0
ssbF47.73807584131587
sg2
(g270
g4
Ntp361
Rp362
(dp363
g267
F0.020947639434066384
sg274
g2
(g275
g276
F0.002012390239620525
tp364
Rp365
sg279
Nsg268
(dp366
g362
F1.0
ssbF-69.32486458264988
ssbag2
(g263
g4
Ntp367
Rp368
(dp369
g267
F0.7023424477649243
sg268
(dp370
g2
(g270
g4
Ntp371
Rp372
(dp373
g267
F0.053680000000000005
sg274
g2
(g275
g276
F0.0028792150732113763
tp374
Rp375
sg279
Nsg268
(dp376
g372
F1.0
ssbF13.083875703519452
sg2
(g270
g4
Ntp377
Rp378
(dp379
g267
F0.07642995261190141
sg274
g2
(g275
g276
F0.005284408479305586
tp380
Rp381
sg279
Nsg268
(dp382
g378
F1.0
ssbF-9.189361287861873
ssbag2
(g263
g4
Ntp383
Rp384
(dp385
g267
F1.4375248565368401
sg268
(dp386
g2
(g270
g4
Ntp387
Rp388
(dp389
g267
F0.031000000000000007
sg274
g2
(g275
g276
F0.004215261831501945
tp390
Rp391
sg279
Nsg268
(dp392
g388
F1.0
ssbF46.37176956570451
sg2
(g270
g4
Ntp393
Rp394
(dp395
g267
F0.02156484450271177
sg274
g2
(g275
g276
F0.002613786797785108
tp396
Rp397
sg279
Nsg268
(dp398
g394
F1.0
ssbF-66.66057139229879
ssbag2
(g263
g4
Ntp399
Rp400
(dp401
g267
F0.6988689937520046
sg268
(dp402
g2
(g270
g4
Ntp403
Rp404
(dp405
g267
F0.05262
sg274
g2
(g275
g276
F0.0031891675103103466
tp406
Rp407
sg279
Nsg268
(dp408
g404
F1.0
ssbF13.281432796503319
sg2
(g270
g4
Ntp409
Rp410
(dp411
g267
F0.07529308135062626
sg274
g2
(g275
g276
F0.0027713978403736054
tp412
Rp413
sg279
Nsg268
(dp414
g410
F1.0
ssbF-9.281981574077147
ssbag2
(g263
g4
Ntp415
Rp416
(dp417
g267
F1.4367736733177119
sg268
(dp418
g2
(g270
g4
Ntp419
Rp420
(dp421
g267
F0.030879999999999998
sg274
g2
(g275
g276
F0.007231773473430772
tp422
Rp423
sg279
Nsg268
(dp424
g420
F1.0
ssbF46.52764486132487
sg2
(g270
g4
Ntp425
Rp426
(dp427
g267
F0.021492598711593695
sg274
g2
(g275
g276
F0.0048889876351259735
tp428
Rp429
sg279
Nsg268
(dp430
g426
F1.0
ssbF-66.84969521822771
ssbag2
(g263
g4
Ntp431
Rp432
(dp433
g267
F0.6594332612872567
sg268
(dp434
g2
(g270
g4
Ntp435
Rp436
(dp437
g267
F0.05176000000000001
sg274
g2
(g275
g276
F0.003576768270638126
tp438
Rp439
sg279
Nsg268
(dp440
g436
F1.0
ssbF12.740209839398311
sg2
(g270
g4
Ntp441
Rp442
(dp443
g267
F0.0784916428069781
sg274
g2
(g275
g276
F0.004782705127051344
tp444
Rp445
sg279
Nsg268
(dp446
g442
F1.0
ssbF-8.401318123878424
ssbag2
(g263
g4
Ntp447
Rp448
(dp449
g267
F1.4401737575116145
sg268
(dp450
g2
(g270
g4
Ntp451
Rp452
(dp453
g267
F0.032920000000000005
sg274
g2
(g275
g276
F0.007188473212707925
tp454
Rp455
sg279
Nsg268
(dp456
g452
F1.0
ssbF43.74768400703567
sg2
(g270
g4
Ntp457
Rp458
(dp459
g267
F0.022858352909360325
sg274
g2
(g275
g276
F0.004637545879699055
tp460
Rp461
sg279
Nsg268
(dp462
g458
F1.0
ssbF-63.004266458843325
ssbag2
(g263
g4
Ntp463
Rp464
(dp465
g267
F0.6658311824602942
sg268
(dp466
g2
(g270
g4
Ntp467
Rp468
(dp469
g267
F0.051059999999999994
sg274
g2
(g275
g276
F0.005048704147221496
tp470
Rp471
sg279
Nsg268
(dp472
g468
F1.0
ssbF13.040172002747633
sg2
(g270
g4
Ntp473
Rp474
(dp475
g267
F0.07668610504441925
sg274
g2
(g275
g276
F0.003234129347774446
tp476
Rp477
sg279
Nsg268
(dp478
g474
F1.0
ssbF-8.68255314407508
ssbag2
(g263
g4
Ntp479
Rp480
(dp481
g267
F1.4339090059070416
sg268
(dp482
g2
(g270
g4
Ntp483
Rp484
(dp485
g267
F0.034300000000000004
sg274
g2
(g275
g276
F0.007911650717016968
tp486
Rp487
sg279
Nsg268
(dp488
g484
F1.0
ssbF41.804927285919575
sg2
(g270
g4
Ntp489
Rp490
(dp491
g267
F0.02392062526889773
sg274
g2
(g275
g276
F0.0049522948686676616
tp492
Rp493
sg279
Nsg268
(dp494
g490
F1.0
ssbF-59.944461726569095
ssbag2
(g263
g4
Ntp495
Rp496
(dp497
g267
F0.6990275807543707
sg268
(dp498
g2
(g270
g4
Ntp499
Rp500
(dp501
g267
F0.052239999999999995
sg274
g2
(g275
g276
F0.005426938210553759
tp502
Rp503
sg279
Nsg268
(dp504
g500
F1.0
ssbF13.381079264057634
sg2
(g270
g4
Ntp505
Rp506
(dp507
g267
F0.07473238744546255
sg274
g2
(g275
g276
F0.008583672996351016
tp508
Rp509
sg279
Nsg268
(dp510
g506
F1.0
ssbF-9.353743465836683
ssbag2
(g263
g4
Ntp511
Rp512
(dp513
g267
F1.4243949777795284
sg268
(dp514
g2
(g270
g4
Ntp515
Rp516
(dp517
g267
F0.03168
sg274
g2
(g275
g276
F0.004414809638277984
tp518
Rp519
sg279
Nsg268
(dp520
g516
F1.0
ssbF44.96196268243461
sg2
(g270
g4
Ntp521
Rp522
(dp523
g267
F0.022241021973684265
sg274
g2
(g275
g276
F0.0031217102903111013
tp524
Rp525
sg279
Nsg268
(dp526
g522
F1.0
ssbF-64.04359383597043
ssbag2
(g263
g4
Ntp527
Rp528
(dp529
g267
F0.6768346644751566
sg268
(dp530
g2
(g270
g4
Ntp531
Rp532
(dp533
g267
F0.05008
sg274
g2
(g275
g276
F0.002170959933743535
tp534
Rp535
sg279
Nsg268
(dp536
g532
F1.0
ssbF13.515069178817024
sg2
(g270
g4
Ntp537
Rp538
(dp539
g267
F0.07399148215736548
sg274
g2
(g275
g276
F0.0024499506448076797
tp540
Rp541
sg279
Nsg268
(dp542
g538
F1.0
ssbF-9.147467313003151
ssbag2
(g263
g4
Ntp543
Rp544
(dp545
g267
F1.4412329205167356
sg268
(dp546
g2
(g270
g4
Ntp547
Rp548
(dp549
g267
F0.03416
sg274
g2
(g275
g276
F0.006410282049072042
tp550
Rp551
sg279
Nsg268
(dp552
g548
F1.0
ssbF42.1906592657124
sg2
(g270
g4
Ntp553
Rp554
(dp555
g267
F0.023701928753995138
sg274
g2
(g275
g276
F0.004516787767388878
tp556
Rp557
sg279
Nsg268
(dp558
g554
F1.0
ssbF-60.80656707204915
ssbag2
(g263
g4
Ntp559
Rp560
(dp561
g267
F0.688805292175847
sg268
(dp562
g2
(g270
g4
Ntp563
Rp564
(dp565
g267
F0.05362
sg274
g2
(g275
g276
F0.002853666963187412
tp566
Rp567
sg279
Nsg268
(dp568
g564
F1.0
ssbF12.84605170040744
sg2
(g270
g4
Ntp569
Rp570
(dp571
g267
F0.07784493035850719
sg274
g2
(g275
g276
F0.0046482649005573475
tp572
Rp573
sg279
Nsg268
(dp574
g570
F1.0
ssbF-8.848428394805183
ssbag2
(g263
g4
Ntp575
Rp576
(dp577
g267
F1.406525747776747
sg268
(dp578
g2
(g270
g4
Ntp579
Rp580
(dp581
g267
F0.02842
sg274
g2
(g275
g276
F0.005804297777843713
tp582
Rp583
sg279
Nsg268
(dp584
g580
F1.0
ssbF49.49070189221489
sg2
(g270
g4
Ntp585
Rp586
(dp587
g267
F0.020205815673778202
sg274
g2
(g275
g276
F0.003969169081755432
tp588
Rp589
sg279
Nsg268
(dp590
g586
F1.0
ssbF-69.6099464869436
ssbag2
(g263
g4
Ntp591
Rp592
(dp593
g267
F0.7045097377336993
sg268
(dp594
g2
(g270
g4
Ntp595
Rp596
(dp597
g267
F0.05304
sg274
g2
(g275
g276
F0.005314989119773434
tp598
Rp599
sg279
Nsg268
(dp600
g596
F1.0
ssbF13.282611948222083
sg2
(g270
g4
Ntp601
Rp602
(dp603
g267
F0.0752863972762415
sg274
g2
(g275
g276
F0.006516285033500347
tp604
Rp605
sg279
Nsg268
(dp606
g602
F1.0
ssbF-9.357729460060442
ssbag2
(g263
g4
Ntp607
Rp608
(dp609
g267
F1.4370220878162578
sg268
(dp610
g2
(g270
g4
Ntp611
Rp612
(dp613
g267
F0.032619999999999996
sg274
g2
(g275
g276
F0.005190838679777819
tp614
Rp615
sg279
Nsg268
(dp616
g612
F1.0
ssbF44.05340551245426
sg2
(g270
g4
Ntp617
Rp618
(dp619
g267
F0.02269972067692455
sg274
g2
(g275
g276
F0.0033262452677186105
tp620
Rp621
sg279
Nsg268
(dp622
g618
F1.0
ssbF-63.30571676492326
ssbag2
(g263
g4
Ntp623
Rp624
(dp625
g267
F0.6897220971856456
sg268
(dp626
g2
(g270
g4
Ntp627
Rp628
(dp629
g267
F0.05398000000000001
sg274
g2
(g275
g276
F0.002705289238254028
tp630
Rp631
sg279
Nsg268
(dp632
g628
F1.0
ssbF12.777363786321702
sg2
(g270
g4
Ntp633
Rp634
(dp635
g267
F0.07826340524721619
sg274
g2
(g275
g276
F0.00430696347985296
tp636
Rp637
sg279
Nsg268
(dp638
g634
F1.0
ssbF-8.812830147205725
ssbag2
(g263
g4
Ntp639
Rp640
(dp641
g267
F1.43727297885568
sg268
(dp642
g2
(g270
g4
Ntp643
Rp644
(dp645
g267
F0.031619999999999995
sg274
g2
(g275
g276
F0.004906851267200559
tp646
Rp647
sg279
Nsg268
(dp648
g644
F1.0
ssbF45.45455341099557
sg2
(g270
g4
Ntp649
Rp650
(dp651
g267
F0.021999996149078816
sg274
g2
(g275
g276
F0.003356030605306958
tp652
Rp653
sg279
Nsg268
(dp654
g650
F1.0
ssbF-65.33060138357621
ssbag2
(g263
g4
Ntp655
Rp656
(dp657
g267
F0.6811174215888103
sg268
(dp658
g2
(g270
g4
Ntp659
Rp660
(dp661
g267
F0.05134
sg274
g2
(g275
g276
F0.0036766675290988244
tp662
Rp663
sg279
Nsg268
(dp664
g660
F1.0
ssbF13.266798238971763
sg2
(g270
g4
Ntp665
Rp666
(dp667
g267
F0.07537613687848656
sg274
g2
(g275
g276
F0.008228823765310374
tp668
Rp669
sg279
Nsg268
(dp670
g666
F1.0
ssbF-9.036247409267416
ssbag2
(g263
g4
Ntp671
Rp672
(dp673
g267
F1.4437239713993149
sg268
(dp674
g2
(g270
g4
Ntp675
Rp676
(dp677
g267
F0.032600000000000004
sg274
g2
(g275
g276
F0.003966528632023521
tp678
Rp679
sg279
Nsg268
(dp680
g676
F1.0
ssbF44.28601139261701
sg2
(g270
g4
Ntp681
Rp682
(dp683
g267
F0.02258049367179433
sg274
g2
(g275
g276
F0.0024254490558430577
tp684
Rp685
sg279
Nsg268
(dp686
g682
F1.0
ssbF-63.93677624518433
ssbag2
(g263
g4
Ntp687
Rp688
(dp689
g267
F0.6429492951563963
sg268
(dp690
g2
(g270
g4
Ntp691
Rp692
(dp693
g267
F0.051859999999999996
sg274
g2
(g275
g276
F0.004542352440112912
tp694
Rp695
sg279
Nsg268
(dp696
g692
F1.0
ssbF12.397788182730357
sg2
(g270
g4
Ntp697
Rp698
(dp699
g267
F0.0806595487244218
sg274
g2
(g275
g276
F0.006199431024392082
tp700
Rp701
sg279
Nsg268
(dp702
g698
F1.0
ssbF-7.971149173584782
ssbag2
(g263
g4
Ntp703
Rp704
(dp705
g267
F1.4516824348620876
sg268
(dp706
g2
(g270
g4
Ntp707
Rp708
(dp709
g267
F0.031080000000000003
sg274
g2
(g275
g276
F0.004607895230975132
tp710
Rp711
sg279
Nsg268
(dp712
g708
F1.0
ssbF46.70792904961671
sg2
(g270
g4
Ntp713
Rp714
(dp715
g267
F0.02140964115402599
sg274
g2
(g275
g276
F0.002997927930127524
tp716
Rp717
sg279
Nsg268
(dp718
g714
F1.0
ssbF-67.80508017011323
ssbag2
(g263
g4
Ntp719
Rp720
(dp721
g267
F0.669176074354069
sg268
(dp722
g2
(g270
g4
Ntp723
Rp724
(dp725
g267
F0.050159999999999996
sg274
g2
(g275
g276
F0.004605552545228737
tp726
Rp727
sg279
Nsg268
(dp728
g724
F1.0
ssbF13.340830828430404
sg2
(g270
g4
Ntp729
Rp730
(dp731
g267
F0.07495785029137152
sg274
g2
(g275
g276
F0.0072303416952784775
tp732
Rp733
sg279
Nsg268
(dp734
g730
F1.0
ssbF-8.927364802390798
ssbag2
(g263
g4
Ntp735
Rp736
(dp737
g267
F1.4338327971826208
sg268
(dp738
g2
(g270
g4
Ntp739
Rp740
(dp741
g267
F0.0293
sg274
g2
(g275
g276
F0.0034655551768441486
tp742
Rp743
sg279
Nsg268
(dp744
g740
F1.0
ssbF48.93627294138638
sg2
(g270
g4
Ntp745
Rp746
(dp747
g267
F0.020434739711333434
sg274
g2
(g275
g276
F0.0024620586959117853
tp748
Rp749
sg279
Nsg268
(dp750
g746
F1.0
ssbF-70.16643311524024
ssbag2
(g263
g4
Ntp751
Rp752
(dp753
g267
F0.6993852785387881
sg268
(dp754
g2
(g270
g4
Ntp755
Rp756
(dp757
g267
F0.05414
sg274
g2
(g275
g276
F0.005335977897119933
tp758
Rp759
sg279
Nsg268
(dp760
g756
F1.0
ssbF12.918087893217365
sg2
(g270
g4
Ntp761
Rp762
(dp763
g267
F0.07741083729001794
sg274
g2
(g275
g276
F0.009301326296013924
tp764
Rp765
sg279
Nsg268
(dp766
g762
F1.0
ssbF-9.034720499386374
ssbag2
(g263
g4
Ntp767
Rp768
(dp769
g267
F1.4397624595825462
sg268
(dp770
g2
(g270
g4
Ntp771
Rp772
(dp773
g267
F0.03434
sg274
g2
(g275
g276
F0.0010666753768195255
tp774
Rp775
sg279
Nsg268
(dp776
g772
F1.0
ssbF41.9266878154498
sg2
(g270
g4
Ntp777
Rp778
(dp779
g267
F0.023851156676190012
sg274
g2
(g275
g276
F0.0010388185423305513
tp780
Rp781
sg279
Nsg268
(dp782
g778
F1.0
ssbF-60.36447117132158
ssbag2
(g263
g4
Ntp783
Rp784
(dp785
g267
F0.7079396502799896
sg268
(dp786
g2
(g270
g4
Ntp787
Rp788
(dp789
g267
F0.0495
sg274
g2
(g275
g276
F0.004605050386087958
tp790
Rp791
sg279
Nsg268
(dp792
g788
F1.0
ssbF14.301811116767466
sg2
(g270
g4
Ntp793
Rp794
(dp795
g267
F0.0699212143018445
sg274
g2
(g275
g276
F0.00829616909043986
tp796
Rp797
sg279
Nsg268
(dp798
g794
F1.0
ssbF-10.124819160374827
ssbag2
(g263
g4
Ntp799
Rp800
(dp801
g267
F1.4084567664592949
sg268
(dp802
g2
(g270
g4
Ntp803
Rp804
(dp805
g267
F0.03226
sg274
g2
(g275
g276
F0.004332144158962393
tp806
Rp807
sg279
Nsg268
(dp808
g804
F1.0
ssbF43.65954018782688
sg2
(g270
g4
Ntp809
Rp810
(dp811
g267
F0.022904501414763394
sg274
g2
(g275
g276
F0.0032412503673359882
tp812
Rp813
sg279
Nsg268
(dp814
g810
F1.0
ssbF-61.492574798046284
ssbag2
(g263
g4
Ntp815
Rp816
(dp817
g267
F0.6981770795104837
sg268
(dp818
g2
(g270
g4
Ntp819
Rp820
(dp821
g267
F0.05262
sg274
g2
(g275
g276
F0.004826863989049962
tp822
Rp823
sg279
Nsg268
(dp824
g820
F1.0
ssbF13.268283533076467
sg2
(g270
g4
Ntp825
Rp826
(dp827
g267
F0.07536769903259173
sg274
g2
(g275
g276
F0.009723630468297375
tp828
Rp829
sg279
Nsg268
(dp830
g826
F1.0
ssbF-9.263611447240368
ssbag2
(g263
g4
Ntp831
Rp832
(dp833
g267
F1.4425185920968355
sg268
(dp834
g2
(g270
g4
Ntp835
Rp836
(dp837
g267
F0.030619999999999998
sg274
g2
(g275
g276
F0.003923933276835399
tp838
Rp839
sg279
Nsg268
(dp840
g836
F1.0
ssbF47.11033938918471
sg2
(g270
g4
Ntp841
Rp842
(dp843
g267
F0.02122676280760511
sg274
g2
(g275
g276
F0.0024700352190345234
tp844
Rp845
sg279
Nsg268
(dp846
g842
F1.0
ssbF-67.95754044889082
ssbag2
(g263
g4
Ntp847
Rp848
(dp849
g267
F0.68872551819166
sg268
(dp850
g2
(g270
g4
Ntp851
Rp852
(dp853
g267
F0.05042
sg274
g2
(g275
g276
F0.004771448343706248
tp854
Rp855
sg279
Nsg268
(dp856
g852
F1.0
ssbF13.659768310028957
sg2
(g270
g4
Ntp857
Rp858
(dp859
g267
F0.07320768385696581
sg274
g2
(g275
g276
F0.009856746237810266
tp860
Rp861
sg279
Nsg268
(dp862
g858
F1.0
ssbF-9.407831007702708
ssbag2
(g263
g4
Ntp863
Rp864
(dp865
g267
F1.4479359784863515
sg268
(dp866
g2
(g270
g4
Ntp867
Rp868
(dp869
g267
F0.02826
sg274
g2
(g275
g276
F0.004657150457848297
tp870
Rp871
sg279
Nsg268
(dp872
g868
F1.0
ssbF51.23623419980012
sg2
(g270
g4
Ntp873
Rp874
(dp875
g267
F0.0195174375247879
sg274
g2
(g275
g276
F0.003215191599094508
tp876
Rp877
sg279
Nsg268
(dp878
g874
F1.0
ssbF-74.18678690004346
ssbag2
(g263
g4
Ntp879
Rp880
(dp881
g267
F0.7026005224595767
sg268
(dp882
g2
(g270
g4
Ntp883
Rp884
(dp885
g267
F0.05138
sg274
g2
(g275
g276
F0.0020296554344051343
tp886
Rp887
sg279
Nsg268
(dp888
g884
F1.0
ssbF13.674591717780784
sg2
(g270
g4
Ntp889
Rp890
(dp891
g267
F0.07312832592286621
sg274
g2
(g275
g276
F0.0013105584654117316
tp892
Rp893
sg279
Nsg268
(dp894
g890
F1.0
ssbF-9.607775285334178
ssbag2
(g263
g4
Ntp895
Rp896
(dp897
g267
F1.4435569182991907
sg268
(dp898
g2
(g270
g4
Ntp899
Rp900
(dp901
g267
F0.02878
sg274
g2
(g275
g276
F0.004824467849050384
tp902
Rp903
sg279
Nsg268
(dp904
g900
F1.0
ssbF50.15833628558689
sg2
(g270
g4
Ntp905
Rp906
(dp907
g267
F0.01993686541567672
sg274
g2
(g275
g276
F0.002815406648720987
tp908
Rp909
sg279
Nsg268
(dp910
g906
F1.0
ssbF-72.40641335543629
ssbag2
(g263
g4
Ntp911
Rp912
(dp913
g267
F0.6817640899367834
sg268
(dp914
g2
(g270
g4
Ntp915
Rp916
(dp917
g267
F0.05067999999999999
sg274
g2
(g275
g276
F0.005094909158114605
tp918
Rp919
sg279
Nsg268
(dp920
g916
F1.0
ssbF13.452330109249873
sg2
(g270
g4
Ntp921
Rp922
(dp923
g267
F0.07433656414009616
sg274
g2
(g275
g276
F0.007585952601755723
tp924
Rp925
sg279
Nsg268
(dp926
g922
F1.0
ssbF-9.17131559446193
ssbag2
(g263
g4
Ntp927
Rp928
(dp929
g267
F1.4349011025421063
sg268
(dp930
g2
(g270
g4
Ntp931
Rp932
(dp933
g267
F0.0327
sg274
g2
(g275
g276
F0.003141189058364082
tp934
Rp935
sg279
Nsg268
(dp936
g932
F1.0
ssbF43.880767661838114
sg2
(g270
g4
Ntp937
Rp938
(dp939
g267
F0.022789027022188407
sg274
g2
(g275
g276
F0.001589284286578553
tp940
Rp941
sg279
Nsg268
(dp942
g938
F1.0
ssbF-62.96456189836552
ssbag2
(g263
g4
Ntp943
Rp944
(dp945
g267
F0.6749003187561634
sg268
(dp946
g2
(g270
g4
Ntp947
Rp948
(dp949
g267
F0.05176000000000001
sg274
g2
(g275
g276
F0.005137999023159226
tp950
Rp951
sg279
Nsg268
(dp952
g948
F1.0
ssbF13.039032433465287
sg2
(g270
g4
Ntp953
Rp954
(dp955
g267
F0.07669280716209073
sg274
g2
(g275
g276
F0.00877643610419932
tp956
Rp957
sg279
Nsg268
(dp958
g954
F1.0
ssbF-8.800047145617677
ssbag2
(g263
g4
Ntp959
Rp960
(dp961
g267
F1.4409311695288933
sg268
(dp962
g2
(g270
g4
Ntp963
Rp964
(dp965
g267
F0.030660000000000003
sg274
g2
(g275
g276
F0.005576163577415234
tp966
Rp967
sg279
Nsg268
(dp968
g964
F1.0
ssbF46.9971027243605
sg2
(g270
g4
Ntp969
Rp970
(dp971
g267
F0.021277907403463393
sg274
g2
(g275
g276
F0.004043955077326442
tp972
Rp973
sg279
Nsg268
(dp974
g970
F1.0
ssbF-67.71959019308231
ssbag2
(g263
g4
Ntp975
Rp976
(dp977
g267
F0.6784711642729832
sg268
(dp978
g2
(g270
g4
Ntp979
Rp980
(dp981
g267
F0.050480000000000004
sg274
g2
(g275
g276
F0.003668061233222142
tp982
Rp983
sg279
Nsg268
(dp984
g980
F1.0
ssbF13.440395488767493
sg2
(g270
g4
Ntp985
Rp986
(dp987
g267
F0.07440257251624235
sg274
g2
(g275
g276
F0.009945243058277837
tp988
Rp989
sg279
Nsg268
(dp990
g986
F1.0
ssbF-9.11892077555343
ssbag2
(g263
g4
Ntp991
Rp992
(dp993
g267
F1.4339739037094
sg268
(dp994
g2
(g270
g4
Ntp995
Rp996
(dp997
g267
F0.026979999999999997
sg274
g2
(g275
g276
F0.0038923740369531065
tp998
Rp999
sg279
Nsg268
(dp1000
g996
F1.0
ssbF53.149514592638994
sg2
(g270
g4
Ntp1001
Rp1002
(dp1003
g267
F0.01881484727874629
sg274
g2
(g275
g276
F0.002411747671404522
tp1004
Rp1005
sg279
Nsg268
(dp1006
g1002
F1.0
ssbF-76.21501692066626
ssbag2
(g263
g4
Ntp1007
Rp1008
(dp1009
g267
F0.6654439825293701
sg268
(dp1010
g2
(g270
g4
Ntp1011
Rp1012
(dp1013
g267
F0.04976
sg274
g2
(g275
g276
F0.004506573254532378
tp1014
Rp1015
sg279
Nsg268
(dp1016
g1012
F1.0
ssbF13.373070388451971
sg2
(g270
g4
Ntp1017
Rp1018
(dp1019
g267
F0.07477714324030842
sg274
g2
(g275
g276
F0.00512388625983118
tp1020
Rp1021
sg279
Nsg268
(dp1022
g1018
F1.0
ssbF-8.89902921793707
ssbag2
(g263
g4
Ntp1023
Rp1024
(dp1025
g267
F1.4389044792864774
sg268
(dp1026
g2
(g270
g4
Ntp1027
Rp1028
(dp1029
g267
F0.03212
sg274
g2
(g275
g276
F0.0034637752305649613
tp1030
Rp1031
sg279
Nsg268
(dp1032
g1028
F1.0
ssbF44.797773327723455
sg2
(g270
g4
Ntp1033
Rp1034
(dp1035
g267
F0.02232253805751417
sg274
g2
(g275
g276
F0.0020948903052661312
tp1036
Rp1037
sg279
Nsg268
(dp1038
g1034
F1.0
ssbF-64.45971670332156
ssbatp1039
bsS'# groups'
p1040
I2
sS'xs type'
p1041
S'nu-scatter'
p1042
s.