(dp0
S'domain'
p1
ccopy_reg
_reconstructor
p2
(copenmc.universe
Cell
p3
c__builtin__
object
p4
Ntp5
Rp6
(dp7
S'_type'
p8
S'normal'
p9
sS'_rotation'
p10
NsS'_fill'
p11
g2
(copenmc.material
Material
p12
g4
Ntp13
Rp14
(dp15
S'_density_units'
p16
S'g/cm3'
p17
sS'_density'
p18
F2.5295110490843215e-05
sS'_sab'
p19
NsS'_name'
p20
S''
p21
sS'_nuclides'
p22
(dp23
sS'_elements'
p24
(dp25
sS'_id'
p26
I10006
sbsg20
g21
sS'_translation'
p27
NsS'_offset'
p28
Nsg26
I10015
sS'_surfaces'
p29
(dp30
I10005
(g2
(copenmc.surface
ZCylinder
p31
g4
Ntp32
Rp33
(dp34
g8
S'z-cylinder'
p35
sS'_R'
p36
NsS'_coeffs'
p37
(dp38
S'y0'
p39
F0.0
sS'x0'
p40
F0.0
sS'R'
p41
F0.43688
ssg20
g21
sS'_bc_type'
p42
S'transmission'
p43
sg26
I10005
sS'_x0'
p44
NsS'_coeff_keys'
p45
(lp46
g40
ag39
ag41
asS'_y0'
p47
Nsbcnumpy.core.multiarray
scalar
p48
(cnumpy
dtype
p49
(S'i8'
p50
I0
I1
tp51
Rp52
(I3
S'<'
p53
NNNI-1
I-1
I0
tp54
bS'\xff\xff\xff\xff\xff\xff\xff\xff'
p55
tp56
Rp57
tp58
ssbsS'group bounds'
p59
cnumpy.core.multiarray
_reconstruct
p60
(cnumpy
ndarray
p61
(I0
tp62
S'b'
p63
tp64
Rp65
(I1
(I3
tp66
g49
(S'f8'
p67
I0
I1
tp68
Rp69
(I3
S'<'
p70
NNNI-1
I-1
I0
tp71
bI00
S'\x00\x00\x00\x00\x00\x00\x00\x00\xf1h\xe3\x88\xb5\xf8\xa4>\x00\x00\x00\x00\x00\x00$@'
p72
tp73
bsS'tallies'
p74
(dp75
S'flux'
p76
g2
(copenmc.tallies
Tally
p77
g4
Ntp78
Rp79
(dp80
S'_num_tot_score_bins'
p81
I1
sS'_label'
p82
S'2 groups'
p83
sS'_filters'
p84
(lp85
g2
(copenmc.tallies
Filter
p86
g4
Ntp87
Rp88
(dp89
S'_mesh'
p90
Nsg8
S'distribcell'
p91
sg28
I8
sS'_stride'
p92
I1
sS'_bin_edges'
p93
(lp94
I10015
asbag2
(g86
g4
Ntp95
Rp96
(dp97
g90
Nsg8
S'energy'
p98
sg28
I0
sg92
I1
sg93
(lp99
F0.0
aF6.25e-07
aF10.0
asbasS'_sum_sq'
p100
g60
(g61
(I0
tp101
g63
tp102
Rp103
(I1
(I2
I1
tp104
g69
I00
S'\x01D\xfd\xc6\xdf\x80L?`.\xf5^\x1b\x1d\x87?'
p105
tp106
bsS'_std_dev'
p107
g60
(g61
(I0
tp108
g63
tp109
Rp110
(I1
(I2
I1
tp111
g69
I00
S'L\xe9\xe7\xe9\xe8\xe0`?\xdf0\x00\x93\xa0\xddk?'
p112
tp113
bsS'_num_tot_filter_bins'
p114
I2
sS'_mean'
p115
g60
(g61
(I0
tp116
g63
tp117
Rp118
(I1
(I2
I1
tp119
g69
I00
S'\xd6\x14\xea\xbbV\xd7\x8a?\xad\xd9vh\xf0J\xa8?'
p120
tp121
bsS'_num_realizations'
p122
I5
sg22
(lp123
sS'_sum'
p124
g60
(g61
(I0
tp125
g63
tp126
Rp127
(I1
(I2
I1
tp128
g69
I00
S'\x06Mr5\x96\xc6\xb0?\x18\x90\x94\x82\xac]\xce?'
p129
tp130
bsS'_estimator'
p131
S'tracklength'
p132
sS'_scores'
p133
(lp134
g76
asg26
I10076
sbsS'absorption'
p135
g2
(g77
g4
Ntp136
Rp137
(dp138
g81
I1
sg82
S'2 groups'
p139
sg84
(lp140
g2
(g86
g4
Ntp141
Rp142
(dp143
g90
Nsg8
g91
sg28
I8
sg92
I1
sg93
(lp144
I10015
asbag2
(g86
g4
Ntp145
Rp146
(dp147
g90
Nsg8
g98
sg28
I0
sg92
I1
sg93
(lp148
F0.0
aF6.25e-07
aF10.0
asbasg100
g60
(g61
(I0
tp149
g63
tp150
Rp151
(I1
(I2
I1
tp152
g69
I00
S'\x9be\xe1\xd6\xaaYg=ke\x9b\x11L\xfc\x19='
p153
tp154
bsg107
g60
(g61
(I0
tp155
g63
tp156
Rp157
(I1
(I2
I1
tp158
g69
I00
S'\xee\x93\\t\xa7?r>I\x06\x87\x0f}\xc8:>'
p159
tp160
bsg114
I2
sg115
g60
(g61
(I0
tp161
g63
tp162
Rp163
(I1
(I2
I1
tp164
g69
I00
S'i\xa6\x0c\xaa6:\x98>\xfe\xcf\x8a\xb1\xa42r>'
p165
tp166
bsg122
I5
sg22
(lp167
sg124
g60
(g61
(I0
tp168
g63
tp169
Rp170
(I1
(I2
I1
tp171
g69
I00
S'\x03\xd0\x8fT\xc4H\xbe>\xfe\x83\xed\xddM\xbf\x96>'
p172
tp173
bsg131
g132
sg133
(lp174
g135
asg26
I10082
sbssS'subdomain offsets'
p175
(dp176
I566
g48
(g52
S'\x00\x00\x00\x00\x00\x00\x00\x00'
p177
tp178
Rp179
ssS'offset'
p180
I8
sS'domain type'
p181
g91
sS'xs'
p182
g60
(g61
(I0
tp183
g63
tp184
Rp185
(I1
(I1
I2
tp186
g49
(S'O8'
p187
I0
I1
tp188
Rp189
(I3
S'|'
p190
NNNI-1
I-1
I63
tp191
bI00
(lp192
g2
(cuncertainties
AffineScalarFunc
p193
g4
Ntp194
Rp195
(dp196
S'_nominal_value'
p197
F1.428805920063315e-06
sS'derivatives'
p198
(dp199
g2
(cuncertainties
Variable
p200
g4
Ntp201
Rp202
(dp203
g197
F6.779218287672166e-08
sS'_std_dev'
p204
g2
(cuncertainties
CallableStdDev
p205
c__builtin__
float
p206
F6.235939980051559e-09
tp207
Rp208
sS'tag'
p209
Nsg198
(dp210
g202
F1.0
ssbF21.07626365508191
sg2
(g200
g4
Ntp211
Rp212
(dp213
g197
F0.047446739913925874
sg204
g2
(g205
g206
F0.0034015785422579626
tp214
Rp215
sg209
Nsg198
(dp216
g212
F1.0
ssbF-3.011389028319631e-05
ssbag2
(g193
g4
Ntp217
Rp218
(dp219
g197
F2.754580168348428e-05
sg198
(dp220
g2
(g200
g4
Ntp221
Rp222
(dp223
g197
F3.610163421980188e-07
sg204
g2
(g205
g206
F6.798151472012398e-08
tp224
Rp225
sg209
Nsg198
(dp226
g222
F1.0
ssbF76.30070571258325
sg2
(g200
g4
Ntp227
Rp228
(dp229
g197
F0.013106038675014291
sg204
g2
(g205
g206
F0.0020603703590015617
tp230
Rp231
sg209
Nsg198
(dp232
g228
F1.0
ssbF-0.0021017641078687147
ssbatp233
bsS'# groups'
p234
I2
sS'xs type'
p235
g135
s.