(dp0
S'domain'
p1
ccopy_reg
_reconstructor
p2
(copenmc.universe
Cell
p3
c__builtin__
object
p4
Ntp5
Rp6
(dp7
S'_type'
p8
S'normal'
p9
sS'_rotation'
p10
NsS'_fill'
p11
g2
(copenmc.material
Material
p12
g4
Ntp13
Rp14
(dp15
S'_density_units'
p16
S'g/cm3'
p17
sS'_density'
p18
F0.07425478275227912
sS'_sab'
p19
NsS'_name'
p20
S''
p21
sS'_nuclides'
p22
(dp23
sS'_elements'
p24
(dp25
sS'_id'
p26
I10003
sbsg20
g21
sS'_translation'
p27
NsS'_offset'
p28
Nsg26
I10014
sS'_surfaces'
p29
(dp30
I10004
(g2
(copenmc.surface
ZCylinder
p31
g4
Ntp32
Rp33
(dp34
g8
S'z-cylinder'
p35
sS'_R'
p36
NsS'_coeffs'
p37
(dp38
S'y0'
p39
F0.0
sS'x0'
p40
F0.0
sS'R'
p41
F0.60198
ssg20
g21
sS'_bc_type'
p42
S'transmission'
p43
sg26
I10004
sS'_x0'
p44
NsS'_coeff_keys'
p45
(lp46
g40
ag39
ag41
asS'_y0'
p47
Nsbcnumpy.core.multiarray
scalar
p48
(cnumpy
dtype
p49
(S'i8'
p50
I0
I1
tp51
Rp52
(I3
S'<'
p53
NNNI-1
I-1
I0
tp54
bS'\x01\x00\x00\x00\x00\x00\x00\x00'
p55
tp56
Rp57
tp58
ssbsS'group bounds'
p59
cnumpy.core.multiarray
_reconstruct
p60
(cnumpy
ndarray
p61
(I0
tp62
S'b'
p63
tp64
Rp65
(I1
(I3
tp66
g49
(S'f8'
p67
I0
I1
tp68
Rp69
(I3
S'<'
p70
NNNI-1
I-1
I0
tp71
bI00
S'\x00\x00\x00\x00\x00\x00\x00\x00\xf1h\xe3\x88\xb5\xf8\xa4>\x00\x00\x00\x00\x00\x00$@'
p72
tp73
bsS'tallies'
p74
(dp75
S'flux'
p76
g2
(copenmc.tallies
Tally
p77
g4
Ntp78
Rp79
(dp80
S'_num_tot_score_bins'
p81
I1
sS'_label'
p82
S'2 groups'
p83
sS'_filters'
p84
(lp85
g2
(copenmc.tallies
Filter
p86
g4
Ntp87
Rp88
(dp89
S'_mesh'
p90
Nsg8
S'distribcell'
p91
sg28
I7
sS'_stride'
p92
I1
sS'_bin_edges'
p93
(lp94
I10014
asbag2
(g86
g4
Ntp95
Rp96
(dp97
g90
Nsg8
S'energy'
p98
sg28
I0
sg92
I24
sg93
(lp99
F0.0
aF6.25e-07
aF10.0
asbasS'_sum_sq'
p100
g60
(g61
(I0
tp101
g63
tp102
Rp103
(I1
(I48
I1
tp104
g69
I00
S'\x13&/\x07\x96\xc5??a,\x8a/\t\xda{?\x00\x8b\xba\x92jBB?{\x7f\x9c\x8a\x8c\xeez?\xc5X\x92|:D:?\x03D\x823\xa6]y?1(\xebC&\x1eD?+\x97\x16\x80^\xcfy?\xccc\xc7\xe0#\x06A?\x9e0\xc7\xcb\xe0\x19x?\x81\x9cM$yiB?\xa9\xec\x07\n\xbeOv?\x1d\x96p\'l\xbeB?&\t\x12\xd1w\xd8z?\x12\x98\xda:\x99\xe5:?\xde\x19\xa9\xbd\xd4aw?\xca\xcc\x98\x8cR\xa9A?\xf5\xd8\x9e\xa8\x114u?\x1b[\xafk\xb0\x02<?\xa3\n\xa7\xe9e\xefw?x\xbd\xa8\xd3OZ=?Nh<\xe5\x04\x01|?\xc7I<S\xb3\x81B?\xdau\x00vX{x?\xa2\x89C\x1dd\xcfA?\xd8\x1e09\xd6\x97y?\xee5zU\xb6\n8?\xa3\xbd\xf2\r\x8d\x13w?V\xf0\xea\x97gr:?\n\x00\x833E\xa7z?\xc8qa?\x92\xe1@?\x91WN\x1e\xe0\xedv?\x01\x10A^\xfa\xef??\xc2R7\xf1!/w?d\xab\xb0\x16L.>?\x03\x83nr\x1e\xb7z?\xfa\x7f2\xedm\x0b:?\xd7\xff\xe4\xf9\xcb\xb1{?\xbcg)\xbdrq>?\x07#\xa3w\x00^t?Q\xe22\x06\t\xccB?W\xf0\xc9\xb1\xb1"y? \xf8\xce\xc4\xa4Q=?\xc2\t\xf5\x05\xd2\xeby?:r\xdb\xd4\xe487?\xc0\x08y\xa2!\xb6v?^\xcd\xb0\xd2\xd4\xa8>?\xed%.\xd0D\xfcu?'
p105
tp106
bsS'_std_dev'
p107
g60
(g61
(I0
tp108
g63
tp109
Rp110
(I1
(I48
I1
tp111
g69
I00
S'\xf0U\x93\x02\x9fIf?\xc5}!\xfc\xc0\xa7t?\x97~d\xc1m\x02]?\x01E\xab\xc3\x00\xddu?\xd3s\xa3{\r\xb4`?\xb2y\xdd\xd6E\x8br?\xa9\xc2S\xab\x1a\\`?\x1a\xe9\x87\xd78\x1fr?\xd2\xb2\xcc6^6L?\x1ad\xfd\xad\xfb\x98o?\xfe\x17[~\x84\xcfI?\xf7\xbdq\x9a\x8a\x0ci?\x14\xcd{\xba\xd8\xb3^?L\x83\x88a\xf2\xd2f?T\x9e2e5\x0fR?KT\x8fzUeZ?\xcd\xd7\xf6Mq`_?\x89\xc1\xb8\xcc\xa9L`?\xd2.k\xd78\xbd\\?l\xd8\x90\xb2\xe1Ui?D\x8e{@Z\x86C?\xbc\xda\'o\x14\xf7q?7"\xd7\xba\x91\xe4W?\t\x984\x90&\xb3d?\xe9\x1e\x0e\x1f\xef\x10M?\xe9\x1d\x0f\xc3\xdd\x8fl?\x0b\x02\xc2\xf7\xc29\\?\xdb\xe6\x1e\xd0\xd4\xf7_?q\xa8,\xea\xab4K?\x04\x16Ly<\x7fq?\x07\x85\xe0\x1e$EW?@2\x07^,fj?%\xc0iB\xc8M[?\xb7U\xf4X\x7f\xc3c?\xf0\xdd\x06\xfd\x1c\x8fR?/8\t\xea\xa9\xd7g?\xfbMUx\x9e\x9eB?\xaa\xf4#\xb7\xdd4t?\xc1\x84-\x14\x80\x81a?\\|\x85\xf0\x9cEe?5\x7f\xc4\x17k\xdbQ?K\x9dK\xd9\x03\xdet?\xf8\x01E\xa1\x80\xb1^?az`\x92\x1a\x00\x80?\x8c,\xac+ACP?\x98B\xf5v\xfe\xaft?\x85\x0bTM\xb1qT?J\x1eE\xeblTo?'
p112
tp113
bsS'_num_tot_filter_bins'
p114
I48
sS'_mean'
p115
g60
(g61
(I0
tp116
g63
tp117
Rp118
(I1
(I48
I1
tp119
g69
I00
S"Of\xbf\x0fI\xc3\x83?rp\x9a\x17\x18\xca\xa2?\xaf\x03\x12IGv\x85?\x84\x16r\x18Qv\xa2?'\xb85Dp\x16\x82?U\xe5\xd3\x87\x00\xf1\xa1?\xce\xe6\xca\xca{\x80\x86?\xbd\xcaM\x0eG\x1a\xa2?\x0cs\x14Ge\xd6\x84?\xd1\xd8.8\x9c\x81\xa1?\xc0\xe1\xea\x14\xee\xad\x85?\xb6\xbf\x169\x95\xdc\xa0?R\xf6\xf97\xeb\xba\x85?\xb3\x02\xc1:2\x82\xa2?\xe6\x83\x10T\xbf{\x82?\xce\xce\xa2\xcd2J\xa1?\xb8\xa3B\xae*\x13\x85?X\x07\xae\xdb=u\xa0?i\xc62A\xe1\xc1\x82?\xf3_\xa9/Zw\xa1?Lvv\x87\n]\x83?\x8a\x04n\xca\x12\xdd\xa2?\xaa\x11S\x8b\xe0\xa8\x85?[\xcb\x96wy\xad\xa1?;\xa2k(\x06P\x85?\xbb\xc9\x03H\xc3\r\xa2?\xc6\xe5\x8a\xc1x[\x81?\x81\xc5\xe1\t\xe6+\xa1?\x1a\xc4#\xb5\xac[\x82?z#\xba\x7f>g\xa2?\xaf'\x0c\xe2\xb9\xae\x84?\xae\x92\x1fL#\x17\xa1?\xb7\x98+R\x99\x11\x84?\xba\xf9\xc7\x1f!4\xa1?\xd8\x03`\xebn\x95\x83?(U\xc3\x8c\xfbu\xa2?-\x85\n\xcf<=\x82?&\xccnQb\xbd\xa2?m\xc2n(\x9c|\x83?O<\xb6\xfc&\x1e\xa0?B\x8dx\x91\x99\xe0\x85?p\xe7i\x87\x99\xd6\xa1?j\x17<.\x8e,\x83?L\xc9\xf5\xfd[\xfc\xa1?J=\xb2B\xb1-\x81?\x86'\xd6\xed\xb3\xf2\xa0?\x9bf\xb8\xb9s\xb9\x83?\x03\xbc\xfeAJ\xb7\xa0?"
p120
tp121
bsS'_num_realizations'
p122
I5
sg22
(lp123
sS'_sum'
p124
g60
(g61
(I0
tp125
g63
tp126
Rp127
(I1
(I48
I1
tp128
g69
I00
S'\xe3?\xafS\x1b\xb4\xa8?\x8f\x0c\x81\x1d\x9e|\xc7?\x9b\x84V\x1b\xd9\xd3\xaa?%\x9c\x8e^\xe5\x13\xc7?1&CU\x0c\x9c\xa6?\xaa\xde\xc8\xa9@m\xc6?\x81\xa0}\xbd\x9a \xac?l=\xe1\xd1\xd8\xa0\xc6?\xcf\x8f\xd9\x98\xfe\x0b\xaa?\x05\x8f:F\x03\xe2\xc5?0\x9a%\x9ai\x19\xab?\xa4o\\\x87\xba\x13\xc5?\xe6s\xf8\x05\xa6)\xab?`Cq\xc9\xbe"\xc7?\xdf\xa4\x14)\xaf\x1a\xa7?\x82\x82\x0b\x81\xbf\x9c\xc5?\xa6L\xd3Y\xf5W\xaa?.\x89\x99R\x8d\x92\xc4?\x03x\x7f\x91Yr\xa7?\xf0\xb7\x93\xbb0\xd5\xc5?\xdf\x13T)M4\xa8?\xac\x85\t}W\x94\xc7?\x14\xd6\'\xae\x18\x13\xab?2~|\xd5\xd7\x18\xc6?\xca\x8a\x86\xb2\x07\xa4\xaa?*\xbc\x04\x1a4\x91\xc6?7\x9f\xed\xf1V\xb2\xa5?\xe16Z\x8c\xdfv\xc5?!\xb5l\xe2\x97\xf2\xa6?X\xac\xa8\x1f\x0e\x01\xc7?\x9b1\x8fZh\xda\xa9?Zw\'\x1f\xec\\\xc5?\xe5~\xb6\xa6\xff\x15\xa9?(\xf8\xb9g)\x81\xc5?\xce\x048\xa6\xcaz\xa8?r*\xf4oz\x13\xc7?x&\xcd\x02\x8c\xcc\xa6?0\x7f\xca\xe5\xbal\xc7?\x08s\x8a2\xc3[\xa8?c\xcb\xe3\xbb\xb0%\xc4?\x93\xb0\xd6\xf5\xbfX\xab?LaD\xe9?L\xc6?D\x1d\xcb\xb9\xb1\xf7\xa7?\x9f;s\xfdr{\xc6?\x9c\xcc^\x93\x1dy\xa5?g\xb1K\xe9`/\xc5?B\x80&\xa8\xd0\xa7\xa8?\x04k~\xd2\x1c\xe5\xc4?'
p129
tp130
bsS'_estimator'
p131
S'analog'
p132
sS'_scores'
p133
(lp134
g76
asg26
I10040
sbsS'total'
p135
g2
(g77
g4
Ntp136
Rp137
(dp138
g81
I1
sg82
S'2 groups'
p139
sg84
(lp140
g2
(g86
g4
Ntp141
Rp142
(dp143
g90
Nsg8
g91
sg28
I7
sg92
I1
sg93
(lp144
I10014
asbag2
(g86
g4
Ntp145
Rp146
(dp147
g90
Nsg8
g98
sg28
I0
sg92
I24
sg93
(lp148
F0.0
aF6.25e-07
aF10.0
asbasg100
g60
(g61
(I0
tp149
g63
tp150
Rp151
(I1
(I48
I1
tp152
g69
I00
S'NN\xe5\x9b\nDQ?\x93Z\xc5n\xe1qh?%\xd3\x99b\xabWS?\x9c\x91\xd6R\x1f\xccf?\xde\x01\xe0\xd0B\x9fK?<\xd2\xe8\'\xff\x07f?\xae\xbd\x89\x00+\xb0U?S\x14\x1aN\xba\xa9h?\\4\xa6X\x1ckR?\x1a_I,\x08if?\xaf\x99:\x97\xfbGS?\x83G\x02\xaa\x0b\xbae?\x1a0\x8a\x16\x87\xd0T?\xe2\x9f\x84_\x0b\xf6f?%Z,$\xe4\xacM?P\x86\xec\xb4\x1c\x85g?\x16\x8a\xf0\x06\x03\x95R?\xe4\xaf^\x7f\xf1\x90b?d\xd5s\x14\x18\x99M?\x15z\x16\xe7\x1c\xfaf?\x1bh\xba\xae\xcaKO?+\x7fBf\xfc5h?\x0c\x9d\xaeY\xf4oS?@\xad\x1e\x07\x90gh?e\xc0\x1f\x9f\x0ceS?>\xd9A\xe3\x91\x91f?VE\x9f,\x08\'J?\x0e\x9a\xa7\x84q\x81e?\x15\x96\x91\xddy\xa0M?,\xe3\xd7\xf6\x13!g?\xeb-/\n\xccTR?\x94@9\xc0\x82\xeae?\xfa\x0e\xfa\xa9\\nQ?CZ\xdf\x97e\x15g?\x05O!W\xeaYP?*\xd9wf\xfe\xa8h?\xa9\xef>\xbf\xd6BL?\xe7\xa1\x198^\x89i?[\x86\x0fW\x943P?U\xf5\x97\x82\xda\x14d?\xcb\xc1K\xf4"\xa8T?\x8e\x06\xc7\x97\x16\x16h?\xfcmO\x90\xd8\xeeN?\xc9\xd0\xca \xebgi?_\xd4(\x03\x8b\xecH?r\xebE\x1f\xb9Vg?kV*f\x8c(P?\x0e\xe2\x1c\xd8\x9e\x17f?'
p153
tp154
bsg107
g60
(g61
(I0
tp155
g63
tp156
Rp157
(I1
(I48
I1
tp158
g69
I00
S"jR\xcb\xdb\xb7\x11p?\xb0\xa0\xf0\xd7\xf2\xaaa?\x91\x13\xf6\xab\x89}d?\x1a\xe3\xe4\x8d\xef\xe0[?s#\xec\x92e\xcah?\x978\x84\xc8\xd4\xba[?\x97\xe6c\x9b\xab\x95e?\xc3q\x8cb\xf75c?_Q\xd9\x1b4\xf4M?\xa6w\xf6\xe6I\x82a?\xe2\xdb\xcb\xf3?\xb1Y?6\x10\xd9\x96+va?k\xbdg\x03H\xf9g?\xb3\xe3V\xd9 \x11T?\xf87$\xe9\xc6q\\?#b\xfe7B\xcbW?9e\xfa\xc8\x92`g?\x0e\x05\x87\xaa\x03Ff?}\xbb\x9e\x8b\xf2od?<\xbef\x06p\x90X?L\xf2GA\x10CQ?\x18\xe3\x8e\xafh\x1eb?\xff\xd9\xa8\xe3\xd3:b?\x1c\xc7\x0c3\xe01[?\x95\xaf6\xe1R\xa0T?\x15z.qf\x11e?\x83i4\x14\x0c\xe2d?\xc0\x0e\xf9\xf7\xd0F\\?;\x0b\xcc[\x99\x9cY?#C\xfd\xe5\x1d\xc0W?\xbe\x11\x95\x91\x96,^?\xb9\x00\xb8+P\x85a?21\x0b\r\xc1\xd8e?\xcb\xbf:\xf3\xd6\xe1U?|3\xb0\xcaKvZ?\xf78\x9cP\x0c\x0ff?Y*B\xcc\xd23K?\xcag\x91\xddG\xd4l?\xb7\xa5\xde\xa4\x87`l?j;\x00K\x01\x05_?\xfd\xb8\xb0Pw;_?\x93\x90\x90\xb9\xec\xafg?\x1b\xffw\x87\xfcHf?\xd8\xa6]\x9fe]u?\xff\xc5Jd\xdd/Z?\x9f+n\xe1\xb0\x9fa?\xd9\x80\xa7K\x04\x90^?,\xfc\xe2\x14'wf?"
p159
tp160
bsg114
I48
sg115
g60
(g61
(I0
tp161
g63
tp162
Rp163
(I1
(I48
I1
tp164
g69
I00
S"\xee=\\r\xdc)\x8d?+\xb7\xb4\x1a\x12\xf7\x98?\xe3\xe4~\x87\xa2@\x8f?9\x9c\xf9\xd5\x1c \x98?-C\x1c\xeb\xe26\x8a?-+MJA\xb7\x97?\xcep\x03>?\x8c\x90?p\xd3\x9f\xfdH\x11\x99?\x03\xad\xc0\x90\xd5\xad\x8e?\xd8*\xc1\xe2p\xe6\x97?K\xc8\x07=\x9bU\x8f?\x7f+\xd9\xb1\x11\x88\x97?uq\x1b\r\xe0-\x90?{\xb8\xe4\xb8S:\x98?S\x96!\x8euq\x8b?k\xd4C4\xba\x83\x98?\xe6Ws\x80`\x8e\x8e?\xa2g\xb3\xeas\xb5\x95?\x80\xcf\x0f#\x84G\x8b?{\xb8\xe4\xb8S:\x98?mxz\xa5,C\x8c?\x0fbg\n\x9d\xd7\x98?\x00:\xcc\x97\x17`\x8f?,\xb7\xb4\x1a\x12\xf7\x98?j\x1dUM\x10u\x8f?g\xd5\xe7j+\xf6\x97?\x99\x99\x99\x99\x99\x99\x89?=\x0f\xee\xce\xdam\x97?S\x96!\x8euq\x8b?\xe5\x9bmnLO\x98?2\xe6\xae%\xe4\x83\x8e?\xc3G\xc4\x94H\xa2\x97?\xb0 \xcdX4\x9d\x8d?\nc\x0bA\x0eJ\x98?J\xb08\x9c\xf9\xd5\x8c?\x95\x9a=\xd0\n\x0c\x99?s^c\x97\xa8\xde\x8a?\xc8\xd2\x87.\xa8o\x99?\xd5[\x03[%X\x8c?\xfde\xf7\xe4a\xa1\x96?P\xaa}:\x1e3\x90?\xcbE|'f\xbd\x98?`\x07\xce\x19Q\xda\x8b?faO;\xfc5\x99?\xd8\xb6(\xb3A&\x89?N\x7f\xf6#Ed\x98?\xc5wb\xd6\x8b\xa1\x8c?R\xf2\xea\x1c\x03\xb2\x97?"
p165
tp166
bsg122
I5
sg22
(lp167
sg124
g60
(g61
(I0
tp168
g63
tp169
Rp170
(I1
(I48
I1
tp171
g69
I00
S'\xb5\xa6y\xc7):\xb2?\xf6\xe4a\xa1\xd64\xbf?\x0eO\xaf\x94e\x88\xb3?G\x03x\x0b$(\xbe?\xfc\xa9\xf1\xd2Mb\xb0?\xf8u\xe0\x9c\x11\xa5\xbd?\x01M\x84\rO\xaf\xb4?L\xc8\x07=\x9bU\xbf?"lxz\xa5,\xb3?\x8euq\x1b\r\xe0\xbd?/\xdd$\x06\x81\x95\xb3?_vO\x1e\x16j\xbd?\xd2Mb\x10X9\xb4?\x9a\xe6\x1d\xa7\xe8H\xbe?\xf4\xfd\xd4x\xe9&\xb1?\x86\xc9T\xc1\xa8\xa4\xbe?\xf0\x16HP\xfc\x18\xb3?\x8aA`\xe5\xd0"\xbb?\xb0\xe1\xe9\x95\xb2\x0c\xb1?\x9a\xe6\x1d\xa7\xe8H\xbe?D\x8bl\xe7\xfb\xa9\xb1?\x93:\x01M\x84\r\xbf?@\xa4\xdf\xbe\x0e\x9c\xb3?\xf7\xe4a\xa1\xd64\xbf?b2U0*\xa9\xb3?\xc1\xca\xa1E\xb6\xf3\xbd?\xff\xff\xff\xff\xff\xff\xaf?\x0c\x93\xa9\x82QI\xbd?\xf4\xfd\xd4x\xe9&\xb1?\xde\x02\t\x8a\x1fc\xbe?\xdfO\x8d\x97n\x12\xb3?\xb4Y\xf5\xb9\xda\x8a\xbd?n4\x80\xb7@\x82\xb2?\xcd;N\xd1\x91\\\xbe?.n\xa3\x01\xbc\x05\xb2?:\x01M\x84\rO\xbf?\x08\x1b\x9e^)\xcb\xb0?z\xc7):\x92\xcb\xbf?e\x19\xe2X\x17\xb7\xb1?|?5^\xbaI\xbc?\xe4\x14\x1d\xc9\xe5?\xb4?>W[\xb1\xbf\xec\xbe?\x9c\xc4 \xb0rh\xb1?\xc09#J{\x83\xbf?\x8e\xe4\xf2\x1f\xd2o\xaf?!\x1f\xf4lV}\xbe?\xdb\x8a\xfde\xf7\xe4\xb1?\xe6\xae%\xe4\x83\x9e\xbd?'
p172
tp173
bsg131
g132
sg133
(lp174
g135
asg26
I10041
sbsS'scatter-1'
p175
g2
(g77
g4
Ntp176
Rp177
(dp178
g81
I1
sg82
S'2 groups'
p179
sg84
(lp180
g2
(g86
g4
Ntp181
Rp182
(dp183
g90
Nsg8
g91
sg28
I7
sg92
I1
sg93
(lp184
I10014
asbag2
(g86
g4
Ntp185
Rp186
(dp187
g90
Nsg8
g98
sg28
I0
sg92
I24
sg93
(lp188
F0.0
aF6.25e-07
aF10.0
asbasg100
g60
(g61
(I0
tp189
g63
tp190
Rp191
(I1
(I48
I1
tp192
g69
I00
S'\xfc`F\x9d\xa0\xe2$?\x80g\x8am7CP?F}\x83\x96_\x80&?\xa0\xfb\xd5\x01\'\xefO?t\x89\x01\xdes\xfe\x1d?\x8d\xe8\x84T\x9a\x96O?\xab\x94\x9b\x8a\x9f\xbd)?\x01@\xaf\xcfBxQ?\x03)m\xacTW$?A\xcd\xce\xed\x11\x80O?\xd6\x80\x11\x03\x85\x01(?\x08x\x19\xda\xb5SM?\xcd\x87d\xee\x9f\x97*?^\x85\xdc\xb7I\x11P?\xda\xbb\'\xa1z  ?\x14=\xf2.X~P?\xdd\x86\x96%[\x13(?JZ>\xc0\xcd_J?\xec\x8a\x85\xf5\xe6X#?y:\xb8M\x1c\x06P?c+oN\x1dT#?\xab\x17\xe8\xa9\xb9\xe1P?\xe5\xdd\x81\xae\x8fz(?\x96\xffD\rU\xd8P?\xa5\x84(\xe5\x88e&?\x9a?)\xba\xa0\x07P?o\x11\xf4\xda\xc6\x04 ?\xff\'4\xc2\xaa\xa5M?,\xbbM\x9b\xa8\xbe"?\xc6\xba\xfcAs\xdaP?\xa6#\x83\xf1\x18\xdd\'?\xcc\xdc\xc1\x12l\xa3N?`\x9f1\xb4\x99\xd5"?m{Y\x19\x0bNP?\x9f0\x07q\x9a,"?E\xf7\xad<\x805Q?\x95EG\x13\r\xb1\x19?\x00\xce]\x03\x88\xceP?\xcd\xa6Y\xa2N\xb6!?l\x8e\xea\xc6\xa9\x9cK?N]T!\x9b\x02%?\xbc\x95\x13S\xf5\x8fP?C0\x81\xc237#?l3?\x1b+xQ?N<\xef/p1\x1c?\xfc\xca:q\xeapO?\xe8j\xda\x112\x82!?\xdc*.\x18aqO?'
p193
tp194
bsg107
g60
(g61
(I0
tp195
g63
tp196
Rp197
(I1
(I48
I1
tp198
g69
I00
S'\xf3^+ad#T?\xdb\xa8\xac\xa8"\xf7L?\xd1)\x15Z\xb1\xd0W?\xbdy\x81\xfd\xfeOQ?\xfd@7)@\xab[?j\xd2\xa2kQ\xf4L?\x1e\xc0\xcf|7\xceI?UZ\xab\xed\x18?]?\x86\x80\xfaL\x01rL?\xaa"C=\xca\xa1S?y\xbed6:\x00Q?U\x1a\x9b\xd7\xb4W`?\x94IDd\xe8\xfe^?\\\x8a\xffHc\xbfB?;\x03\xd2\x8bL_I?<s\x85U\xf1\x85W?\xbbD\xf3\x8160W?\xa9\xc5\xa4\xc29;Z?\x86^\xf0\xcf\xcd\x84R?\xee_\x1eX\xf3\xdeZ?\xc9\xaf\x06\xcb\x10BC?\xf0+\xb5>\x00\xb6T?lH\xe9{\xc4}H?\x03\xd5tF\xab\x11Y?5\xc5W\xe5>\xc8K?\xf6S\xa9= OY?\nOZ\x8ccAG?G\x06\x90;IIS?\xea,\xee+\x06%I?\xe57\xad\x1e\x0f\xddS?\xa3\xb0Q\x99\xcf\xd6W?\x9e\xf0\x04\x8e\x9b6Y?\x88\xdb1\xe7\xb1"W?\xfb\x82\xa2\xe2\x07c@?/\xe2\xaa\x82\x16\xa8??j4XX\x1c<Z?\xd0\x96\xe8\xd5dRJ?\x0e\x80\xfc\xcf\x07d[?\x99\xcc\xac\x9d\x7f\xd1X?NN\x80\xb9\x15\xdaQ?\x9a\xee\x13GD\xa9H?\xb8\x12}\xe6*\xa5_?6\xf9[z2\xb6V?\xb2*\xf6$\x88\x88g?\x98\x12\x02n3\xebL?\xdcl\x92\x19\xd4j_?\xbc\xddT\xb0\x91hR?\xd1\xa6\x08U%\xa6V?'
p199
tp200
bsg114
I48
sg115
g60
(g61
(I0
tp201
g63
tp202
Rp203
(I1
(I48
I1
tp204
g69
I00
S'n\xbc\x81v+\xd6v?v\xbf\x1a\xc7y\xd3\x8c?"\xf4\xe1pN\x9dw?\xe2\xa3\xf8\xe4\xb8\x8c\x8c?\xc5\x19o\x0f%\xf3r?r\xb5(\x005h\x8c?\xf0<\xbd\x0b\x9c\x90y?\xaa\xd3\xb4\xcc\x8d\xca\x8d?:\xc7\xb6\x94\xe5\xacv?\xa0\xe9\xa9\x8c\x9cW\x8c?*D\x9e\x17\xb2\x99x?J\x85\x16\xf6\xde=\x8b?\xc2\xdf\xd5\xa3\xc2|y?\x8b\'Z\x01j\xab\x8c?-\xf2$\x84\x970t?\xee\x16\x0e\xf9\x81\xfb\x8c?\x10\xab\xe3\xf7\xedxx?j\xc1\x05\xcdl\xe0\x89?\x02\x92\xe4j\xfa\x00v?\xd6\x03\x9d&g\x8a\x8c?\x90>R\xf29-v?u\xc9o\x9d-W\x8d?\xf8\rj\xfa\x8e\xefx?\xa3\x004\x05\xe9G\x8d?X\xd9\x08\x01S\xd0w?Vc\x83\xd7\xb9\x8e\x8c?2\xd9\x93?N$t?\xe5\xbb\xcb\x9a\x9b~\x8b?\x1f)\x14\x98\xdc\xc9u?z\xafF\x89\x0bR\x8d?\x1a\xca,\xbbDWx?\xb2W\x87\xee\xf7\xe9\x8b?S^\xe9\xeb*\x8fu?\x98]\x92\xe95\xe2\x8c?\xde\xa8\x7f^\xd3\x85u?U\xfbj\xd8\xd4\x96\x8d?\x91\x83/\xd5\x8e\xfaq?C\xc6\x03r\x03;\x8d?.\x8co\xbe\xcf\xd1t?\xa0\xb5\xe4]\xcf\x89\x8a?\xaa9;3\xd4\x15w?\x06;\x97r\x05\xfb\x8c?{\x08j\xf8\x83\xccu?Rp\x94\xcd\xf3\x9a\x8d?\xa2\x8e\xb2\xb1;\xd1r?\xcb\xee7\x1e\xae:\x8c?\xde:\x12\x0f\xf8\xe8t?\x82\xd0\xea\x0fLL\x8c?'
p205
tp206
bsg122
I5
sg22
(lp207
sg124
g60
(g61
(I0
tp208
g63
tp209
Rp210
(I1
(I48
I1
tp211
g69
I00
S'\x89+"T\xb6\x8b\x9c?\xaa\xb7p\x1c,\x04\xb2?*q\x1a\r\xa2\x84\x9d?mf\x1b\x8f\xf3\xd7\xb1?6\xe0JS\xee\xaf\x97?gq\x19 !\xc1\xb1?,\x8c\xac\x0e\xc3\xf4\x9f?J\x04\xf1\x9f\x98\x9e\xb2?\x08y\xe4\xf9\x1eX\x9c?\x042\xea\xd7\xc1\xb6\xb1?4\xd5\x85\x9d\x1e\xc0\x9e?N\x13\xceY\xab\x06\xb1?\xb2W\xcbL\xf3\xdb\x9f?\xb7X\xd8@"\xeb\xb1?\xb8..e\xbd<\x99?U\xce\xa8;1\x1d\xb2?\xd4\x95\xdcu)\x97\x9e?\xe2\x98#\x00D,\xb0?\x83\xb6\x9d\x059\x81\x9b?f""x\x80\xd6\xb1?4\xce\xe6n\x88\xb8\x9b?\xe9\xdde\x82|V\xb2?v\x91\x04\xb9r+\x9f?f\x80@\xa3\xf1L\xb2?\xae\x0fK\xc1g\xc4\x9d?\x16\x1e\xb2&4\xd9\xb1?\x7f\xcfx\xcfa-\x99?oU\xbf@!/\xb1?g3\x19\xbeS<\x9b?\xac-\xcc5GS\xb2?\xa0\xfc\xf7\xe9\x15m\x9e?\xcf\x96\x14\xf5:r\xb1?\xe8\xb5\xe3\xa6\xf5\xf2\x9a?\x7fz\xfb\xb1a\r\xb2?\x16\x93\x1f6H\xe7\x9a?\x15\xddB\x07E~\xb2?ud{\x8a2y\x96?\xea[B\'\xe2D\xb2?9o\x0b\xaeC\x06\x9a?\x84\xf1\xae\x9a!\x96\xb0?\x14\x08\n@I\xdb\x9c?\xe4\x84\x9eg\xe3\x1c\xb2?\x9a\x8a\x84\xf6\xa4?\x9b?3\xc6|`\xd8\x80\xb2?K2\x1f\x9e\x8a\x85\x97??\xf5\xe2\xd2\xac\xa4\xb1?\x96\xc9\xd6\x126#\x9a?Q\xc2\xf2\x89\xaf\xaf\xb1?'
p212
tp213
bsg131
g132
sg133
(lp214
S'scatter-1'
p215
asg26
I10042
sbssS'subdomain offsets'
p216
(dp217
I389
g48
(g52
S'\t\x00\x00\x00\x00\x00\x00\x00'
p218
tp219
Rp220
sI776
g48
(g52
S'\x11\x00\x00\x00\x00\x00\x00\x00'
p221
tp222
Rp223
sI787
g48
(g52
S'\x12\x00\x00\x00\x00\x00\x00\x00'
p224
tp225
Rp226
sI917
g48
(g52
S'\x14\x00\x00\x00\x00\x00\x00\x00'
p227
tp228
Rp229
sI158
g48
(g52
S'\x00\x00\x00\x00\x00\x00\x00\x00'
p230
tp231
Rp232
sI544
g48
(g52
S'\n\x00\x00\x00\x00\x00\x00\x00'
p233
tp234
Rp235
sI169
g48
(g52
S'\x01\x00\x00\x00\x00\x00\x00\x00'
p236
tp237
Rp238
sI555
g48
(g52
S'\x0b\x00\x00\x00\x00\x00\x00\x00'
p239
tp240
Rp241
sI180
g48
(g52
S'\x02\x00\x00\x00\x00\x00\x00\x00'
p242
tp243
Rp244
sI952
g48
(g52
S'\x15\x00\x00\x00\x00\x00\x00\x00'
p245
tp246
Rp247
sI577
g48
(g52
S'\x0c\x00\x00\x00\x00\x00\x00\x00'
p248
tp249
Rp250
sI963
g48
(g52
S'\x16\x00\x00\x00\x00\x00\x00\x00'
p251
tp252
Rp253
sI588
g48
(g52
S'\r\x00\x00\x00\x00\x00\x00\x00'
p254
tp255
Rp256
sI974
g48
(g52
S'\x17\x00\x00\x00\x00\x00\x00\x00'
p257
tp258
Rp259
sI215
g48
(g52
S'\x03\x00\x00\x00\x00\x00\x00\x00'
p260
tp261
Rp262
sI345
g48
(g52
S'\x05\x00\x00\x00\x00\x00\x00\x00'
p263
tp264
Rp265
sI356
g48
(g52
S'\x06\x00\x00\x00\x00\x00\x00\x00'
p266
tp267
Rp268
sI743
g48
(g52
S'\x0e\x00\x00\x00\x00\x00\x00\x00'
p269
tp270
Rp271
sI878
g48
(g52
S'\x13\x00\x00\x00\x00\x00\x00\x00'
p272
tp273
Rp274
sI367
g48
(g52
S'\x07\x00\x00\x00\x00\x00\x00\x00'
p275
tp276
Rp277
sI754
g48
(g52
S'\x0f\x00\x00\x00\x00\x00\x00\x00'
p278
tp279
Rp280
sI378
g48
(g52
S'\x08\x00\x00\x00\x00\x00\x00\x00'
p281
tp282
Rp283
sI765
g48
(g52
S'\x10\x00\x00\x00\x00\x00\x00\x00'
p284
tp285
Rp286
sI254
g48
(g52
S'\x04\x00\x00\x00\x00\x00\x00\x00'
p287
tp288
Rp289
ssS'offset'
p290
I7
sS'domain type'
p291
g91
sS'xs'
p292
g60
(g61
(I0
tp293
g63
tp294
Rp295
(I1
(I24
I2
tp296
g49
(S'O8'
p297
I0
I1
tp298
Rp299
(I3
S'|'
p300
NNNI-1
I-1
I63
tp301
bI00
(lp302
g2
(cuncertainties
AffineScalarFunc
p303
g4
Ntp304
Rp305
(dp306
S'_nominal_value'
p307
F0.2807983389684571
sS'derivatives'
p308
(dp309
g2
(cuncertainties
Variable
p310
g4
Ntp311
Rp312
(dp313
g307
F0.024379999999999995
sS'_std_dev'
p314
g2
(cuncertainties
CallableStdDev
p315
c__builtin__
float
p316
F0.0021567099606905824
tp317
Rp318
sS'tag'
p319
Nsg308
(dp320
g312
F1.0
ssbF27.24936290190583
sg2
(g310
g4
Ntp321
Rp322
(dp323
g307
F0.01407523287647881
sg314
g2
(g315
g316
F0.0008839530213198514
tp324
Rp325
sg319
Nsg308
(dp326
g322
F1.0
ssbF-27.24936290190583
sg2
(g310
g4
Ntp327
Rp328
(dp329
g307
F0.03669810569883304
sg314
g2
(g315
g316
F0.005042795035563545
tp330
Rp331
sg319
Nsg308
(dp332
g328
F1.0
ssbF-7.651575840803852
ssbag2
(g303
g4
Ntp333
Rp334
(dp335
g307
F0.8979086719631678
sg308
(dp336
g2
(g310
g4
Ntp337
Rp338
(dp339
g307
F0.01424
sg314
g2
(g315
g316
F0.003923147389930473
tp340
Rp341
sg319
Nsg308
(dp342
g338
F1.0
ssbF103.62886433695577
sg2
(g310
g4
Ntp343
Rp344
(dp345
g307
F0.005575341965694409
sg314
g2
(g315
g316
F0.001229141261026298
tp346
Rp347
sg319
Nsg308
(dp348
g344
F1.0
ssbF-103.62886433695577
sg2
(g310
g4
Ntp349
Rp350
(dp351
g307
F0.00964982108409909
sg314
g2
(g315
g316
F0.0027206521668670033
tp352
Rp353
sg319
Nsg308
(dp354
g350
F1.0
ssbF-93.04925595384724
ssbag2
(g303
g4
Ntp355
Rp356
(dp357
g307
F0.26677766597801256
sg308
(dp358
g2
(g310
g4
Ntp359
Rp360
(dp361
g307
F0.02356
sg314
g2
(g315
g316
F0.0017015780827717764
tp362
Rp363
sg319
Nsg308
(dp364
g360
F1.0
ssbF27.732377265768292
sg2
(g310
g4
Ntp365
Rp366
(dp367
g307
F0.013940281379364042
sg314
g2
(g315
g316
F0.001056670202181572
tp368
Rp369
sg319
Nsg308
(dp370
g366
F1.0
ssbF-27.732377265768292
sg2
(g310
g4
Ntp371
Rp372
(dp373
g307
F0.03605893538864982
sg314
g2
(g315
g316
F0.005337717996284797
tp374
Rp375
sg319
Nsg308
(dp376
g372
F1.0
ssbF-7.398378878983362
ssbag2
(g303
g4
Ntp377
Rp378
(dp379
g307
F0.9060301024837041
sg308
(dp380
g2
(g310
g4
Ntp381
Rp382
(dp383
g307
F0.015260000000000001
sg314
g2
(g315
g316
F0.0025012673283435
tp384
Rp385
sg319
Nsg308
(dp386
g382
F1.0
ssbF95.42435898354296
sg2
(g310
g4
Ntp387
Rp388
(dp389
g307
F0.0057652534579775445
sg314
g2
(g315
g316
F0.0014535648300176738
tp390
Rp391
sg319
Nsg308
(dp392
g388
F1.0
ssbF-95.42435898354296
sg2
(g310
g4
Ntp393
Rp394
(dp395
g307
F0.010479504506521879
sg314
g2
(g315
g316
F0.0017705985861268586
tp396
Rp397
sg319
Nsg308
(dp398
g394
F1.0
ssbF-86.4573417493012
ssbag2
(g303
g4
Ntp399
Rp400
(dp401
g307
F0.26509366691849323
sg308
(dp402
g2
(g310
g4
Ntp403
Rp404
(dp405
g307
F0.023160000000000004
sg314
g2
(g315
g316
F0.0016924932443234447
tp406
Rp407
sg319
Nsg308
(dp408
g404
F1.0
ssbF28.53732655225191
sg2
(g310
g4
Ntp409
Rp410
(dp411
g307
F0.013870634143212188
sg314
g2
(g315
g316
F0.0008836171685034481
tp412
Rp413
sg319
Nsg308
(dp414
g410
F1.0
ssbF-28.53732655225191
sg2
(g310
g4
Ntp415
Rp416
(dp417
g307
F0.03504182489445876
sg314
g2
(g315
g316
F0.004527352151710339
tp418
Rp419
sg319
Nsg308
(dp420
g416
F1.0
ssbF-7.56506453978694
ssbag2
(g303
g4
Ntp421
Rp422
(dp423
g307
F0.9254661256950926
sg308
(dp424
g2
(g310
g4
Ntp425
Rp426
(dp427
g307
F0.0128
sg314
g2
(g315
g316
F0.0030261978021183743
tp428
Rp429
sg319
Nsg308
(dp430
g426
F1.0
ssbF113.22642453417956
sg2
(g310
g4
Ntp431
Rp432
(dp433
g307
F0.004626412169221832
sg314
g2
(g315
g316
F0.0016887785503634783
tp434
Rp435
sg319
Nsg308
(dp436
g432
F1.0
ssbF-113.22642453417956
sg2
(g310
g4
Ntp437
Rp438
(dp439
g307
F0.008831860620116384
sg314
g2
(g315
g316
F0.0020389808024518868
tp440
Rp441
sg319
Nsg308
(dp442
g438
F1.0
ssbF-104.78722043995494
ssbag2
(g303
g4
Ntp443
Rp444
(dp445
g307
F0.28095082056976994
sg308
(dp446
g2
(g310
g4
Ntp447
Rp448
(dp449
g307
F0.024480000000000002
sg314
g2
(g315
g316
F0.0023450690972721413
tp450
Rp451
sg319
Nsg308
(dp452
g448
F1.0
ssbF28.283157028504846
sg2
(g310
g4
Ntp453
Rp454
(dp455
g307
F0.014546497163431333
sg314
g2
(g315
g316
F0.001785063118111237
tp456
Rp457
sg319
Nsg308
(dp458
g454
F1.0
ssbF-28.283157028504846
sg2
(g310
g4
Ntp459
Rp460
(dp461
g307
F0.035356731887892213
sg314
g2
(g315
g316
F0.004424306906452702
tp462
Rp463
sg319
Nsg308
(dp464
g460
F1.0
ssbF-7.946176175462092
ssbag2
(g303
g4
Ntp465
Rp466
(dp467
g307
F0.9027348565371232
sg308
(dp468
g2
(g310
g4
Ntp469
Rp470
(dp471
g307
F0.01616
sg314
g2
(g315
g316
F0.002634844942005564
tp472
Rp473
sg319
Nsg308
(dp474
g470
F1.0
ssbF91.01458137241887
sg2
(g310
g4
Ntp475
Rp476
(dp477
g307
F0.006241426042677065
sg314
g2
(g315
g316
F0.0007875224051741047
tp478
Rp479
sg319
Nsg308
(dp480
g476
F1.0
ssbF-91.01458137241887
sg2
(g310
g4
Ntp481
Rp482
(dp483
g307
F0.010987250448454413
sg314
g2
(g315
g316
F0.001997043693897933
tp484
Rp485
sg319
Nsg308
(dp486
g482
F1.0
ssbF-82.16203505801688
ssbag2
(g303
g4
Ntp487
Rp488
(dp489
g307
F0.2778728035493823
sg308
(dp490
g2
(g310
g4
Ntp491
Rp492
(dp493
g307
F0.02334
sg314
g2
(g315
g316
F0.0021373217966375755
tp494
Rp495
sg319
Nsg308
(dp496
g492
F1.0
ssbF29.24663083277248
sg2
(g310
g4
Ntp497
Rp498
(dp499
g307
F0.013838980715480897
sg314
g2
(g315
g316
F0.0011982417100161826
tp500
Rp501
sg319
Nsg308
(dp502
g498
F1.0
ssbF-29.24663083277248
sg2
(g310
g4
Ntp503
Rp504
(dp505
g307
F0.034191972597385274
sg314
g2
(g315
g316
F0.003857127725421805
tp506
Rp507
sg319
Nsg308
(dp508
g504
F1.0
ssbF-8.126843303876296
ssbag2
(g303
g4
Ntp509
Rp510
(dp511
g307
F0.9281999679723811
sg308
(dp512
g2
(g310
g4
Ntp513
Rp514
(dp515
g307
F0.014979999999999999
sg314
g2
(g315
g316
F0.0009141210973191808
tp516
Rp517
sg319
Nsg308
(dp518
g514
F1.0
ssbF98.28442390790991
sg2
(g310
g4
Ntp519
Rp520
(dp521
g307
F0.005535980987973416
sg314
g2
(g315
g316
F0.0008680826521931951
tp522
Rp523
sg319
Nsg308
(dp524
g520
F1.0
ssbF-98.28442390790991
sg2
(g310
g4
Ntp525
Rp526
(dp527
g307
F0.010174552184758955
sg314
g2
(g315
g316
F0.0008609733609766473
tp528
Rp529
sg319
Nsg308
(dp530
g526
F1.0
ssbF-91.22759912350593
ssbag2
(g303
g4
Ntp531
Rp532
(dp533
g307
F0.2938821871534618
sg308
(dp534
g2
(g310
g4
Ntp535
Rp536
(dp537
g307
F0.022979999999999997
sg314
g2
(g315
g316
F0.0021315432884723385
tp538
Rp539
sg319
Nsg308
(dp540
g536
F1.0
ssbF30.36475910805115
sg2
(g310
g4
Ntp541
Rp542
(dp543
g307
F0.013301603207596675
sg314
g2
(g315
g316
F0.001994946677629709
tp544
Rp545
sg319
Nsg308
(dp546
g542
F1.0
ssbF-30.36475910805115
sg2
(g310
g4
Ntp547
Rp548
(dp549
g307
F0.0329329139889291
sg314
g2
(g315
g316
F0.0030577380271592475
tp550
Rp551
sg319
Nsg308
(dp552
g548
F1.0
ssbF-8.923661819062072
ssbag2
(g303
g4
Ntp553
Rp554
(dp555
g307
F0.8779855885922779
sg308
(dp556
g2
(g310
g4
Ntp557
Rp558
(dp559
g307
F0.0153
sg314
g2
(g315
g316
F0.001568138554999037
tp560
Rp561
sg319
Nsg308
(dp562
g558
F1.0
ssbF94.46749767462852
sg2
(g310
g4
Ntp563
Rp564
(dp565
g307
F0.006005950615773728
sg314
g2
(g315
g316
F0.0010376518708418421
tp566
Rp567
sg319
Nsg308
(dp568
g564
F1.0
ssbF-94.46749767462852
sg2
(g310
g4
Ntp569
Rp570
(dp571
g307
F0.010585651410438213
sg314
g2
(g315
g316
F0.000787677473191861
tp572
Rp573
sg319
Nsg308
(dp574
g570
F1.0
ssbF-82.94110154869837
ssbag2
(g303
g4
Ntp575
Rp576
(dp577
g307
F0.26725571153170674
sg308
(dp578
g2
(g310
g4
Ntp579
Rp580
(dp581
g307
F0.023659999999999997
sg314
g2
(g315
g316
F0.0012247868338432887
tp582
Rp583
sg319
Nsg308
(dp584
g580
F1.0
ssbF27.66284767833054
sg2
(g310
g4
Ntp585
Rp586
(dp587
g307
F0.013998821417107418
sg314
g2
(g315
g316
F0.000572131613804604
tp588
Rp589
sg319
Nsg308
(dp590
g586
F1.0
ssbF-27.66284767833054
sg2
(g310
g4
Ntp591
Rp592
(dp593
g307
F0.036149568245041584
sg314
g2
(g315
g316
F0.002786134147996588
tp594
Rp595
sg319
Nsg308
(dp596
g592
F1.0
ssbF-7.393054039265449
ssbag2
(g303
g4
Ntp597
Rp598
(dp599
g307
F0.9026502819221498
sg308
(dp600
g2
(g310
g4
Ntp601
Rp602
(dp603
g307
F0.015799999999999998
sg314
g2
(g315
g316
F0.0029264837751196613
tp604
Rp605
sg319
Nsg308
(dp606
g602
F1.0
ssbF94.24692624372173
sg2
(g310
g4
Ntp607
Rp608
(dp609
g307
F0.006222496330671791
sg314
g2
(g315
g316
F0.001891829438197411
tp610
Rp611
sg319
Nsg308
(dp612
g608
F1.0
ssbF-94.24692624372173
sg2
(g310
g4
Ntp613
Rp614
(dp615
g307
F0.010610425611271488
sg314
g2
(g315
g316
F0.001873933457258674
tp616
Rp617
sg319
Nsg308
(dp618
g614
F1.0
ssbF-85.07201454419148
ssbag2
(g303
g4
Ntp619
Rp620
(dp621
g307
F0.28986200410733176
sg308
(dp622
g2
(g310
g4
Ntp623
Rp624
(dp625
g307
F0.02394
sg314
g2
(g315
g316
F0.001452269236301381
tp626
Rp627
sg319
Nsg308
(dp628
g624
F1.0
ssbF29.612770749676454
sg2
(g310
g4
Ntp629
Rp630
(dp631
g307
F0.014151587880188523
sg314
g2
(g315
g316
F0.0014357430246356292
tp632
Rp633
sg319
Nsg308
(dp634
g630
F1.0
ssbF-29.612770749676454
sg2
(g310
g4
Ntp635
Rp636
(dp637
g307
F0.03376921425060929
sg314
g2
(g315
g316
F0.001611073947278346
tp638
Rp639
sg319
Nsg308
(dp640
g636
F1.0
ssbF-8.58361707667219
ssbag2
(g303
g4
Ntp641
Rp642
(dp643
g307
F0.9385884149323628
sg308
(dp644
g2
(g310
g4
Ntp645
Rp646
(dp647
g307
F0.0134
sg314
g2
(g315
g316
F0.0017361109244720101
tp648
Rp649
sg319
Nsg308
(dp650
g646
F1.0
ssbF110.80219595130549
sg2
(g310
g4
Ntp651
Rp652
(dp653
g307
F0.004929153308975515
sg314
g2
(g315
g316
F0.0007742999802219161
tp654
Rp655
sg319
Nsg308
(dp656
g652
F1.0
ssbF-110.80219595130549
sg2
(g310
g4
Ntp657
Rp658
(dp659
g307
F0.009025091889329272
sg314
g2
(g315
g316
F0.0011022588194381693
tp660
Rp661
sg319
Nsg308
(dp662
g658
F1.0
ssbF-103.9976574689609
ssbag2
(g303
g4
Ntp663
Rp664
(dp665
g307
F0.26645045474702983
sg308
(dp666
g2
(g310
g4
Ntp667
Rp668
(dp669
g307
F0.021200000000000004
sg314
g2
(g315
g316
F0.002718932304759953
tp670
Rp671
sg319
Nsg308
(dp672
g668
F1.0
ssbF31.10953783522009
sg2
(g310
g4
Ntp673
Rp674
(dp675
g307
F0.012635087973394039
sg314
g2
(g315
g316
F0.0016010345521631864
tp676
Rp677
sg319
Nsg308
(dp678
g674
F1.0
ssbF-31.10953783522009
sg2
(g310
g4
Ntp679
Rp680
(dp681
g307
F0.032144482675916464
sg314
g2
(g315
g316
F0.001989680900600092
tp682
Rp683
sg319
Nsg308
(dp684
g680
F1.0
ssbF-8.289150503164324
ssbag2
(g303
g4
Ntp685
Rp686
(dp687
g307
F0.8692803059150763
sg308
(dp688
g2
(g310
g4
Ntp689
Rp690
(dp691
g307
F0.01492
sg314
g2
(g315
g316
F0.002853666963187476
tp692
Rp693
sg319
Nsg308
(dp694
g690
F1.0
ssbF97.17734910963149
sg2
(g310
g4
Ntp695
Rp696
(dp697
g307
F0.0059747024190339865
sg314
g2
(g315
g316
F0.0014153034497222234
tp698
Rp699
sg319
Nsg308
(dp700
g696
F1.0
ssbF-97.17734910963149
sg2
(g310
g4
Ntp701
Rp702
(dp703
g307
F0.010290463870051045
sg314
g2
(g315
g316
F0.0019150835504268993
tp704
Rp705
sg319
Nsg308
(dp706
g702
F1.0
ssbF-84.47435576203664
ssbag2
(g303
g4
Ntp707
Rp708
(dp709
g307
F0.28505085356025617
sg308
(dp710
g2
(g310
g4
Ntp711
Rp712
(dp713
g307
F0.023659999999999997
sg314
g2
(g315
g316
F0.001499280356806922
tp714
Rp715
sg319
Nsg308
(dp716
g712
F1.0
ssbF29.313726923332183
sg2
(g310
g4
Ntp717
Rp718
(dp719
g307
F0.013935857644925703
sg314
g2
(g315
g316
F0.0016400696190199643
tp720
Rp721
sg319
Nsg308
(dp722
g718
F1.0
ssbF-29.313726923332183
sg2
(g310
g4
Ntp723
Rp724
(dp725
g307
F0.03411371070677651
sg314
g2
(g315
g316
F0.0030927093653430517
tp726
Rp727
sg319
Nsg308
(dp728
g724
F1.0
ssbF-8.3559028805281
ssbag2
(g303
g4
Ntp729
Rp730
(dp731
g307
F0.8677907713330487
sg308
(dp732
g2
(g310
g4
Ntp733
Rp734
(dp735
g307
F0.013319999999999999
sg314
g2
(g315
g316
F0.0024947869505562146
tp736
Rp737
sg319
Nsg308
(dp738
g734
F1.0
ssbF109.18390522015075
sg2
(g310
g4
Ntp739
Rp740
(dp741
g307
F0.005372026628070349
sg314
g2
(g315
g316
F0.0011302957425466677
tp742
Rp743
sg319
Nsg308
(dp744
g740
F1.0
ssbF-109.18390522015075
sg2
(g310
g4
Ntp745
Rp746
(dp747
g307
F0.009158859064288554
sg314
g2
(g315
g316
F0.0017540984242029778
tp748
Rp749
sg319
Nsg308
(dp750
g746
F1.0
ssbF-94.7487853281491
ssbag2
(g303
g4
Ntp751
Rp752
(dp753
g307
F0.26961946234962647
sg308
(dp754
g2
(g310
g4
Ntp755
Rp756
(dp757
g307
F0.02426
sg314
g2
(g315
g316
F0.0022117657321952915
tp758
Rp759
sg319
Nsg308
(dp760
g756
F1.0
ssbF27.142267078363417
sg2
(g310
g4
Ntp761
Rp762
(dp763
g307
F0.014326435439191635
sg314
g2
(g315
g316
F0.0012640955345257741
tp764
Rp765
sg319
Nsg308
(dp766
g762
F1.0
ssbF-27.142267078363417
sg2
(g310
g4
Ntp767
Rp768
(dp769
g307
F0.03684290619913451
sg314
g2
(g315
g316
F0.0043860243044863655
tp770
Rp771
sg319
Nsg308
(dp772
g768
F1.0
ssbF-7.31808345661831
ssbag2
(g303
g4
Ntp773
Rp774
(dp775
g307
F0.8869325688964396
sg308
(dp776
g2
(g310
g4
Ntp777
Rp778
(dp779
g307
F0.013800000000000002
sg314
g2
(g315
g316
F0.0010535868397020419
tp780
Rp781
sg319
Nsg308
(dp782
g778
F1.0
ssbF105.76632033173318
sg2
(g310
g4
Ntp783
Rp784
(dp785
g307
F0.005414224962023831
sg314
g2
(g315
g316
F0.000587709617368309
tp786
Rp787
sg319
Nsg308
(dp788
g784
F1.0
ssbF-105.76632033173318
sg2
(g310
g4
Ntp789
Rp790
(dp791
g307
F0.009454805621142225
sg314
g2
(g315
g316
F0.0005958500559839004
tp792
Rp793
sg319
Nsg308
(dp794
g790
F1.0
ssbF-93.80759419454783
ssbag2
(g303
g4
Ntp795
Rp796
(dp797
g307
F0.2920263514086102
sg308
(dp798
g2
(g310
g4
Ntp799
Rp800
(dp801
g307
F0.02438
sg314
g2
(g315
g316
F0.0016598405311011926
tp802
Rp803
sg319
Nsg308
(dp804
g800
F1.0
ssbF28.963150836297228
sg2
(g310
g4
Ntp805
Rp806
(dp807
g307
F0.014297314139639921
sg314
g2
(g315
g316
F0.001530091534573786
tp808
Rp809
sg319
Nsg308
(dp810
g806
F1.0
ssbF-28.963150836297228
sg2
(g310
g4
Ntp811
Rp812
(dp813
g307
F0.03452663025691179
sg314
g2
(g315
g316
F0.0025268319310667348
tp814
Rp815
sg319
Nsg308
(dp816
g812
F1.0
ssbF-8.458003264021118
ssbag2
(g303
g4
Ntp817
Rp818
(dp819
g307
F0.8729342050000786
sg308
(dp820
g2
(g310
g4
Ntp821
Rp822
(dp823
g307
F0.01532
sg314
g2
(g315
g316
F0.002225316854743697
tp824
Rp825
sg319
Nsg308
(dp826
g822
F1.0
ssbF94.55358308101897
sg2
(g310
g4
Ntp827
Rp828
(dp829
g307
F0.0060878357968507865
sg314
g2
(g315
g316
F0.0007474145311994313
tp830
Rp831
sg319
Nsg308
(dp832
g828
F1.0
ssbF-94.55358308101897
sg2
(g310
g4
Ntp833
Rp834
(dp835
g307
F0.010576013805242496
sg314
g2
(g315
g316
F0.0014583037512797667
tp836
Rp837
sg319
Nsg308
(dp838
g834
F1.0
ssbF-82.53905687673817
ssbag2
(g303
g4
Ntp839
Rp840
(dp841
g307
F0.26816679321961595
sg308
(dp842
g2
(g310
g4
Ntp843
Rp844
(dp845
g307
F0.0234
sg314
g2
(g315
g316
F0.0025717736074988375
tp846
Rp847
sg319
Nsg308
(dp848
g844
F1.0
ssbF28.359741763602575
sg2
(g310
g4
Ntp849
Rp850
(dp851
g307
F0.013944103135530444
sg314
g2
(g315
g316
F0.0015447440006444136
tp852
Rp853
sg319
Nsg308
(dp854
g850
F1.0
ssbF-28.359741763602575
sg2
(g310
g4
Ntp855
Rp856
(dp857
g307
F0.03526125196539761
sg314
g2
(g315
g316
F0.003486569527442408
tp858
Rp859
sg319
Nsg308
(dp860
g856
F1.0
ssbF-7.605141005281718
ssbag2
(g303
g4
Ntp861
Rp862
(dp863
g307
F0.9173166234151161
sg308
(dp864
g2
(g310
g4
Ntp865
Rp866
(dp867
g307
F0.015360000000000002
sg314
g2
(g315
g316
F0.001258927285429733
tp868
Rp869
sg319
Nsg308
(dp870
g866
F1.0
ssbF96.09341798813485
sg2
(g310
g4
Ntp871
Rp872
(dp873
g307
F0.005813907846962195
sg314
g2
(g315
g316
F0.0008478457554571885
tp874
Rp875
sg319
Nsg308
(dp876
g872
F1.0
ssbF-96.09341798813485
sg2
(g310
g4
Ntp877
Rp878
(dp879
g307
F0.010406540020498336
sg314
g2
(g315
g316
F0.0008870284637944845
tp880
Rp881
sg319
Nsg308
(dp882
g878
F1.0
ssbF-88.14808972129325
ssbag2
(g303
g4
Ntp883
Rp884
(dp885
g307
F0.281916285697668
sg308
(dp886
g2
(g310
g4
Ntp887
Rp888
(dp889
g307
F0.02288
sg314
g2
(g315
g316
F0.0017258682927527164
tp890
Rp891
sg319
Nsg308
(dp892
g888
F1.0
ssbF29.816884390661574
sg2
(g310
g4
Ntp893
Rp894
(dp895
g307
F0.013425079022878659
sg314
g2
(g315
g316
F0.0011771407282598222
tp896
Rp897
sg319
Nsg308
(dp898
g894
F1.0
ssbF-29.816884390661574
sg2
(g310
g4
Ntp899
Rp900
(dp901
g307
F0.03353804464939981
sg314
g2
(g315
g316
F0.001951177430312637
tp902
Rp903
sg319
Nsg308
(dp904
g900
F1.0
ssbF-8.405865298492085
ssbag2
(g303
g4
Ntp905
Rp906
(dp907
g307
F0.894671427367569
sg308
(dp908
g2
(g310
g4
Ntp909
Rp910
(dp911
g307
F0.012499999999999999
sg314
g2
(g315
g316
F0.0025491939465044923
tp912
Rp913
sg319
Nsg308
(dp914
g910
F1.0
ssbF117.99062422732507
sg2
(g310
g4
Ntp915
Rp916
(dp917
g307
F0.004917436273208774
sg314
g2
(g315
g316
F0.000709699256463443
tp918
Rp919
sg319
Nsg308
(dp920
g916
F1.0
ssbF-117.99062422732507
sg2
(g310
g4
Ntp921
Rp922
(dp923
g307
F0.00847524967808767
sg314
g2
(g315
g316
F0.001722755811926049
tp924
Rp925
sg319
Nsg308
(dp926
g922
F1.0
ssbF-105.56284019345138
ssbag2
(g303
g4
Ntp927
Rp928
(dp929
g307
F0.2621681191570576
sg308
(dp930
g2
(g310
g4
Ntp931
Rp932
(dp933
g307
F0.02374
sg314
g2
(g315
g316
F0.0014496128059883838
tp934
Rp935
sg319
Nsg308
(dp936
g932
F1.0
ssbF27.82110122156834
sg2
(g310
g4
Ntp937
Rp938
(dp939
g307
F0.01431664478953797
sg314
g2
(g315
g316
F0.0012123725561710094
tp940
Rp941
sg319
Nsg308
(dp942
g938
F1.0
ssbF-27.82110122156834
sg2
(g310
g4
Ntp943
Rp944
(dp945
g307
F0.035943940250098685
sg314
g2
(g315
g316
F0.004271732545708232
tp946
Rp947
sg319
Nsg308
(dp948
g944
F1.0
ssbF-7.29380578013669
ssbag2
(g303
g4
Ntp949
Rp950
(dp951
g307
F0.9014514147637489
sg308
(dp952
g2
(g310
g4
Ntp953
Rp954
(dp955
g307
F0.0134
sg314
g2
(g315
g316
F0.0015632150308994691
tp956
Rp957
sg319
Nsg308
(dp958
g954
F1.0
ssbF111.55836100913795
sg2
(g310
g4
Ntp959
Rp960
(dp961
g307
F0.005319463439500432
sg314
g2
(g315
g316
F0.0007673530707149854
tp962
Rp963
sg319
Nsg308
(dp964
g960
F1.0
ssbF-111.55836100913795
sg2
(g310
g4
Ntp965
Rp966
(dp967
g307
F0.008963917997308047
sg314
g2
(g315
g316
F0.0008302535464726047
tp968
Rp969
sg319
Nsg308
(dp970
g966
F1.0
ssbF-100.56444236041244
ssbag2
(g303
g4
Ntp971
Rp972
(dp973
g307
F0.2831109951357452
sg308
(dp974
g2
(g310
g4
Ntp975
Rp976
(dp977
g307
F0.02308
sg314
g2
(g315
g316
F0.0021387639842488063
tp978
Rp979
sg319
Nsg308
(dp980
g976
F1.0
ssbF29.95837013278689
sg2
(g310
g4
Ntp981
Rp982
(dp983
g307
F0.013629853216951069
sg314
g2
(g315
g316
F0.0015388983811837407
tp984
Rp985
sg319
Nsg308
(dp986
g982
F1.0
ssbF-29.95837013278689
sg2
(g310
g4
Ntp987
Rp988
(dp989
g307
F0.0333796530174245
sg314
g2
(g315
g316
F0.0032225481556678315
tp990
Rp991
sg319
Nsg308
(dp992
g988
F1.0
ssbF-8.481543980938284
ssbag2
(g303
g4
Ntp993
Rp994
(dp995
g307
F0.8869688187694568
sg308
(dp996
g2
(g310
g4
Ntp997
Rp998
(dp999
g307
F0.0149
sg314
g2
(g315
g316
F0.0018416853329919903
tp1000
Rp1001
sg319
Nsg308
(dp1002
g998
F1.0
ssbF99.02079721541496
sg2
(g310
g4
Ntp1003
Rp1004
(dp1005
g307
F0.005942600709021773
sg314
g2
(g315
g316
F0.0014550235112223218
tp1006
Rp1007
sg319
Nsg308
(dp1008
g1004
F1.0
ssbF-99.02079721541496
sg2
(g310
g4
Ntp1009
Rp1010
(dp1011
g307
F0.010098888598367354
sg314
g2
(g315
g316
F0.0014202931156506741
tp1012
Rp1013
sg319
Nsg308
(dp1014
g1010
F1.0
ssbF-87.82835953976652
ssbag2
(g303
g4
Ntp1015
Rp1016
(dp1017
g307
F0.28620303338564845
sg308
(dp1018
g2
(g310
g4
Ntp1019
Rp1020
(dp1021
g307
F0.023719999999999998
sg314
g2
(g315
g316
F0.0013355826494425456
tp1022
Rp1023
sg319
Nsg308
(dp1024
g1020
F1.0
ssbF29.761160119895298
sg2
(g310
g4
Ntp1025
Rp1026
(dp1027
g307
F0.0141033374696196
sg314
g2
(g315
g316
F0.0005000866415408584
tp1028
Rp1029
sg319
Nsg308
(dp1030
g1026
F1.0
ssbF-29.761160119895298
sg2
(g310
g4
Ntp1031
Rp1032
(dp1033
g307
F0.0336008406920771
sg314
g2
(g315
g316
F0.002412556386512245
tp1034
Rp1035
sg319
Nsg308
(dp1036
g1032
F1.0
ssbF-8.517734303390025
ssbag2
(g303
g4
Ntp1037
Rp1038
(dp1039
g307
F0.9384968996776674
sg308
(dp1040
g2
(g310
g4
Ntp1041
Rp1042
(dp1043
g307
F0.01446
sg314
g2
(g315
g316
F0.002666832974091226
tp1044
Rp1045
sg319
Nsg308
(dp1046
g1042
F1.0
ssbF102.04922750439701
sg2
(g310
g4
Ntp1047
Rp1048
(dp1049
g307
F0.005263488447404169
sg314
g2
(g315
g316
F0.0014120805106167828
tp1050
Rp1051
sg319
Nsg308
(dp1052
g1048
F1.0
ssbF-102.04922750439701
sg2
(g310
g4
Ntp1053
Rp1054
(dp1055
g307
F0.009799192257059592
sg314
g2
(g315
g316
F0.0016664939554651506
tp1056
Rp1057
sg319
Nsg308
(dp1058
g1054
F1.0
ssbF-95.77288362737754
ssbag2
(g303
g4
Ntp1059
Rp1060
(dp1061
g307
F0.2776805099886104
sg308
(dp1062
g2
(g310
g4
Ntp1063
Rp1064
(dp1065
g307
F0.02446
sg314
g2
(g315
g316
F0.002692722370631558
tp1066
Rp1067
sg319
Nsg308
(dp1068
g1064
F1.0
ssbF27.734338154136772
sg2
(g310
g4
Ntp1069
Rp1070
(dp1071
g307
F0.01444784436659822
sg314
g2
(g315
g316
F0.0016012455756737828
tp1072
Rp1073
sg319
Nsg308
(dp1074
g1070
F1.0
ssbF-27.734338154136772
sg2
(g310
g4
Ntp1075
Rp1076
(dp1077
g307
F0.03605638593004762
sg314
g2
(g315
g316
F0.0029104536663800066
tp1078
Rp1079
sg319
Nsg308
(dp1080
g1076
F1.0
ssbF-7.701285162837275
ssbag2
(g303
g4
Ntp1081
Rp1082
(dp1083
g307
F0.9229328390593201
sg308
(dp1084
g2
(g310
g4
Ntp1085
Rp1086
(dp1087
g307
F0.014079999999999999
sg314
g2
(g315
g316
F0.001615118041402768
tp1088
Rp1089
sg319
Nsg308
(dp1090
g1086
F1.0
ssbF104.57663856664787
sg2
(g310
g4
Ntp1091
Rp1092
(dp1093
g307
F0.005254579220471648
sg314
g2
(g315
g316
F0.0004830412823753375
tp1094
Rp1095
sg319
Nsg308
(dp1096
g1092
F1.0
ssbF-104.57663856664787
sg2
(g310
g4
Ntp1097
Rp1098
(dp1099
g307
F0.009562365110470525
sg314
g2
(g315
g316
F0.001132753666849836
tp1100
Rp1101
sg319
Nsg308
(dp1102
g1098
F1.0
ssbF-96.51721393159671
ssbag2
(g303
g4
Ntp1103
Rp1104
(dp1105
g307
F0.2887146618828968
sg308
(dp1106
g2
(g310
g4
Ntp1107
Rp1108
(dp1109
g307
F0.02484
sg314
g2
(g315
g316
F0.0035191920874639614
tp1110
Rp1111
sg319
Nsg308
(dp1112
g1108
F1.0
ssbF27.321556601579598
sg2
(g310
g4
Ntp1113
Rp1114
(dp1115
g307
F0.014272715489343507
sg314
g2
(g315
g316
F0.0016717983525680355
tp1116
Rp1117
sg319
Nsg308
(dp1118
g1114
F1.0
ssbF-27.321556601579598
sg2
(g310
g4
Ntp1119
Rp1120
(dp1121
g307
F0.03660113567402616
sg314
g2
(g315
g316
F0.004933229518653418
tp1122
Rp1123
sg319
Nsg308
(dp1124
g1120
F1.0
ssbF-7.88813397633948
ssbag2
(g303
g4
Ntp1125
Rp1126
(dp1127
g307
F0.9803269926298017
sg308
(dp1128
g2
(g310
g4
Ntp1129
Rp1130
(dp1131
g307
F0.013119999999999998
sg314
g2
(g315
g316
F0.0008301524435563964
tp1132
Rp1133
sg319
Nsg308
(dp1134
g1130
F1.0
ssbF112.28557042991257
sg2
(g310
g4
Ntp1135
Rp1136
(dp1137
g307
F0.004389341297582742
sg314
g2
(g315
g316
F0.0008032791482192828
tp1138
Rp1139
sg319
Nsg308
(dp1140
g1136
F1.0
ssbF-112.28557042991257
sg2
(g310
g4
Ntp1141
Rp1142
(dp1143
g307
F0.008905863827126293
sg314
g2
(g315
g316
F0.0005682252673672722
tp1144
Rp1145
sg319
Nsg308
(dp1146
g1142
F1.0
ssbF-110.07657557527797
ssbag2
(g303
g4
Ntp1147
Rp1148
(dp1149
g307
F0.29040098574472956
sg308
(dp1150
g2
(g310
g4
Ntp1151
Rp1152
(dp1153
g307
F0.022099999999999998
sg314
g2
(g315
g316
F0.001893283140819791
tp1154
Rp1155
sg319
Nsg308
(dp1156
g1152
F1.0
ssbF31.766156621033165
sg2
(g310
g4
Ntp1157
Rp1158
(dp1159
g307
F0.012958164265536365
sg314
g2
(g315
g316
F0.001089593139117623
tp1160
Rp1161
sg319
Nsg308
(dp1162
g1158
F1.0
ssbF-31.766156621033165
sg2
(g310
g4
Ntp1163
Rp1164
(dp1165
g307
F0.03148004374372048
sg314
g2
(g315
g316
F0.002596670649083017
tp1166
Rp1167
sg319
Nsg308
(dp1168
g1164
F1.0
ssbF-9.224923196069499
ssbag2
(g303
g4
Ntp1169
Rp1170
(dp1171
g307
F0.9203445804786023
sg308
(dp1172
g2
(g310
g4
Ntp1173
Rp1174
(dp1175
g307
F0.01384
sg314
g2
(g315
g316
F0.0034639977738677124
tp1176
Rp1177
sg319
Nsg308
(dp1178
g1174
F1.0
ssbF105.0970111605597
sg2
(g310
g4
Ntp1179
Rp1180
(dp1181
g307
F0.005082904338425327
sg314
g2
(g315
g316
F0.0015147920846175
tp1182
Rp1183
sg319
Nsg308
(dp1184
g1180
F1.0
ssbF-105.0970111605597
sg2
(g310
g4
Ntp1185
Rp1186
(dp1187
g307
F0.009515018447786983
sg314
g2
(g315
g316
F0.0021369458713001725
tp1188
Rp1189
sg319
Nsg308
(dp1190
g1186
F1.0
ssbF-96.72546464612032
ssbag2
(g303
g4
Ntp1191
Rp1192
(dp1193
g307
F0.2872912625984633
sg308
(dp1194
g2
(g310
g4
Ntp1195
Rp1196
(dp1197
g307
F0.024159999999999997
sg314
g2
(g315
g316
F0.002891504624601701
tp1198
Rp1199
sg319
Nsg308
(dp1200
g1196
F1.0
ssbF28.702318566313025
sg2
(g310
g4
Ntp1201
Rp1202
(dp1203
g307
F0.014150660094768518
sg314
g2
(g315
g316
F0.0019314688633624132
tp1204
Rp1205
sg319
Nsg308
(dp1206
g1202
F1.0
ssbF-28.702318566313025
sg2
(g310
g4
Ntp1207
Rp1208
(dp1209
g307
F0.03484039094924085
sg314
g2
(g315
g316
F0.00509454253617687
tp1210
Rp1211
sg319
Nsg308
(dp1212
g1208
F1.0
ssbF-8.245925340419387
ssbag2
(g303
g4
Ntp1213
Rp1214
(dp1215
g307
F0.9533481814250742
sg308
(dp1216
g2
(g310
g4
Ntp1217
Rp1218
(dp1219
g307
F0.01582
sg314
g2
(g315
g316
F0.0019062676608530553
tp1220
Rp1221
sg319
Nsg308
(dp1222
g1218
F1.0
ssbF93.61282927039039
sg2
(g310
g4
Ntp1223
Rp1224
(dp1225
g307
F0.0056360520427020475
sg314
g2
(g315
g316
F0.0007526000391914923
tp1226
Rp1227
sg319
Nsg308
(dp1228
g1224
F1.0
ssbF-93.61282927039039
sg2
(g310
g4
Ntp1229
Rp1230
(dp1231
g307
F0.010682296516341897
sg314
g2
(g315
g316
F0.0010899110630546275
tp1232
Rp1233
sg319
Nsg308
(dp1234
g1230
F1.0
ssbF-89.24562054298262
ssbag2
(g303
g4
Ntp1235
Rp1236
(dp1237
g307
F0.2893463458407716
sg308
(dp1238
g2
(g310
g4
Ntp1239
Rp1240
(dp1241
g307
F0.024619999999999996
sg314
g2
(g315
g316
F0.005216023409823932
tp1242
Rp1243
sg319
Nsg308
(dp1244
g1240
F1.0
ssbF28.466935399905033
sg2
(g310
g4
Ntp1245
Rp1246
(dp1247
g307
F0.014455704413698953
sg314
g2
(g315
g316
F0.002872720629686875
tp1248
Rp1249
sg319
Nsg308
(dp1250
g1246
F1.0
ssbF-28.466935399905033
sg2
(g310
g4
Ntp1251
Rp1252
(dp1253
g307
F0.03512847399805938
sg314
g2
(g315
g316
F0.00781269797522305
tp1254
Rp1255
sg319
Nsg308
(dp1256
g1252
F1.0
ssbF-8.236803735247827
ssbag2
(g303
g4
Ntp1257
Rp1258
(dp1259
g307
F0.8841825543166438
sg308
(dp1260
g2
(g310
g4
Ntp1261
Rp1262
(dp1263
g307
F0.013600000000000001
sg314
g2
(g315
g316
F0.002720349522633015
tp1264
Rp1265
sg319
Nsg308
(dp1266
g1262
F1.0
ssbF106.81105906417393
sg2
(g310
g4
Ntp1267
Rp1268
(dp1269
g307
F0.005321994313478236
sg314
g2
(g315
g316
F0.0013862126301656514
tp1270
Rp1271
sg319
Nsg308
(dp1272
g1268
F1.0
ssbF-106.81105906417393
sg2
(g310
g4
Ntp1273
Rp1274
(dp1275
g307
F0.009362326417896322
sg314
g2
(g315
g316
F0.0018733745719857735
tp1276
Rp1277
sg319
Nsg308
(dp1278
g1274
F1.0
ssbF-94.4404750326272
ssbag2
(g303
g4
Ntp1279
Rp1280
(dp1281
g307
F0.3031931544939083
sg308
(dp1282
g2
(g310
g4
Ntp1283
Rp1284
(dp1285
g307
F0.02382
sg314
g2
(g315
g316
F0.0021513418864222557
tp1286
Rp1287
sg319
Nsg308
(dp1288
g1284
F1.0
ssbF30.209950899270222
sg2
(g310
g4
Ntp1289
Rp1290
(dp1291
g307
F0.013783798501200725
sg314
g2
(g315
g316
F0.001917559746550882
tp1292
Rp1293
sg319
Nsg308
(dp1294
g1290
F1.0
ssbF-30.209950899270222
sg2
(g310
g4
Ntp1295
Rp1296
(dp1297
g307
F0.03310167578008731
sg314
g2
(g315
g316
F0.005050653460174324
tp1298
Rp1299
sg319
Nsg308
(dp1300
g1296
F1.0
ssbF-9.15945031025582
ssbag2
(g303
g4
Ntp1301
Rp1302
(dp1303
g307
F0.9163078408920857
sg308
(dp1304
g2
(g310
g4
Ntp1305
Rp1306
(dp1307
g307
F0.01228
sg314
g2
(g315
g316
F0.0015983259228672384
tp1308
Rp1309
sg319
Nsg308
(dp1310
g1306
F1.0
ssbF119.21888787497592
sg2
(g310
g4
Ntp1311
Rp1312
(dp1313
g307
F0.00459407156009531
sg314
g2
(g315
g316
F0.0008825303193736476
tp1314
Rp1315
sg319
Nsg308
(dp1316
g1312
F1.0
ssbF-119.21888787497592
sg2
(g310
g4
Ntp1317
Rp1318
(dp1319
g307
F0.008387932632358503
sg314
g2
(g315
g316
F0.0009925972396469833
tp1320
Rp1321
sg319
Nsg308
(dp1322
g1318
F1.0
ssbF-109.24120174227484
ssbag2
(g303
g4
Ntp1323
Rp1324
(dp1325
g307
F0.2855454481196175
sg308
(dp1326
g2
(g310
g4
Ntp1327
Rp1328
(dp1329
g307
F0.02314
sg314
g2
(g315
g316
F0.002742363291957447
tp1330
Rp1331
sg319
Nsg308
(dp1332
g1328
F1.0
ssbF30.629379609962374
sg2
(g310
g4
Ntp1333
Rp1334
(dp1335
g307
F0.01381740020347189
sg314
g2
(g315
g316
F0.0013823856899172658
tp1336
Rp1337
sg319
Nsg308
(dp1338
g1334
F1.0
ssbF-30.629379609962374
sg2
(g310
g4
Ntp1339
Rp1340
(dp1341
g307
F0.03264839225391116
sg314
g2
(g315
g316
F0.0038244368862796795
tp1342
Rp1343
sg319
Nsg308
(dp1344
g1340
F1.0
ssbF-8.746079926352582
ssbag2
(g303
g4
Ntp1345
Rp1346
(dp1347
g307
F0.9214983529953741
sg308
(dp1348
g2
(g310
g4
Ntp1349
Rp1350
(dp1351
g307
F0.013980000000000001
sg314
g2
(g315
g316
F0.0018653909634096992
tp1352
Rp1353
sg319
Nsg308
(dp1354
g1350
F1.0
ssbF103.83067202871301
sg2
(g310
g4
Ntp1355
Rp1356
(dp1357
g307
F0.00510498903271525
sg314
g2
(g315
g316
F0.0011235640279901723
tp1358
Rp1359
sg319
Nsg308
(dp1360
g1356
F1.0
ssbF-103.83067202871301
sg2
(g310
g4
Ntp1361
Rp1362
(dp1363
g307
F0.009631065469011537
sg314
g2
(g315
g316
F0.001247809549852903
tp1364
Rp1365
sg319
Nsg308
(dp1366
g1362
F1.0
ssbF-95.6797932648619
ssbatp1367
bsS'# groups'
p1368
I2
sS'xs type'
p1369
S'transport'
p1370
s.