(dp0
S'domain'
p1
ccopy_reg
_reconstructor
p2
(copenmc.universe
Cell
p3
c__builtin__
object
p4
Ntp5
Rp6
(dp7
S'_type'
p8
S'normal'
p9
sS'_rotation'
p10
NsS'_fill'
p11
g2
(copenmc.material
Material
p12
g4
Ntp13
Rp14
(dp15
S'_density_units'
p16
S'g/cm3'
p17
sS'_density'
p18
F0.07425478275227912
sS'_sab'
p19
NsS'_name'
p20
S''
p21
sS'_nuclides'
p22
(dp23
sS'_elements'
p24
(dp25
sS'_id'
p26
I10003
sbsg20
g21
sS'_translation'
p27
NsS'_offset'
p28
Nsg26
I10017
sS'_surfaces'
p29
(dp30
I10006
(g2
(copenmc.surface
ZCylinder
p31
g4
Ntp32
Rp33
(dp34
g8
S'z-cylinder'
p35
sS'_R'
p36
NsS'_coeffs'
p37
(dp38
S'y0'
p39
F0.0
sS'x0'
p40
F0.0
sS'R'
p41
F0.48387
ssg20
g21
sS'_bc_type'
p42
S'transmission'
p43
sg26
I10006
sS'_x0'
p44
NsS'_coeff_keys'
p45
(lp46
g40
ag39
ag41
asS'_y0'
p47
Nsbcnumpy.core.multiarray
scalar
p48
(cnumpy
dtype
p49
(S'i8'
p50
I0
I1
tp51
Rp52
(I3
S'<'
p53
NNNI-1
I-1
I0
tp54
bS'\x01\x00\x00\x00\x00\x00\x00\x00'
p55
tp56
Rp57
tp58
ssbsS'group bounds'
p59
cnumpy.core.multiarray
_reconstruct
p60
(cnumpy
ndarray
p61
(I0
tp62
S'b'
p63
tp64
Rp65
(I1
(I3
tp66
g49
(S'f8'
p67
I0
I1
tp68
Rp69
(I3
S'<'
p70
NNNI-1
I-1
I0
tp71
bI00
S'\x00\x00\x00\x00\x00\x00\x00\x00\xf1h\xe3\x88\xb5\xf8\xa4>\x00\x00\x00\x00\x00\x00$@'
p72
tp73
bsS'tallies'
p74
(dp75
S'flux'
p76
g2
(copenmc.tallies
Tally
p77
g4
Ntp78
Rp79
(dp80
S'_num_tot_score_bins'
p81
I1
sS'_label'
p82
S'2 groups'
p83
sS'_filters'
p84
(lp85
g2
(copenmc.tallies
Filter
p86
g4
Ntp87
Rp88
(dp89
S'_mesh'
p90
Nsg8
S'distribcell'
p91
sg28
I10
sS'_stride'
p92
I1
sS'_bin_edges'
p93
(lp94
I10017
asbag2
(g86
g4
Ntp95
Rp96
(dp97
g90
Nsg8
S'energy'
p98
sg28
I0
sg92
I1
sg93
(lp99
F0.0
aF6.25e-07
aF10.0
asbasS'_sum_sq'
p100
g60
(g61
(I0
tp101
g63
tp102
Rp103
(I1
(I2
I1
tp104
g69
I00
S'\xc9\xf28Y\x91\x12_?!\x1d\xabL\x8fJ\x97?'
p105
tp106
bsS'_std_dev'
p107
g60
(g61
(I0
tp108
g63
tp109
Rp110
(I1
(I2
I1
tp111
g69
I00
S'?\xbbr\xb2<\x8eK?M\xf7\x9a\x96\x86\x8dm?'
p112
tp113
bsS'_num_tot_filter_bins'
p114
I2
sS'_mean'
p115
g60
(g61
(I0
tp116
g63
tp117
Rp118
(I1
(I2
I1
tp119
g69
I00
S'T\xc1\x89\x88\xf8\xee\x93?\xcc\xad]y\xe9@\xb1?'
p120
tp121
bsS'_num_realizations'
p122
I5
sg22
(lp123
sS'_sum'
p124
g60
(g61
(I0
tp125
g63
tp126
Rp127
(I1
(I2
I1
tp128
g69
I00
S'\xa91\xac\xaa\xb6\xea\xb8??\x19\xb5\xd7#\x91\xd5?'
p129
tp130
bsS'_estimator'
p131
S'tracklength'
p132
sS'_scores'
p133
(lp134
g76
asg26
I10000
sbsS'nu-fission'
p135
g2
(g77
g4
Ntp136
Rp137
(dp138
g81
I1
sg82
S'2 groups'
p139
sg84
(lp140
g2
(g86
g4
Ntp141
Rp142
(dp143
g90
Nsg8
g91
sg28
I10
sg92
I1
sg93
(lp144
I10017
asbag2
(g86
g4
Ntp145
Rp146
(dp147
g90
Nsg8
g98
sg28
I0
sg92
I1
sg93
(lp148
F0.0
aF6.25e-07
aF10.0
asbasg100
g60
(g61
(I0
tp149
g63
tp150
Rp151
(I1
(I2
I1
tp152
g69
I00
S'\x00\x00\x00\x00\x00\x00\x00\x00\x00\x00\x00\x00\x00\x00\x00\x00'
p153
tp154
bsg107
g60
(g61
(I0
tp155
g63
tp156
Rp157
(I1
(I2
I1
tp158
g69
I00
S'\x00\x00\x00\x00\x00\x00\x00\x00\x00\x00\x00\x00\x00\x00\x00\x00'
p159
tp160
bsg114
I2
sg115
g60
(g61
(I0
tp161
g63
tp162
Rp163
(I1
(I2
I1
tp164
g69
I00
S'\x00\x00\x00\x00\x00\x00\x00\x00\x00\x00\x00\x00\x00\x00\x00\x00'
p165
tp166
bsg122
I5
sg22
(lp167
sg124
g60
(g61
(I0
tp168
g63
tp169
Rp170
(I1
(I2
I1
tp171
g69
I00
S'\x00\x00\x00\x00\x00\x00\x00\x00\x00\x00\x00\x00\x00\x00\x00\x00'
p172
tp173
bsg131
g132
sg133
(lp174
S'nu-fission'
p175
asg26
I10016
sbssS'subdomain offsets'
p176
(dp177
I565
g48
(g52
S'\x00\x00\x00\x00\x00\x00\x00\x00'
p178
tp179
Rp180
ssS'offset'
p181
I10
sS'domain type'
p182
g91
sS'xs'
p183
g60
(g61
(I0
tp184
g63
tp185
Rp186
(I1
(I1
I2
tp187
g49
(S'O8'
p188
I0
I1
tp189
Rp190
(I3
S'|'
p191
NNNI-1
I-1
I63
tp192
bI00
(lp193
g2
(cuncertainties
AffineScalarFunc
p194
g4
Ntp195
Rp196
(dp197
S'_nominal_value'
p198
F0.0
sS'derivatives'
p199
(dp200
g2
(cuncertainties
Variable
p201
g4
Ntp202
Rp203
(dp204
g198
F0.0
sS'_std_dev'
p205
g2
(cuncertainties
CallableStdDev
p206
c__builtin__
float
p207
F0.0
tp208
Rp209
sS'tag'
p210
Nsg199
(dp211
g203
F1.0
ssbF14.837515413283349
sg2
(g201
g4
Ntp212
Rp213
(dp214
g198
F0.067396728639941
sg205
g2
(g206
g207
F0.003607523792054679
tp215
Rp216
sg210
Nsg199
(dp217
g213
F1.0
ssbF0.0
ssbag2
(g194
g4
Ntp218
Rp219
(dp220
g198
F0.0
sg199
(dp221
g2
(g201
g4
Ntp222
Rp223
(dp224
g198
F0.0
sg205
g2
(g206
g207
F0.0
tp225
Rp226
sg210
Nsg199
(dp227
g223
F1.0
ssbF51.37085994767925
sg2
(g201
g4
Ntp228
Rp229
(dp230
g198
F0.019466288884758612
sg205
g2
(g206
g207
F0.0008409305927637791
tp231
Rp232
sg210
Nsg199
(dp233
g229
F1.0
ssbF0.0
ssbatp234
bsS'# groups'
p235
I2
sS'xs type'
p236
S'nu-fission'
p237
s.