(dp0
S'domain'
p1
ccopy_reg
_reconstructor
p2
(copenmc.universe
Cell
p3
c__builtin__
object
p4
Ntp5
Rp6
(dp7
S'_type'
p8
S'normal'
p9
sS'_rotation'
p10
NsS'_fill'
p11
g2
(copenmc.material
Material
p12
g4
Ntp13
Rp14
(dp15
S'_density_units'
p16
S'g/cm3'
p17
sS'_density'
p18
F0.043439030625154515
sS'_sab'
p19
NsS'_name'
p20
S''
p21
sS'_nuclides'
p22
(dp23
sS'_elements'
p24
(dp25
sS'_id'
p26
I10005
sbsg20
g21
sS'_translation'
p27
NsS'_offset'
p28
Nsg26
I10013
sS'_surfaces'
p29
(dp30
I10003
(g2
(copenmc.surface
ZCylinder
p31
g4
Ntp32
Rp33
(dp34
g8
S'z-cylinder'
p35
sS'_R'
p36
NsS'_coeffs'
p37
(dp38
S'y0'
p39
F0.0
sS'x0'
p40
F0.0
sS'R'
p41
F0.56134
ssg20
g21
sS'_bc_type'
p42
S'transmission'
p43
sg26
I10003
sS'_x0'
p44
NsS'_coeff_keys'
p45
(lp46
g40
ag39
ag41
asS'_y0'
p47
Nsbcnumpy.core.multiarray
scalar
p48
(cnumpy
dtype
p49
(S'i8'
p50
I0
I1
tp51
Rp52
(I3
S'<'
p53
NNNI-1
I-1
I0
tp54
bS'\x01\x00\x00\x00\x00\x00\x00\x00'
p55
tp56
Rp57
tp58
sI10004
(g2
(g31
g4
Ntp59
Rp60
(dp61
g8
g35
sg36
Nsg37
(dp62
g39
F0.0
sg40
F0.0
sg41
F0.60198
ssg20
g21
sg42
g43
sg26
I10004
sg44
Nsg45
(lp63
g40
ag39
ag41
asg47
Nsbg48
(g52
S'\xff\xff\xff\xff\xff\xff\xff\xff'
p64
tp65
Rp66
tp67
ssbsS'group bounds'
p68
cnumpy.core.multiarray
_reconstruct
p69
(cnumpy
ndarray
p70
(I0
tp71
S'b'
p72
tp73
Rp74
(I1
(I3
tp75
g49
(S'f8'
p76
I0
I1
tp77
Rp78
(I3
S'<'
p79
NNNI-1
I-1
I0
tp80
bI00
S'\x00\x00\x00\x00\x00\x00\x00\x00\xf1h\xe3\x88\xb5\xf8\xa4>\x00\x00\x00\x00\x00\x00$@'
p81
tp82
bsS'tallies'
p83
(dp84
S'nu-scatter'
p85
g2
(copenmc.tallies
Tally
p86
g4
Ntp87
Rp88
(dp89
S'_num_tot_score_bins'
p90
I1
sS'_label'
p91
S'2 groups'
p92
sS'_filters'
p93
(lp94
g2
(copenmc.tallies
Filter
p95
g4
Ntp96
Rp97
(dp98
S'_mesh'
p99
Nsg8
S'distribcell'
p100
sg28
I6
sS'_stride'
p101
I1
sS'_bin_edges'
p102
(lp103
I10013
asbag2
(g95
g4
Ntp104
Rp105
(dp106
g99
Nsg8
S'energy'
p107
sg28
I0
sg101
I24
sg102
(lp108
F0.0
aF6.25e-07
aF10.0
asbasS'_sum_sq'
p109
g69
(g70
(I0
tp110
g72
tp111
Rp112
(I1
(I48
I1
tp113
g78
I00
S'\x14\xff\xfb|)v\xd3>("&U\x991\x0e?\x16\xf6\x17\xee\x1a\xfc\xe6>\x8e\xea\xae\xcbt\xd8\x12?\xfd\x94S\xd0\'\xd1\xc6>\xc0\xb1g\xcfej\x12?\xa2&\xfa|\x94\x11\xd7>\xd4\xf2\xe2H\x90\xdf\x15?\xc8\xd0\xd2\x913\x7f\xd2>\x02\xa9\xe2\x00\xd9o\x16?h:\xf9\xfcI\xdf\xd8>J\xce\x89=\xb4\x8f\x15?_6\t\xf7-\xe7\xd0>\n\xa9O0k{\x0e?\x02\x97K\xd35\xcd\xda>\xba\xa0\xdfs7\xba\x10?\xd3\x05\'h\xb4\xd1\xe0>\xa35\x8a\xd5\xb4\xc5\x04?\xd5\xfcB\xd9\xa5W\xd4>8\x86\x84\x18}?\x14?\xba\xa4bJ\xc1\xa6\xd0>\x14\xd3\xc7t\xcfW\x0c?\xf4s\xbf\x1a\xd2n\xd5>\xeegg\x87\xae\xfa\x12?\xd6\xf3^J\x97\xdd\xd7>\x97\x02\x90\xe25\x12\x15?\xc4\x8b\xae\xa0\xa34\xcf>\xe4H-\xb5Z7\x10?\xd6\xd6\xba\x9a]s\xce>\xbc|\x80(w#\x0c?\x95\xfa\x895"9\xd5>dJ\x98\'\xdf\x85\x10?X\x03\xad#\xbb\x90\xd6>\xcb\xe7h\x97g\x0c\x10?C\x90 \xe8\xaaq\xdd>>\xa9\xa3\xa1N\x92\x11?H\xa6\xd8\x0b\xe4]\xce>\xd2\xec6\x7f~\xa5\x14?+/\\\xca\xb7F\xcd>`#\xc5\xd7\t\xf5\x15?\xb0I\x865\xf8o\xcc>\xeba\xbb\xbd\x9c\xc0\x11?Q\xf6\xd8\x8e\x90\x1e\xd2>\x1c\x197w\xecN\x14?>\x8e(\xe5\x9cu\xd9>\xde/n\xbc\x9e\\\x11?\xb7\x99\x86\xb8\xa40\xd0>\xee<\xaf\x80[\xda\r?'
p114
tp115
bsS'_std_dev'
p116
g69
(g70
(I0
tp117
g72
tp118
Rp119
(I1
(I48
I1
tp120
g78
I00
S'\xf7\xd4S\x8c\xf6\x1c\x1d?a\x01\xac\x99\x86\xd5;?;{\x0b57\x9eJ?\xebT<\x140lL?\xb2\xd5S\x8c\xf6\x1c-?\xe3\xa2T\xcd6fR?\xf7\xeaw\x17\x1b\xc5<?\xfe\xff\xc7\xbbY\x8e2?K\xc2\x1a\xcfq*A??\x94\x86\xa8\xda>I?UV\x0e\xaa\xf7\xb96?\x8dz\x11\xd0\xd5zH?k\x8f\xd0d\x8bq7?\xbb\xcf\x98\xfek\xb97?\x18\xd0\x98\xfek\xb97?\xb5\xe5L\x10\x938T?\x96\xfc\xe7\xda|\xe5J?I\xe45\xaf\x0b.I?D\xcc,9\xfd\xd3!?\x97\x15R\xad\x19\xfd9?\x97g_\xd0;85?\xf0\x0e\x88\x8f$\x105?NN\x9an\x8d\x946?"{\x0b57\x9eJ?\x16U<\x140l<?6\xcbP\x1a\xc0\x149?6\xcc,9\xfd\xd31?~_\x0e\x8c\xd4~T?7\x0f\x88\x8f$\x105?\x98\xe4\x80\xa6I\x81K?\xc3\x13e\xeb\xb1\xee#?\x06\xc8\x99\xd5\xcd\xd08?:Cg\xee\xdb\xdfA?\xf5]I\xe1<$M?\xd1\xc7x\xccc,F?UN\xa8\xe8Z\xfbH??s\xf7\x8e\x8e\xae(?\xe1t\xaa\xa7\xab#8?\xf3\xc5\x80\xcc\x9b;;?\x1e\x0b\xa1\x10\x85\x90=?\xed\xc8\xeb\x036m@?\xa3s\xf7\x8e\x8e\xaeH?zt\xaa\xa7\xab#(?\xdb\n\xdeE\x17\x89Q?\xc6\xd3j\xc3\x08\xf4B?\t\xc1\xe5N\x15\x1eA?e\x8f\xd0d\x8bq7?\x9f_y\x8e\x19\x0cR?'
p121
tp122
bsS'_num_tot_filter_bins'
p123
I48
sS'_mean'
p124
g69
(g70
(I0
tp125
g72
tp126
Rp127
(I1
(I48
I1
tp128
g78
I00
S'j\x1dUM\x10uO?\x8d@\xbc\xae_\xb0k?~\x9fq\xe1@HV?P;\xfc5Y\xa3n?\x0e\xd6\xff9\xcc\x97G?\x08 \xb5\x89\x93\xfbm?\xfc\xa9\xf1\xd2MbP?\xa07\x15\xa90\xb6p?\x03\x95\xf1\xef3.L?\t\x1b\x9e^)\xcbp?\xe7R\\U\xf6]Q?e\x8dz\x88Fwp?\x02\x95\xf1\xef3.L?`\x07\xce\x19Q\xdak?.n\xa3\x01\xbc\x05R?\xd5[\x03[%Xl?\xd2\xfb\xc6\xd7\x9eYR?#-\x95\xb7#\x9cf?X\x1c\xce\xfcj\x0eP?X\x1c\xce\xfcj\x0ep?\x03\x95\xf1\xef3.L?u^c\x97\xa8\xdej?X\x1c\xce\xfcj\x0eP?"\x02\x0e\xa1J\xcdn?\x9f7\x15\xa90\xb6P?\xfc\xa9\xf1\xd2Mbp?\xbby\xaaCn\x86K?`\x07\xce\x19Q\xdak?s^c\x97\xa8\xdeJ?\xfe\t.V\xd4`j?\xfd\xa9\xf1\xd2MbP?\x1dwJ\x07\xeb\xffl?h\x1dUM\x10uO?\x03\x95\xf1\xef3.l?\x8b\xe0\x7f+\xd9\xb1Q?c\x92\x91\xb3\xb0\xa7m?\xbdy\xaaCn\x86K?*\xe3\xdfg\\8p?\xe5\'\xd5>\x1d\x8fI?\x9f7\x15\xa90\xb6p?V\xf1F\xe6\x91?H?5Y\xa3\x1e\xa2\xd1m?\xda\xe6\xc6\xf4\x84%N?;\xe4f\xb8\x01\x9fo?\xa07\x15\xa90\xb6P?c\x92\x91\xb3\xb0\xa7m?\xbby\xaaCn\x86K?u^c\x97\xa8\xdej?'
p129
tp130
bsS'_num_realizations'
p131
I5
sg22
(lp132
sS'_sum'
p133
g69
(g70
(I0
tp134
g72
tp135
Rp136
(I1
(I48
I1
tp137
g78
I00
S'b2U0*\xa9s?X\xa85\xcd;N\x91?^\x07\xce\x19Q\xda{?\x12\xa5\xbd\xc1\x17&\x93?\x92\xcb\x7fH\xbf}m?\x054\x116<\xbd\x92?{\x14\xaeG\xe1zt?\x88\x85Z\xd3\xbc\xe3\x94?"\xfd\xf6u\xe0\x9cq?\xcb\xa1E\xb6\xf3\xfd\x94?\xa1g\xb3\xeas\xb5u?\xbe0\x99*\x18\x95\x94?!\xfd\xf6u\xe0\x9cq?\x9c\xc4 \xb0rh\x91?\xbaI\x0c\x02+\x87v?e\x19\xe2X\x17\xb7\x91?\xc7\xba\xb8\x8d\x06\xf0v?lxz\xa5,C\x8c?n\xa3\x01\xbc\x05\x12t?n\xa3\x01\xbc\x05\x12\x94?"\xfd\xf6u\xe0\x9cq?\t\x1b\x9e^)\xcb\x90?n\xa3\x01\xbc\x05\x12t?U\xc1\xa8\xa4N@\x93?\x87\x85Z\xd3\xbc\xe3t?{\x14\xaeG\xe1z\x94?\x15\x8cJ\xea\x044q?\x9c\xc4 \xb0rh\x91?\x08\x1b\x9e^)\xcbp??\xc6\xdc\xb5\x84|\x90?|\x14\xaeG\xe1zt?r\x8a\x8e\xe4\xf2\x1f\x92?a2U0*\xa9s?"\xfd\xf6u\xe0\x9c\x91?\xae\xd8_vO\x1ev?~\xfb:p\xce\x88\x92?\x16\x8cJ\xea\x044q?\xf5\xdb\xd7\x81sF\x94?\xdeq\x8a\x8e\xe4\xf2o?\x87\x85Z\xd3\xbc\xe3\x94?\xab\xad\xd8_vOn?\xc1\x17&S\x05\xa3\x92?HP\xfc\x18s\xd7r?\xa5N@\x13a\xc3\x93?\x88\x85Z\xd3\xbc\xe3t?~\xfb:p\xce\x88\x92?\x15\x8cJ\xea\x044q?\t\x1b\x9e^)\xcb\x90?'
p138
tp139
bsS'_estimator'
p140
S'analog'
p141
sS'_scores'
p142
(lp143
S'nu-scatter'
p144
asg26
I10124
sbsS'flux'
p145
g2
(g86
g4
Ntp146
Rp147
(dp148
g90
I1
sg91
S'2 groups'
p149
sg93
(lp150
g2
(g95
g4
Ntp151
Rp152
(dp153
g99
Nsg8
g100
sg28
I6
sg101
I1
sg102
(lp154
I10013
asbag2
(g95
g4
Ntp155
Rp156
(dp157
g99
Nsg8
g107
sg28
I0
sg101
I24
sg102
(lp158
F0.0
aF6.25e-07
aF10.0
asbasg109
g69
(g70
(I0
tp159
g72
tp160
Rp161
(I1
(I48
I1
tp162
g78
I00
S'\xc3\xb3\xa7\x05\xe0\x87\x0e?\xda\x83\x06\x01p\xcaB?k)z\x93\xbe\x9e\x1f?\xa3.\xeb\xb6\xc0\xbaG?\xf5\x9dC\xfb\x93\xe3\x00?z\xc8\x13\xd5-/G?\xa1\xe9\x85mc\x18\x11?\xa9\rM0\xfc\x93I?b\x10\x90\x8f\xce8\t?\x7f\xe8\x9c\xbe\xa8\xafL?I\x9c\x0f\x9c\x18\x16\x11?\x94\xd9\x15\xa6F@J?\x8c\x15\x0f\t\x84U\t?\xbc{\xd8\x16\xcd\x8aC?\x98J\x8b\xf3\xf0\xf3\x13?,\xf92\xc5H\xbbE?\t\xf7\x10-F\xed\x17?/\x03&\x93\x98\xbc:?L\x0e\xfes\x84\x00\r?j\xfa\xbd\xa1\xa2\x97L?\xab\xfc\x1e\xaa\xb6B\x08?\x12\x99Z\xf7\x8dAB?\x1b\xf3\x8bZ\xb9^\r?VT\xca\x1e\xa6\xfdI?\xbf[9\xc6\x18\x81\x11?\xae\xad\xcc\xac\x9ebI?\xd8\x8e\x94~\x8d\x85\x05?\x87\xd1f\xc3\n\xe6D?\xf3\x0b\x0c\r\xe1\x98\x05?\x945\x9b\xfeexB?\xbe\x7f\xd8\xc4f\x1f\r?\x84\x01\xd7\x8fuPD?\xb1\xc7\xc2\xab;@\x0f?\xbd#\xa0(\xfc\x16E?\xe6\xa3\xdd\x19\x15\x0f\x15?\xf7\xfa+\xf3.\xa8G?\xfe\x18\x10\xfa\xa3\xf0\x05?\x88~\xa50\xc5\xfaL?\xe2x8\xd0\xceG\x04?\xac\xdd\xea|YzM?\x8e\xcfP\xeaJ\x95\x03?Bw\xb75\x90\x81E?\xf4M\xf7]\x9f\x0e\n?$+\xc7\x89v\x81J?\xf1\xa0\x1d\x87\x8bO\x13?\xf8}1\x7fc\x95F?R\xc5v\x14\xa3[\x06?@\x94\x0b[\xd5\x7fB?'
p163
tp164
bsg116
g69
(g70
(I0
tp165
g72
tp166
Rp167
(I1
(I48
I1
tp168
g78
I00
S"\x86\x10\x9a\xda\x96`F?\xcf2\xd5\xe8\xfa\xe9^?\x1b\x9e\xef\x81\x19\xf1e?\x7f3'\xb6;\x9ef?\xc1\xad\x0e\xaa\xdc\x84J?6\xfa\x06\xcc:\xc5j?^>\xf3\x85F\xfdW?N,\xe01HXH?\xcc{\xb45\x9d\t\\?Nr+\x85\x83\x08l?\x8f+,cy\xf5R?B\xc9\xe6E*\xdaf?^\xc0.E\xe8\xa0R?\xca\x0b\x9d6Q\xdbO?\x0f\x9b\x81\xa1\xdf\xb7U?\x13\xa2\x96\xff@On?\xb4\xe2\xc1!K\x0fe?l|\x04\x96BQb?\x1a\x92 P \x0b;?\x8cH\x83\xc7\xb9cQ?\xa7\x84+HssS?n\xbf~\x84PdW?\xae\x96\xef\x8dC\x93R?\x142\xf1\x7f4\x03h?t\r\xees\xb9\x0fW?\x0cI\xbd\xfc\xa9kX?\x80=\xbfY\x9a\xdaM?\xb5X\xa1=\xc1Pr?R\xb9H\x80\xbc\xc8N?\xe0T\xd9K\xbf*e?W\x13\xdb\xad6\x8e@?\xe6\xbfU|\xb4\xf1D?\xa9\xcb\x18x9\xae]?\x9e\x02\x97\xcb\x00\x81h?\xc4\xf9\x93\xd3\xdb\xaab?\xd0U5\xa2\x1f\xcff?Xf~\xeaB\xd4G?Ud\xeb8\xe7\x7fZ?\xb0\x9a\x15\xe5\xc7\xd7V?\xb8h\xf1Q\xe5\xfaX?/c\xc7\xccO?[?1\xb4\x8f\xbd&(c?\x03\x8btsB\x8aG?\xb3--#\xaael?\xf3L|\xad\x9c\xa5a?\xd0\xc7\xb1J\xda#c?4*\x8d\xef\x80\x8cS?\x12\x08\xd1\xe9H\xf4n?"
p169
tp170
bsg123
I48
sg124
g69
(g70
(I0
tp171
g72
tp172
Rp173
(I1
(I48
I1
tp174
g78
I00
S'\x00\xb0\xd7=8\xaak?1\x16`\xc5^\xc1\x85?\xcf \x16X9\x80r?\xb0H%P\xe0N\x88?\xf0\x08\xbb\x13\xc3<d?\xe8\x17\x07Ce\xe1\x87?u\xac\xeb7\x97Kl?\xd0"\xd0\xb1\xc7\x90\x89?\x82kO\xbfDQg?:\xe7\xaeK\xf2\x9f\x8a?\x93\xc0\t_?\xc7l?\x0e\xb7\x0c\xa5A\x98\x89?-\xa45\x99"\x91h?\x96\xf2}9\'R\x86?`\xa6$ \x85\xfdn?\n<\xc0\xe3C\xf2\x86?\xf6~\xf6\x97\xd4\x8ao?y`Y\x17\xf63\x82?&\xe7`\xa5\x91#k?\xea\xc1\x99\xfbl\x02\x8b?2\xd7\x95H\x95\xeag?r\x0c\xe9S\xfb\x83\x85?\xe3\x96\x87\xfeq\x97j?\xdd\xc6\x89\xef\xfam\x89?ZCIx\xf6\xc2l?\x16\x0c`\x8c\xbae\x89?\xee\xf0\xaa\xd32\xd9f?\x0c\xcc\xb1Ye+\x86?\x80\xfd,\x02\xc7\xd9f?(k\x89B}h\x85?\xb5>\xbf\x8c-$k?\xe8\x04\xa9\x91\xf6\xc8\x86? \x9c\xce\xfc\xcc/j?>_\\\t\x16\xd0\x86?M\x0c\x1f{\xe0\xf4m?\xa9`L7\x9bC\x88?B\x8dF@\xc5Ng?\xa6\xe6\x80\xbd\xf8!\x8b?\xf6\xfb%\x85\x91?e?\xeaE\xde}\xdd`\x8b?\x95\xae*\xbd\x06 d?\x99\x84\xf0\xb1|5\x87?\x06\xe1:\n.zi?\xf6n\xf6\xc2\xc0\x8a\x89?v\xf9\x0e\xf2w\xc2l?^\xf4\xec4\xd2\xcb\x87?\x8du\x02xT\xddf?6_\x94\x970\t\x85?'
p175
tp176
bsg131
I5
sg22
(lp177
sg133
g69
(g70
(I0
tp178
g72
tp179
Rp180
(I1
(I48
I1
tp181
g78
I00
S'\x00\xce\xa6&cJ\x91?\xbd\x1b\xb8v\xb61\xab?\x03\xa9\x1b\xaeG \x97?\xdc\x9a.d\x98b\xae?,\xcb\xa9\xd8\xf3K\x89?\xe2\xdd\xc8\x93\xbe\xd9\xad?\xc9K\xf3\x82>\xaf\x91?\x84+D\x9e\xf9\xf4\xaf?bF#\xef\x95%\x8d?\x84PMo\xf7\xa3\xb0?\\\x18f\x9b\x87\xfc\x91?\xd2\xe4O\x0eR\xfe\xaf?8\r\x83?k\xb5\x8e?;o\xdd\x07\xb1\xe6\xab?\xfc\xe7\x164s^\x93?\rK\xb0\xdc\xd4\xae\xac?Z\x0f\xfa\xde\xc4\xb6\x93?\x97\xb8/\x9d\xf3\xc0\xa6?x\x90\\\x07;\xf6\x90?2\x19@\x1d\x84\xe1\xb0?\xfeL\xbb\x9a:\xe5\x8d?\x8fO\xe3(\xfa\xe4\xaa?N\xbe\x14?\xa7\x9e\x90?\x948l\xaby\xc9\xaf?\x18\xca-\x0b\xda\xf9\x91?\x1b\x0fx/)\xbf\xaf?*\xad\x95\x88\x7f\x8f\x8c?\x0f?\x1e\xb0>\xb6\xab?\xe0<\xb8\xc28\x90\x8c?\xf2\xc5+\x93\x9c\xc2\xaa?1\x87\xf7w\x9c\xf6\x90?"F\x1364{\xac?\x94!\x01\x1e\xe0]\x90?\x0ew\xb3\x8b\x1b\x84\xac?\xb0g\xf3L\x0c\xb9\x92?\xd3x\x1f\x05\x82T\xae?\x920X\x90v"\x8d?(\x90pv;\xf5\xb0?\xf3zo\xe6u\x8f\x8a?\xb2\xeb\xaan\x8a\x1c\xb1?:Zul\x08(\x89?\xbf\xa5l\xde\xdb\x02\xad?H\x99\xc9\x8c\xb9\xd8\x8f?\xb4\n\xb4\xf3p\xed\xaf?\xea[I\xf7\x8a\xf9\x91?u1(\xc2\xc6\xbe\xad?\xf0\x12\x03\x96\xa9\x94\x8c?\x03wy\xbd|K\xaa?'
p182
tp183
bsg140
g141
sg142
(lp184
g145
asg26
I10116
sbssS'subdomain offsets'
p185
(dp186
I388
g48
(g52
S'\t\x00\x00\x00\x00\x00\x00\x00'
p187
tp188
Rp189
sI775
g48
(g52
S'\x11\x00\x00\x00\x00\x00\x00\x00'
p190
tp191
Rp192
sI786
g48
(g52
S'\x12\x00\x00\x00\x00\x00\x00\x00'
p193
tp194
Rp195
sI916
g48
(g52
S'\x14\x00\x00\x00\x00\x00\x00\x00'
p196
tp197
Rp198
sI157
g48
(g52
S'\x00\x00\x00\x00\x00\x00\x00\x00'
p199
tp200
Rp201
sI543
g48
(g52
S'\n\x00\x00\x00\x00\x00\x00\x00'
p202
tp203
Rp204
sI168
g48
(g52
S'\x01\x00\x00\x00\x00\x00\x00\x00'
p205
tp206
Rp207
sI554
g48
(g52
S'\x0b\x00\x00\x00\x00\x00\x00\x00'
p208
tp209
Rp210
sI179
g48
(g52
S'\x02\x00\x00\x00\x00\x00\x00\x00'
p211
tp212
Rp213
sI951
g48
(g52
S'\x15\x00\x00\x00\x00\x00\x00\x00'
p214
tp215
Rp216
sI576
g48
(g52
S'\x0c\x00\x00\x00\x00\x00\x00\x00'
p217
tp218
Rp219
sI962
g48
(g52
S'\x16\x00\x00\x00\x00\x00\x00\x00'
p220
tp221
Rp222
sI587
g48
(g52
S'\r\x00\x00\x00\x00\x00\x00\x00'
p223
tp224
Rp225
sI973
g48
(g52
S'\x17\x00\x00\x00\x00\x00\x00\x00'
p226
tp227
Rp228
sI214
g48
(g52
S'\x03\x00\x00\x00\x00\x00\x00\x00'
p229
tp230
Rp231
sI344
g48
(g52
S'\x05\x00\x00\x00\x00\x00\x00\x00'
p232
tp233
Rp234
sI355
g48
(g52
S'\x06\x00\x00\x00\x00\x00\x00\x00'
p235
tp236
Rp237
sI742
g48
(g52
S'\x0e\x00\x00\x00\x00\x00\x00\x00'
p238
tp239
Rp240
sI877
g48
(g52
S'\x13\x00\x00\x00\x00\x00\x00\x00'
p241
tp242
Rp243
sI366
g48
(g52
S'\x07\x00\x00\x00\x00\x00\x00\x00'
p244
tp245
Rp246
sI753
g48
(g52
S'\x0f\x00\x00\x00\x00\x00\x00\x00'
p247
tp248
Rp249
sI377
g48
(g52
S'\x08\x00\x00\x00\x00\x00\x00\x00'
p250
tp251
Rp252
sI764
g48
(g52
S'\x10\x00\x00\x00\x00\x00\x00\x00'
p253
tp254
Rp255
sI253
g48
(g52
S'\x04\x00\x00\x00\x00\x00\x00\x00'
p256
tp257
Rp258
ssS'offset'
p259
I6
sS'domain type'
p260
g100
sS'xs'
p261
g69
(g70
(I0
tp262
g72
tp263
Rp264
(I1
(I24
I2
tp265
g49
(S'O8'
p266
I0
I1
tp267
Rp268
(I3
S'|'
p269
NNNI-1
I-1
I63
tp270
bI00
(lp271
g2
(cuncertainties
AffineScalarFunc
p272
g4
Ntp273
Rp274
(dp275
S'_nominal_value'
p276
F0.3181856074591331
sS'derivatives'
p277
(dp278
g2
(cuncertainties
Variable
p279
g4
Ntp280
Rp281
(dp282
g276
F0.0033799999999999998
sS'_std_dev'
p283
g2
(cuncertainties
CallableStdDev
p284
c__builtin__
float
p285
F0.0004247144330946831
tp286
Rp287
sS'tag'
p288
Nsg277
(dp289
g281
F1.0
ssbF94.13775368613405
sg2
(g279
g4
Ntp290
Rp291
(dp292
g276
F0.010622730635087315
sg283
g2
(g284
g285
F0.0018868398941151337
tp293
Rp294
sg288
Nsg277
(dp295
g291
F1.0
ssbF-29.95327834146081
ssbag2
(g272
g4
Ntp296
Rp297
(dp298
g276
F0.28427046986516963
sg277
(dp299
g2
(g279
g4
Ntp300
Rp301
(dp302
g276
F0.0009600000000000001
sg283
g2
(g284
g285
F0.00011105780420790969
tp303
Rp304
sg288
Nsg277
(dp305
g301
F1.0
ssbF296.1150727762183
sg2
(g279
g4
Ntp306
Rp307
(dp308
g276
F0.00337706551248651
sg283
g2
(g284
g285
F0.0006829010573743556
tp309
Rp310
sg288
Nsg277
(dp311
g307
F1.0
ssbF-84.1767708722545
ssbag2
(g272
g4
Ntp312
Rp313
(dp314
g276
F0.31510141769752187
sg277
(dp315
g2
(g279
g4
Ntp316
Rp317
(dp318
g276
F0.0037400000000000003
sg283
g2
(g284
g285
F0.0008673891793217458
tp319
Rp320
sg288
Nsg277
(dp321
g317
F1.0
ssbF84.25171596190424
sg2
(g279
g4
Ntp322
Rp323
(dp324
g276
F0.011869194455958215
sg283
g2
(g284
g285
F0.002760998367398348
tp325
Rp326
sg288
Nsg277
(dp327
g323
F1.0
ssbF-26.547835143044956
ssbag2
(g272
g4
Ntp328
Rp329
(dp330
g276
F0.30109711025004526
sg277
(dp331
g2
(g279
g4
Ntp332
Rp333
(dp334
g276
F0.0013599999999999997
sg283
g2
(g284
g285
F0.0008123178068578438
tp335
Rp336
sg288
Nsg277
(dp337
g333
F1.0
ssbF221.3949340073863
sg2
(g279
g4
Ntp338
Rp339
(dp340
g276
F0.004516815185873393
sg283
g2
(g284
g285
F0.002678441829164558
tp341
Rp342
sg288
Nsg277
(dp343
g339
F1.0
ssbF-66.6613748536235
ssbag2
(g272
g4
Ntp344
Rp345
(dp346
g276
F0.31388351416927446
sg277
(dp347
g2
(g279
g4
Ntp348
Rp349
(dp350
g276
F0.00366
sg283
g2
(g284
g285
F0.0011230025459757979
tp351
Rp352
sg288
Nsg277
(dp353
g349
F1.0
ssbF85.76052299706951
sg2
(g279
g4
Ntp354
Rp355
(dp356
g276
F0.011660376651786167
sg283
g2
(g284
g285
F0.0032678745630783336
tp357
Rp358
sg288
Nsg277
(dp359
g355
F1.0
ssbF-26.918814335315055
ssbag2
(g272
g4
Ntp360
Rp361
(dp362
g276
F0.29145315577608355
sg277
(dp363
g2
(g279
g4
Ntp364
Rp365
(dp366
g276
F0.0007199999999999999
sg283
g2
(g284
g285
F0.00022211560841582445
tp367
Rp368
sg288
Nsg277
(dp369
g365
F1.0
ssbF404.796049689005
sg2
(g279
g4
Ntp370
Rp371
(dp372
g276
F0.002470379838855334
sg283
g2
(g284
g285
F0.000809295412286408
tp373
Rp374
sg288
Nsg277
(dp375
g371
F1.0
ssbF-117.97908612755285
ssbag2
(g272
g4
Ntp376
Rp377
(dp378
g276
F0.3268398664863753
sg277
(dp379
g2
(g279
g4
Ntp380
Rp381
(dp382
g276
F0.00408
sg283
g2
(g284
g285
F0.0002831429553964425
tp383
Rp384
sg288
Nsg277
(dp385
g381
F1.0
ssbF80.10781041332727
sg2
(g279
g4
Ntp386
Rp387
(dp388
g276
F0.0124831772937041
sg283
g2
(g284
g285
F0.0007429459108164811
tp389
Rp390
sg288
Nsg277
(dp391
g387
F1.0
ssbF-26.182426060007753
ssbag2
(g272
g4
Ntp392
Rp393
(dp394
g276
F0.2895182910955589
sg277
(dp395
g2
(g279
g4
Ntp396
Rp397
(dp398
g276
F0.001
sg283
g2
(g284
g285
F0.00043899451654254247
tp399
Rp400
sg288
Nsg277
(dp401
g397
F1.0
ssbF289.5182910955589
sg2
(g279
g4
Ntp402
Rp403
(dp404
g276
F0.0034540132031586853
sg283
g2
(g284
g285
F0.0014641941741507995
tp405
Rp406
sg288
Nsg277
(dp407
g403
F1.0
ssbF-83.82084087889277
ssbag2
(g272
g4
Ntp408
Rp409
(dp410
g276
F0.315375246901069
sg277
(dp411
g2
(g279
g4
Ntp412
Rp413
(dp414
g276
F0.0041
sg283
g2
(g284
g285
F0.0007704322497842432
tp415
Rp416
sg288
Nsg277
(dp417
g413
F1.0
ssbF76.92079192709
sg2
(g279
g4
Ntp418
Rp419
(dp420
g276
F0.013000386175793122
sg283
g2
(g284
g285
F0.003422028422717361
tp421
Rp422
sg288
Nsg277
(dp423
g419
F1.0
ssbF-24.258913745831766
ssbag2
(g272
g4
Ntp424
Rp425
(dp426
g276
F0.3021393168454007
sg277
(dp427
g2
(g279
g4
Ntp428
Rp429
(dp430
g276
F0.00086
sg283
g2
(g284
g285
F0.0005238586147325389
tp431
Rp432
sg288
Nsg277
(dp433
g429
F1.0
ssbF351.3247870295357
sg2
(g279
g4
Ntp434
Rp435
(dp436
g276
F0.002846369049149756
sg283
g2
(g284
g285
F0.0017112765552338314
tp437
Rp438
sg288
Nsg277
(dp439
g435
F1.0
ssbF-106.1490311439598
ssbag2
(g272
g4
Ntp440
Rp441
(dp442
g276
F0.32166594580338076
sg277
(dp443
g2
(g279
g4
Ntp444
Rp445
(dp446
g276
F0.00402
sg283
g2
(g284
g285
F0.0007470649726533815
tp447
Rp448
sg288
Nsg277
(dp449
g445
F1.0
ssbF80.01640442870168
sg2
(g279
g4
Ntp450
Rp451
(dp452
g276
F0.01249743733350386
sg283
g2
(g284
g285
F0.0027895761151849616
tp453
Rp454
sg288
Nsg277
(dp455
g451
F1.0
ssbF-25.738552410344152
ssbag2
(g272
g4
Ntp456
Rp457
(dp458
g276
F0.3017383502792306
sg277
(dp459
g2
(g279
g4
Ntp460
Rp461
(dp462
g276
F0.00106
sg283
g2
(g284
g285
F0.00034677788249246516
tp463
Rp464
sg288
Nsg277
(dp465
g461
F1.0
ssbF284.65882101814213
sg2
(g279
g4
Ntp466
Rp467
(dp468
g276
F0.003512977382619972
sg283
g2
(g284
g285
F0.0011571584151990088
tp469
Rp470
sg288
Nsg277
(dp471
g467
F1.0
ssbF-85.89248304644498
ssbag2
(g272
g4
Ntp472
Rp473
(dp474
g276
F0.31195859317288904
sg277
(dp475
g2
(g279
g4
Ntp476
Rp477
(dp478
g276
F0.0034000000000000002
sg283
g2
(g284
g285
F0.0003620041521543678
tp479
Rp480
sg288
Nsg277
(dp481
g477
F1.0
ssbF91.75252740379088
sg2
(g279
g4
Ntp482
Rp483
(dp484
g276
F0.010898882333770826
sg283
g2
(g284
g285
F0.0009721895741922001
tp485
Rp486
sg288
Nsg277
(dp487
g483
F1.0
ssbF-28.62298936894355
ssbag2
(g272
g4
Ntp488
Rp489
(dp490
g276
F0.2867724539066811
sg277
(dp491
g2
(g279
g4
Ntp492
Rp493
(dp494
g276
F0.0008599999999999999
sg283
g2
(g284
g285
F0.000357719928447012
tp495
Rp496
sg288
Nsg277
(dp497
g493
F1.0
ssbF333.45634175195477
sg2
(g279
g4
Ntp498
Rp499
(dp500
g276
F0.0029988933326206197
sg283
g2
(g284
g285
F0.0011369961036784763
tp501
Rp502
sg288
Nsg277
(dp503
g499
F1.0
ssbF-95.62609339495295
ssbag2
(g272
g4
Ntp504
Rp505
(dp506
g276
F0.30881079081470836
sg277
(dp507
g2
(g279
g4
Ntp508
Rp509
(dp510
g276
F0.00346
sg283
g2
(g284
g285
F0.0012341915291485931
tp511
Rp512
sg288
Nsg277
(dp513
g509
F1.0
ssbF89.25167364586946
sg2
(g279
g4
Ntp514
Rp515
(dp516
g276
F0.011204271686464668
sg283
g2
(g284
g285
F0.0036999005794380395
tp517
Rp518
sg288
Nsg277
(dp519
g515
F1.0
ssbF-27.56187992011721
ssbag2
(g272
g4
Ntp520
Rp521
(dp522
g276
F0.2907747372774767
sg277
(dp523
g2
(g279
g4
Ntp524
Rp525
(dp526
g276
F0.0010999999999999998
sg283
g2
(g284
g285
F0.00036200415215437284
tp527
Rp528
sg288
Nsg277
(dp529
g525
F1.0
ssbF264.3406702522516
sg2
(g279
g4
Ntp530
Rp531
(dp532
g276
F0.003782997141702535
sg283
g2
(g284
g285
F0.0013255771537161209
tp533
Rp534
sg288
Nsg277
(dp535
g531
F1.0
ssbF-76.86358894435055
ssbag2
(g272
g4
Ntp536
Rp537
(dp538
g276
F0.3105250856764937
sg277
(dp539
g2
(g279
g4
Ntp540
Rp541
(dp542
g276
F0.00276
sg283
g2
(g284
g285
F0.0007684285214245658
tp543
Rp544
sg288
Nsg277
(dp545
g541
F1.0
ssbF112.50908901322236
sg2
(g279
g4
Ntp546
Rp547
(dp548
g276
F0.008888170802649352
sg283
g2
(g284
g285
F0.002236013460915445
tp549
Rp550
sg288
Nsg277
(dp551
g547
F1.0
ssbF-34.93689450521513
ssbag2
(g272
g4
Ntp552
Rp553
(dp554
g276
F0.29088044094007504
sg277
(dp555
g2
(g279
g4
Ntp556
Rp557
(dp558
g276
F0.00112
sg283
g2
(g284
g285
F0.0008208140987448094
tp559
Rp560
sg288
Nsg277
(dp561
g557
F1.0
ssbF259.7146794107813
sg2
(g279
g4
Ntp562
Rp563
(dp564
g276
F0.003850379201779104
sg283
g2
(g284
g285
F0.0025707690638763995
tp565
Rp566
sg288
Nsg277
(dp567
g563
F1.0
ssbF-75.5459204656183
ssbag2
(g272
g4
Ntp568
Rp569
(dp570
g276
F0.2972349469027963
sg277
(dp571
g2
(g279
g4
Ntp572
Rp573
(dp574
g276
F0.00392
sg283
g2
(g284
g285
F0.0003965556800909707
tp575
Rp576
sg288
Nsg277
(dp577
g573
F1.0
ssbF75.82524155683579
sg2
(g279
g4
Ntp578
Rp579
(dp580
g276
F0.013188220432511739
sg283
g2
(g284
g285
F0.0010613741160807903
tp581
Rp582
sg288
Nsg277
(dp583
g579
F1.0
ssbF-22.53791164803779
ssbag2
(g272
g4
Ntp584
Rp585
(dp586
g276
F0.29581699451825894
sg277
(dp587
g2
(g279
g4
Ntp588
Rp589
(dp590
g276
F0.00098
sg283
g2
(g284
g285
F0.000136017476131652
tp591
Rp592
sg288
Nsg277
(dp593
g589
F1.0
ssbF301.85407603903974
sg2
(g279
g4
Ntp594
Rp595
(dp596
g276
F0.003312859024870901
sg283
g2
(g284
g285
F0.00041265047923591677
tp597
Rp598
sg288
Nsg277
(dp599
g595
F1.0
ssbF-89.29356555695473
ssbag2
(g272
g4
Ntp600
Rp601
(dp602
g276
F0.3122132059124311
sg277
(dp603
g2
(g279
g4
Ntp604
Rp605
(dp606
g276
F0.0032800000000000004
sg283
g2
(g284
g285
F0.0003213967570731965
tp607
Rp608
sg288
Nsg277
(dp609
g605
F1.0
ssbF95.18695302208266
sg2
(g279
g4
Ntp610
Rp611
(dp612
g276
F0.010505641458740753
sg283
g2
(g284
g285
F0.0014277254394805222
tp613
Rp614
sg288
Nsg277
(dp615
g611
F1.0
ssbF-29.718623764060403
ssbag2
(g272
g4
Ntp616
Rp617
(dp618
g276
F0.29457349604065347
sg277
(dp619
g2
(g279
g4
Ntp620
Rp621
(dp622
g276
F0.00086
sg283
g2
(g284
g285
F0.0003237863569417408
tp623
Rp624
sg288
Nsg277
(dp625
g621
F1.0
ssbF342.527320977504
sg2
(g279
g4
Ntp626
Rp627
(dp628
g276
F0.002919475144774441
sg283
g2
(g284
g285
F0.001187193469995665
tp629
Rp630
sg288
Nsg277
(dp631
g627
F1.0
ssbF-100.89947042978241
ssbag2
(g272
g4
Ntp632
Rp633
(dp634
g276
F0.3028154946894824
sg277
(dp635
g2
(g279
g4
Ntp636
Rp637
(dp638
g276
F0.0037600000000000003
sg283
g2
(g284
g285
F0.0008123178068578411
tp639
Rp640
sg288
Nsg277
(dp641
g637
F1.0
ssbF80.53603582167084
sg2
(g279
g4
Ntp642
Rp643
(dp644
g276
F0.012416801867604682
sg283
g2
(g284
g285
F0.002931215799924178
tp645
Rp646
sg288
Nsg277
(dp647
g643
F1.0
ssbF-24.387559527669126
ssbag2
(g272
g4
Ntp648
Rp649
(dp650
g276
F0.30190605615291305
sg277
(dp651
g2
(g279
g4
Ntp652
Rp653
(dp654
g276
F0.00098
sg283
g2
(g284
g285
F0.0003445477765151348
tp655
Rp656
sg288
Nsg277
(dp657
g653
F1.0
ssbF308.06740423766644
sg2
(g279
g4
Ntp658
Rp659
(dp660
g276
F0.0032460428667374515
sg283
g2
(g284
g285
F0.0011337432586001994
tp661
Rp662
sg288
Nsg277
(dp663
g659
F1.0
ssbF-93.00741504265909
ssbag2
(g272
g4
Ntp664
Rp665
(dp666
g276
F0.3225529848027834
sg277
(dp667
g2
(g279
g4
Ntp668
Rp669
(dp670
g276
F0.004
sg283
g2
(g284
g285
F0.0003827065468754888
tp671
Rp672
sg288
Nsg277
(dp673
g669
F1.0
ssbF80.63824620069585
sg2
(g279
g4
Ntp674
Rp675
(dp676
g276
F0.012401063355360658
sg283
g2
(g284
g285
F0.001490512850939543
tp677
Rp678
sg288
Nsg277
(dp679
g675
F1.0
ssbF-26.01010700129615
ssbag2
(g272
g4
Ntp680
Rp681
(dp682
g276
F0.29052096363530033
sg277
(dp683
g2
(g279
g4
Ntp684
Rp685
(dp686
g276
F0.0010199999999999999
sg283
g2
(g284
g285
F0.00043369458966087523
tp687
Rp688
sg288
Nsg277
(dp689
g685
F1.0
ssbF284.8244741522553
sg2
(g279
g4
Ntp690
Rp691
(dp692
g276
F0.003510934244595293
sg283
g2
(g284
g285
F0.0014075575888633203
tp693
Rp694
sg288
Nsg277
(dp695
g691
F1.0
ssbF-82.7474806976309
ssbag2
(g272
g4
Ntp696
Rp697
(dp698
g276
F0.31408896074329673
sg277
(dp699
g2
(g279
g4
Ntp700
Rp701
(dp702
g276
F0.0034000000000000002
sg283
g2
(g284
g285
F0.0012509418158739012
tp703
Rp704
sg288
Nsg277
(dp705
g701
F1.0
ssbF92.37910610096961
sg2
(g279
g4
Ntp706
Rp707
(dp708
g276
F0.010824958610305323
sg283
g2
(g284
g285
F0.0044715450731784194
tp709
Rp710
sg288
Nsg277
(dp711
g707
F1.0
ssbF-29.015257429648287
ssbag2
(g272
g4
Ntp712
Rp713
(dp714
g276
F0.30117077874215936
sg277
(dp715
g2
(g279
g4
Ntp716
Rp717
(dp718
g276
F0.0008399999999999999
sg283
g2
(g284
g285
F0.00027203495226330325
tp719
Rp720
sg288
Nsg277
(dp721
g717
F1.0
ssbF358.53664135971354
sg2
(g279
g4
Ntp722
Rp723
(dp724
g276
F0.0027891152106730354
sg283
g2
(g284
g285
F0.0009110692658342162
tp725
Rp726
sg288
Nsg277
(dp727
g723
F1.0
ssbF-107.98075948590323
ssbag2
(g272
g4
Ntp728
Rp729
(dp730
g276
F0.30803953235922044
sg277
(dp731
g2
(g279
g4
Ntp732
Rp733
(dp734
g276
F0.0032199999999999998
sg283
g2
(g284
g285
F0.0008393869038691047
tp735
Rp736
sg288
Nsg277
(dp737
g733
F1.0
ssbF95.66445104323617
sg2
(g279
g4
Ntp738
Rp739
(dp740
g276
F0.01045320376686261
sg283
g2
(g284
g285
F0.0025838600402417894
tp741
Rp742
sg288
Nsg277
(dp743
g739
F1.0
ssbF-29.468432762760006
ssbag2
(g272
g4
Ntp744
Rp745
(dp746
g276
F0.29397095465141354
sg277
(dp747
g2
(g279
g4
Ntp748
Rp749
(dp750
g276
F0.0008199999999999999
sg283
g2
(g284
g285
F0.00032139675707320035
tp751
Rp752
sg288
Nsg277
(dp753
g749
F1.0
ssbF358.501164209041
sg2
(g279
g4
Ntp754
Rp755
(dp756
g276
F0.0027893912205453897
sg283
g2
(g284
g285
F0.0009394569793295482
tp757
Rp758
sg288
Nsg277
(dp759
g755
F1.0
ssbF-105.38892948617494
ssbag2
(g272
g4
Ntp760
Rp761
(dp762
g276
F0.31818810938085573
sg277
(dp763
g2
(g279
g4
Ntp764
Rp765
(dp766
g276
F0.00354
sg283
g2
(g284
g285
F0.00037865662816394285
tp767
Rp768
sg288
Nsg277
(dp769
g765
F1.0
ssbF89.88364671775585
sg2
(g279
g4
Ntp770
Rp771
(dp772
g276
F0.011125494308660014
sg283
g2
(g284
g285
F0.0006391650464774273
tp773
Rp774
sg288
Nsg277
(dp775
g771
F1.0
ssbF-28.59990761337949
ssbag2
(g272
g4
Ntp776
Rp777
(dp778
g276
F0.30182761890471355
sg277
(dp779
g2
(g279
g4
Ntp780
Rp781
(dp782
g276
F0.0010000000000000002
sg283
g2
(g284
g285
F0.00015207216137916148
tp783
Rp784
sg288
Nsg277
(dp785
g781
F1.0
ssbF301.82761890471346
sg2
(g279
g4
Ntp786
Rp787
(dp788
g276
F0.0033131494182966023
sg283
g2
(g284
g285
F0.0005052344310675177
tp789
Rp790
sg288
Nsg277
(dp791
g787
F1.0
ssbF-91.09991153368898
ssbag2
(g272
g4
Ntp792
Rp793
(dp794
g276
F0.308822626103582
sg277
(dp795
g2
(g279
g4
Ntp796
Rp797
(dp798
g276
F0.00344
sg283
g2
(g284
g285
F0.0008893296495199864
tp799
Rp800
sg288
Nsg277
(dp801
g797
F1.0
ssbF89.77401921615757
sg2
(g279
g4
Ntp802
Rp803
(dp804
g276
F0.011139080200834092
sg283
g2
(g284
g285
F0.0029912009747195675
tp805
Rp806
sg288
Nsg277
(dp807
g803
F1.0
ssbF-27.724248370207217
ssbag2
(g272
g4
Ntp808
Rp809
(dp810
g276
F0.3003170888166111
sg277
(dp811
g2
(g279
g4
Ntp812
Rp813
(dp814
g276
F0.0009599999999999999
sg283
g2
(g284
g285
F0.0005454849131699476
tp815
Rp816
sg288
Nsg277
(dp817
g813
F1.0
ssbF312.8303008506366
sg2
(g279
g4
Ntp818
Rp819
(dp820
g276
F0.0031966212904595143
sg283
g2
(g284
g285
F0.0018115578863102477
tp821
Rp822
sg288
Nsg277
(dp823
g819
F1.0
ssbF-93.9482852450878
ssbag2
(g272
g4
Ntp824
Rp825
(dp826
g276
F0.3055445668167567
sg277
(dp827
g2
(g279
g4
Ntp828
Rp829
(dp830
g276
F0.0036199999999999995
sg283
g2
(g284
g285
F0.0007623857393945314
tp831
Rp832
sg288
Nsg277
(dp833
g829
F1.0
ssbF84.40457646871732
sg2
(g279
g4
Ntp834
Rp835
(dp836
g276
F0.011847698807784761
sg283
g2
(g284
g285
F0.0027843110889686842
tp837
Rp838
sg288
Nsg277
(dp839
g835
F1.0
ssbF-25.78935975448605
ssbag2
(g272
g4
Ntp840
Rp841
(dp842
g276
F0.2953397473750234
sg277
(dp843
g2
(g279
g4
Ntp844
Rp845
(dp846
g276
F0.00108
sg283
g2
(g284
g285
F0.0006766783998897135
tp847
Rp848
sg288
Nsg277
(dp849
g845
F1.0
ssbF273.4627290509476
sg2
(g279
g4
Ntp850
Rp851
(dp852
g276
F0.0036568054574402154
sg283
g2
(g284
g285
F0.0022787374006149903
tp853
Rp854
sg288
Nsg277
(dp855
g851
F1.0
ssbF-80.76441331439132
ssbag2
(g272
g4
Ntp856
Rp857
(dp858
g276
F0.298904255175375
sg277
(dp859
g2
(g279
g4
Ntp860
Rp861
(dp862
g276
F0.00396
sg283
g2
(g284
g285
F0.000368337066598402
tp863
Rp864
sg288
Nsg277
(dp865
g861
F1.0
ssbF75.4808725190341
sg2
(g279
g4
Ntp866
Rp867
(dp868
g276
F0.01324838951414915
sg283
g2
(g284
g285
F0.0016174085646325682
tp869
Rp870
sg288
Nsg277
(dp871
g867
F1.0
ssbF-22.561553980289318
ssbag2
(g272
g4
Ntp872
Rp873
(dp874
g276
F0.295236372247254
sg277
(dp875
g2
(g279
g4
Ntp876
Rp877
(dp878
g276
F0.0008400000000000001
sg283
g2
(g284
g285
F0.00018830766883484205
tp879
Rp880
sg288
Nsg277
(dp881
g877
F1.0
ssbF351.4718717229214
sg2
(g279
g4
Ntp882
Rp883
(dp884
g276
F0.002845177894600732
sg283
g2
(g284
g285
F0.0007272078264463728
tp885
Rp886
sg288
Nsg277
(dp887
g883
F1.0
ssbF-103.76728035442753
ssbag2
(g272
g4
Ntp888
Rp889
(dp890
g276
F0.3051984848326452
sg277
(dp891
g2
(g279
g4
Ntp892
Rp893
(dp894
g276
F0.004079999999999999
sg283
g2
(g284
g285
F0.00045111893325981863
tp895
Rp896
sg288
Nsg277
(dp897
g893
F1.0
ssbF74.80355020407971
sg2
(g279
g4
Ntp898
Rp899
(dp900
g276
F0.013368349460310253
sg283
g2
(g284
g285
F0.00152466196575189
tp901
Rp902
sg288
Nsg277
(dp903
g899
F1.0
ssbF-22.829930182387834
ssbag2
(g272
g4
Ntp904
Rp905
(dp906
g276
F0.30071844460910774
sg277
(dp907
g2
(g279
g4
Ntp908
Rp909
(dp910
g276
F0.00078
sg283
g2
(g284
g285
F0.000415540253473428
tp911
Rp912
sg288
Nsg277
(dp913
g909
F1.0
ssbF385.536467447574
sg2
(g279
g4
Ntp914
Rp915
(dp916
g276
F0.0025937883557953746
sg283
g2
(g284
g285
F0.001394219598603346
tp917
Rp918
sg288
Nsg277
(dp919
g915
F1.0
ssbF-115.93792683092437
ssbag2
(g272
g4
Ntp920
Rp921
(dp922
g276
F0.321200448818025
sg277
(dp923
g2
(g279
g4
Ntp924
Rp925
(dp926
g276
F0.0036399999999999996
sg283
g2
(g284
g285
F0.0007532306753393791
tp927
Rp928
sg288
Nsg277
(dp929
g925
F1.0
ssbF88.24188154341347
sg2
(g279
g4
Ntp930
Rp931
(dp932
g276
F0.011332487278254798
sg283
g2
(g284
g285
F0.0023384815835840946
tp933
Rp934
sg288
Nsg277
(dp935
g931
F1.0
ssbF-28.3433319562914
ssbag2
(g272
g4
Ntp936
Rp937
(dp938
g276
F0.30121982738795916
sg277
(dp939
g2
(g279
g4
Ntp940
Rp941
(dp942
g276
F0.00074
sg283
g2
(g284
g285
F0.0005013002154028702
tp943
Rp944
sg288
Nsg277
(dp945
g941
F1.0
ssbF407.05382079453943
sg2
(g279
g4
Ntp946
Rp947
(dp948
g276
F0.0024566775913024788
sg283
g2
(g284
g285
F0.0016630439086979356
tp949
Rp950
sg288
Nsg277
(dp951
g947
F1.0
ssbF-122.61268163734044
ssbag2
(g272
g4
Ntp952
Rp953
(dp954
g276
F0.3095011675422581
sg277
(dp955
g2
(g279
g4
Ntp956
Rp957
(dp958
g276
F0.00386
sg283
g2
(g284
g285
F0.0010702826761820803
tp959
Rp960
sg288
Nsg277
(dp961
g957
F1.0
ssbF80.18164962234665
sg2
(g279
g4
Ntp962
Rp963
(dp964
g276
F0.012471681546962082
sg283
g2
(g284
g285
F0.003466446208596452
tp965
Rp966
sg288
Nsg277
(dp967
g963
F1.0
ssbF-24.816314173580555
ssbag2
(g272
g4
Ntp968
Rp969
(dp970
g276
F0.29581825191374017
sg277
(dp971
g2
(g279
g4
Ntp972
Rp973
(dp974
g276
F0.00092
sg283
g2
(g284
g285
F0.00018416853329919822
tp975
Rp976
sg288
Nsg277
(dp977
g973
F1.0
ssbF321.54157816710887
sg2
(g279
g4
Ntp978
Rp979
(dp980
g276
F0.0031100177019106638
sg283
g2
(g284
g285
F0.0007183861224898395
tp981
Rp982
sg288
Nsg277
(dp983
g979
F1.0
ssbF-95.11786757097939
ssbag2
(g272
g4
Ntp984
Rp985
(dp986
g276
F0.31155257559087374
sg277
(dp987
g2
(g279
g4
Ntp988
Rp989
(dp990
g276
F0.0036199999999999995
sg283
g2
(g284
g285
F0.000522385029212231
tp991
Rp992
sg288
Nsg277
(dp993
g989
F1.0
ssbF86.06424740079387
sg2
(g279
g4
Ntp994
Rp995
(dp996
g276
F0.01161922668472409
sg283
g2
(g284
g285
F0.0023364318381533314
tp997
Rp998
sg288
Nsg277
(dp999
g995
F1.0
ssbF-26.813537944007493
ssbag2
(g272
g4
Ntp1000
Rp1001
(dp1002
g276
F0.29054046603686007
sg277
(dp1003
g2
(g279
g4
Ntp1004
Rp1005
(dp1006
g276
F0.00102
sg283
g2
(g284
g285
F0.000578407553652676
tp1007
Rp1008
sg288
Nsg277
(dp1009
g1005
F1.0
ssbF284.84359415378435
sg2
(g279
g4
Ntp1010
Rp1011
(dp1012
g276
F0.003510698574671507
sg283
g2
(g284
g285
F0.002154165278520298
tp1013
Rp1014
sg288
Nsg277
(dp1015
g1011
F1.0
ssbF-82.75859059305473
ssbag2
(g272
g4
Ntp1016
Rp1017
(dp1018
g276
F0.31933222407016576
sg277
(dp1019
g2
(g279
g4
Ntp1020
Rp1021
(dp1022
g276
F0.0032800000000000004
sg283
g2
(g284
g285
F0.0011015176368313962
tp1023
Rp1024
sg288
Nsg277
(dp1025
g1021
F1.0
ssbF97.35738538724564
sg2
(g279
g4
Ntp1026
Rp1027
(dp1028
g276
F0.010271434427110298
sg283
g2
(g284
g285
F0.0037785934532914645
tp1029
Rp1030
sg288
Nsg277
(dp1031
g1027
F1.0
ssbF-31.08935040536541
ssbag2
(g272
g4
Ntp1032
Rp1033
(dp1034
g276
F0.30095820553114006
sg277
(dp1035
g2
(g279
g4
Ntp1036
Rp1037
(dp1038
g276
F0.0008399999999999999
sg283
g2
(g284
g285
F0.00035771992844701165
tp1039
Rp1040
sg288
Nsg277
(dp1041
g1037
F1.0
ssbF358.28357801326206
sg2
(g279
g4
Ntp1042
Rp1043
(dp1044
g276
F0.002791085222340234
sg283
g2
(g284
g285
F0.0011931666505967777
tp1045
Rp1046
sg288
Nsg277
(dp1047
g1043
F1.0
ssbF-107.82838271014757
ssbatp1048
bsS'# groups'
p1049
I2
sS'xs type'
p1050
S'nu-scatter'
p1051
s.