(dp0
S'domain'
p1
ccopy_reg
_reconstructor
p2
(copenmc.universe
Cell
p3
c__builtin__
object
p4
Ntp5
Rp6
(dp7
S'_type'
p8
S'normal'
p9
sS'_rotation'
p10
NsS'_fill'
p11
g2
(copenmc.material
Material
p12
g4
Ntp13
Rp14
(dp15
S'_density_units'
p16
S'g/cm3'
p17
sS'_density'
p18
F0.07425478275227912
sS'_sab'
p19
NsS'_name'
p20
S''
p21
sS'_nuclides'
p22
(dp23
sS'_elements'
p24
(dp25
sS'_id'
p26
I10003
sbsg20
g21
sS'_translation'
p27
NsS'_offset'
p28
Nsg26
I10014
sS'_surfaces'
p29
(dp30
I10004
(g2
(copenmc.surface
ZCylinder
p31
g4
Ntp32
Rp33
(dp34
g8
S'z-cylinder'
p35
sS'_R'
p36
NsS'_coeffs'
p37
(dp38
S'y0'
p39
F0.0
sS'x0'
p40
F0.0
sS'R'
p41
F0.60198
ssg20
g21
sS'_bc_type'
p42
S'transmission'
p43
sg26
I10004
sS'_x0'
p44
NsS'_coeff_keys'
p45
(lp46
g40
ag39
ag41
asS'_y0'
p47
Nsbcnumpy.core.multiarray
scalar
p48
(cnumpy
dtype
p49
(S'i8'
p50
I0
I1
tp51
Rp52
(I3
S'<'
p53
NNNI-1
I-1
I0
tp54
bS'\x01\x00\x00\x00\x00\x00\x00\x00'
p55
tp56
Rp57
tp58
ssbsS'group bounds'
p59
cnumpy.core.multiarray
_reconstruct
p60
(cnumpy
ndarray
p61
(I0
tp62
S'b'
p63
tp64
Rp65
(I1
(I3
tp66
g49
(S'f8'
p67
I0
I1
tp68
Rp69
(I3
S'<'
p70
NNNI-1
I-1
I0
tp71
bI00
S'\x00\x00\x00\x00\x00\x00\x00\x00\xf1h\xe3\x88\xb5\xf8\xa4>\x00\x00\x00\x00\x00\x00$@'
p72
tp73
bsS'tallies'
p74
(dp75
S'flux'
p76
g2
(copenmc.tallies
Tally
p77
g4
Ntp78
Rp79
(dp80
S'_num_tot_score_bins'
p81
I1
sS'_label'
p82
S'2 groups'
p83
sS'_filters'
p84
(lp85
g2
(copenmc.tallies
Filter
p86
g4
Ntp87
Rp88
(dp89
S'_mesh'
p90
Nsg8
S'distribcell'
p91
sg28
I7
sS'_stride'
p92
I1
sS'_bin_edges'
p93
(lp94
I10014
asbag2
(g86
g4
Ntp95
Rp96
(dp97
g90
Nsg8
S'energy'
p98
sg28
I0
sg92
I24
sg93
(lp99
F0.0
aF6.25e-07
aF10.0
asbasS'_sum_sq'
p100
g60
(g61
(I0
tp101
g63
tp102
Rp103
(I1
(I48
I1
tp104
g69
I00
S"\\\x80\xb5'\xc7vA?\xea4\x1a0\xe9`z?\xba\xb1\xc2f\xc6\x85@?d\x177\r~\xd4z?x\xa9g\xdeYq9?J\x87\x9d\xcf*Ix?\xf3\xd4\x07d\xf1\x8b@?\xb2jt\xc0W!z?\xc7\x0e\xa5w}\xd6<?\xda\xc2\xa1k\x92\xfdx?\xe0r\x1d\xf1@\xe3A?9\xd5N\xee\x1ecw?\x9e\x11\xcaT\xcc\x8eA?\xa3\xfe\x08\xb7?{x?\xea\xe7\xc7\xd8\x95\xf8??\xdb\xff\x9buI&x?\xa3&\xa2\xf36s@?\xc0WB\x1aV^u?\xbe\xcc|A\x90:=?}?Qt\xf8\xe3w?\xf9oKGr\x9f@?\xb4\x0eTU\xc0(y?\x94\xe8\xc0\xd6UnA?\xf5\x80Tw\xda\xe9w?\xbc\x9b@\xad8\xa3A?\xfc\xfb\x11-\xd3Lx?Y\x14\rea\xfb;?A~\xc0\xe4\xdd\x00w?\xf0\x99\xcdoZp<?#\xfd\x9c\xf6x\xb2x?\xdd\xed\xd3\x1ck\xaa@?J\x04^2\xec\xaax?e`\xec\x0e\xb4\xde??P\xfa\x9f\xcc\x00px?W)\xaaAc&??zk\xe8-X\xc3x?P=4\xde\xebb;?\x04\xd4h\x15\xcf%y?\x04|6\x15?\xdd<?6Q\xcd\x0eb\xeax?\xee\xcd\xf9\x83\x93LB?p\xcd\xad\xe0v\xadx?\xa2\r6\xec\xb9\x15@?rF\xc6>W(z?\xa5\xd29\xc3\x14\x80;?\xafH\x04a\xf9+y?IQ\x9f\xabv\xad??\xc1\x15ZHc7x?"
p105
tp106
bsS'_std_dev'
p107
g60
(g61
(I0
tp108
g63
tp109
Rp110
(I1
(I48
I1
tp111
g69
I00
S'cu\xaeO+_`?\x9aiu\x8fM4Y?\x00\x83\xdd\xee7\xfaK?>\xd5\x1a&\xf8\xf6k?\x8e\x11"\xd1\xc9\x06[?\x8e7\x15t\xa3/`?\x1e\rKf\xc9\x13Q?\xa3\xb3<\x9e\t\x81Z?xD?\xe4\xc8eN?\x82S\xea\x10\x08J_?\xb0\xce8?\x10S@?\xe12\x93\xa2r-N?\xbb\xbd\xa7\xe2\xc4\x03`?Mk\\\xa4w\x14O?\x08\xeb\r\xc5&PF?~\xa3Z\xb9\xe5\xed\\?\xc0\xc1\xb5\x03\xc3\xe6A?\xb6\x858\xdc\xc3\x91U?\x95\x88\xbd\xfc\xaf\xe5Q?\xe6\x90\x0bK\x87\x8a`?U\xfc\x0f\x9fAWX?g6\x0b\xcfE\x8cU?;)\x07\xddg\xf3P?\xc3b\xad\x90\xdd\x11d?\xe8t*\x83c:S?\xa0\xca;3\xb0\x1e]?_\xfd\x82\xe8\x8fEI?5\x85\xc3q M`?\x85\x1b\xa7\x0bi\xd8W?8\xbd\xd3B\x0c\rE?t;\xab\x1a\xfc\x1c;?.<\xf8/\xb2\xfeW?\xeav\x15e\xef\xffW?\xb2|\xf0\xb4\t\xebP?\x04l\xe3\x10\xa7\xddQ?g\xa0\x85\x0c\xc43W?\xb2\xe4g\xe9F\rX?\x9e)\xa1<K\x99b?\x19\x9am\x1f>H[?\x85\xf6?\x88\x96\xbac?\xc2\x9e\xea\xa8\x90DF?w\xf9<c\x0e\xceW?\xcaL\x83\xe9f\x8dU?\r)<\xbc\x868a?3\xfe\xba\x87~IS?\xae\xb4r\xa7\x84\x00b?\xc4\x03\x92z-rF?\xaf\x91\xb6c\x1f{U?'
p112
tp113
bsS'_num_tot_filter_bins'
p114
I48
sS'_mean'
p115
g60
(g61
(I0
tp116
g63
tp117
Rp118
(I1
(I48
I1
tp119
g69
I00
S'h?\xd6\xc2\t\xf0\x84?\xed\xf4\xa2\x95\xca]\xa2?\x1e\xbe\x0e|\x1e\x87\x84?.18\xae(}\xa2?6E\xf4\x14\xa5\xe1\x81?\\\xcf\xb7^\xb9\x9d\xa1?X\xd169\x1d\x86\x84?P\xcd@lYG\xa2?\xb4f<e\xef)\x83?\xdaN8\xed\x0b\xdf\xa1?K]\x92\xff\xf5b\x85?:j4]oL\xa1?\x0c\xe3x\x04\xfd\x00\x85?\x12\x8f\xd8\xc3\xd6\xb2\xa1?\xe2\x1b\x12TW4\x84?\x92s~6\xd0\x91\xa1?\n\xe4\x8b\xa9b\x81\x84?D{\xdf\xb1\xfd\x87\xa0?\x95q\x7f\xd3oF\x83?+\xae\x99\xa3\xa2x\xa1?]\x15\x9b\x8e\x10\x83\x84?\th\xc4]X\xf0\xa1?\xc8Kf\xcb\xab\x11\x85?\x0c\x1bv1\xdfx\xa1?\x92)\xb1|\xab-\x85?\x8f\xf1Q\xf1\xc9\x9f\xa1?\xfaA\xba\x93 \xe4\x82?e\xe6Q5\xc6$\xa1?\xe5\xb2\xdb\x9dB\xf5\x82?\x92\xe8\x14\xd0=\xc7\xa1?\xf2\x07\x12Qs\xa5\x84?\x07@%6\xd3\xc2\xa1?\x9dd\xe5\xce\xda\x14\x84?`\x87\xb3>\x9b\xae\xa1?\xe4\x19\x8dk.\xe7\x83?E\xbd\xba\xc7\xc0\xcb\xa1?eu\xdd\xfb\xe1\x98\x82?\xfb\x8f\x15\x1f\xf8\xeb\xa1?\xb5G\xd4\x9eS\x10\x83?#\xb9\xcf\x87\x11\xd6\xa1?=\xb4\x01\xfc\xe2\x9e\x85?\xfb\xff\x8b$\xc6\xc3\xa1?\xe2\xb2h\xe8\xfc2\x84?D\x13\xea6\x15H\xa2?\n!\xc5\x84d\xae\x82?\xce\x84,\x84|\xee\xa1?\xc2\xa6\xcc\xe6i\x1c\x84?EM#\x1cl\x99\xa1?'
p120
tp121
bsS'_num_realizations'
p122
I5
sg22
(lp123
sS'_sum'
p124
g60
(g61
(I0
tp125
g63
tp126
Rp127
(I1
(I48
I1
tp128
g69
I00
S'B\xcf\x8b3\x0c,\xaa?(\xb2\x0b;=\xf5\xc6?\xa5m\x12\x1b\xe6\xa8\xa9?z=\xc6\xd9r\x1c\xc7?\x84V1Z\x0eZ\xa6?3\xc3e\xb6\'\x05\xc6?\xae\x85\x84\x87\xa4\xa7\xa9?\xa4\x00Q\xc7/\xd9\xc6?a\x80\x8b>k\xf4\xa7?\x91b\x86\xe8\xceV\xc6?\x9e\xf4v\x7f\xb3\xbb\xaa?\xc9\x84\x814\x8b\x9f\xc5?\xcf\x1b\x97E<A\xaa?\xd6\xb2\xcet\x8c\x1f\xc6?\xda\xa2\x16)mA\xa9?v\x10\x1eDD\xf6\xc5?\x0c\xdd\xeeS\xbb\xa1\xa9?\x15ZW\x1e\xfd\xa9\xc4?\xfaM_\xc8\x0b\x18\xa8?\xb6\x19\x80L\xcb\xd6\xc5?\xb4\xdaA\xb2\xd4\xa3\xa9?\x0b\x825unl\xc6?\xba\xde?\xbe\x16V\xaa?\xcf\xa1\xd3\xfd\x16\xd7\xc5?\xf7s\xdd[\x16y\xaa?\xf3m\xa6m\xbc\x07\xc6?x\xd2\xa8\xb8(\x9d\xa7?\xfe_\xa6\xc2\xf7m\xc5?\x9e\x9fRE\x93\xb2\xa7?\xb6"\x1aD\r9\xc6?\xef\x89V%\xd0\xce\xa9?\t\x90\xae\x03\x883\xc6?\xc4\xbd\x9e\x82\x11\x1a\xa9?8i`\x0eB\x1a\xc6?]`p\x06\xfa\xe0\xa8?\x96l\xa9\xf9\xb0>\xc6?\xbe\xd2\xd4z\x1a?\xa7?\xfa\xf3\xda&\xf6f\xc6?\xa2Y\x89\x86h\xd4\xa7?l\xa7\xc3\xe9\x95K\xc6?L!\x02\xbb\x9b\x06\xab?\xfa\xff\xae\xad\xb74\xc6?\x9b\xdf\x82"\xbc?\xa9?\x15\x98\xa4\x84\x1a\xda\xc6?Li\xf6\xa5\xfdY\xa7?\x02\xa67\xa5\x1bj\xc6?r\xd0\x7f`\x84#\xa9?\x96 ,#\xc7\xff\xc5?'
p129
tp130
bsS'_estimator'
p131
S'tracklength'
p132
sS'_scores'
p133
(lp134
g76
asg26
I10038
sbsS'scatter'
p135
g2
(g77
g4
Ntp136
Rp137
(dp138
g81
I1
sg82
S'2 groups'
p139
sg84
(lp140
g2
(g86
g4
Ntp141
Rp142
(dp143
g90
Nsg8
g91
sg28
I7
sg92
I1
sg93
(lp144
I10014
asbag2
(g86
g4
Ntp145
Rp146
(dp147
g90
Nsg8
g98
sg28
I0
sg92
I24
sg93
(lp148
F0.0
aF6.25e-07
aF10.0
asbasg100
g60
(g61
(I0
tp149
g63
tp150
Rp151
(I1
(I48
I1
tp152
g69
I00
S'\xcb\xc8\x1e[\xe9\xd3Q?rzH\xfc\xa9\xa5g?\xad!\x8a\x81j\xf8P?\xd4\xe6z\x80/\x95h?=\x99\x0cg\xb2\x92I?\xd8\xba\x04{<\xa8f?\xe6\xa0\x17\xeeDGQ?\t\xdd\xe0W\xad\x88g?R\xc6\xb3\xc1\x88\x02N?\x8a\x85\xd6\xda5\xfaf?\xca\xd2\xd7]\x00\xf6Q?R\xc9I\xe8?\xd6d?\x8e\x80\x9f\x84\x18\xfeQ?\xc3|\x17\xac\xf1-f?\xad\xfd\x89WxmP?\x95^\xcd\x7f%\x99f?GS\x0e\x01U=Q?\xe0\x03\x10\nz\xb5c?\x9c\xfc\xfa\xbb\xfd\xd4M?\xfb\xf9\x13\x07\xe79f?\x9a\t]\xd5\x17\x10Q?\xa2(Q\xfbI\xe9g?\x02\x0f\xc6*@\x16R?6\xb7\x14\xe0\xd2\xf8f?h\x19#\x88\x8b#R?\xa9I\n=\xdaTf?\xaad^\xc2|\xadL?\x92\xd0\xb6L\x80\xd4d?\x96s\x8e\x8d\x13wM?\xb0Y\x10\xd7A\xfcf?e\x0b\x10\xd6\xf9\x17Q?5\xad\x9c\x89j\xb7f?}I!\xf5\x156P?\xb6\xbb\xb2\x18\xb4Yg?\xff\ny\x08".P?\x1fIB\xb1G\xacf?\xee\xf95\xa9\xb3*L?\xda\x04s\x0e\xe0\xcag?8`(\xef\x81\x88M?x\x9a\x8e\x1d>\x87g?\xcd\xc8\x9d2\x9d6S?\x1e\x9c,~M\x8bf?\x9e\xb5\xd6\xf6>-P?T"\x19O\x01\x8dh?\xd2\xdc\x14\xd8\xab\xc5K?\xc6\xb16\xa2\xea\x9cf?\xb9\x8d\tr\xc6\x02P?\x8e\x98-\xc1\xae\xa7f?'
p153
tp154
bsg107
g60
(g61
(I0
tp155
g63
tp156
Rp157
(I1
(I48
I1
tp158
g69
I00
S'\x8f\xe0\x86nL]f?_J\xc2\x8e\x99\x9dT?\xb2\xe8\x86\xaeq\xe6U?*\xfbo!\xc2\xbaa?u<\xdf\x96.\xcfb?\x13=U\\}\xf1V?\xcd\xafy\x18y\\X?\xb3\xd4\x0e\x91\xbd\x80T?(\t_\xd0w\x11V?\xd9;\xa9^\x83\x98Q?\n!\xfa\x19tsI?+,\xb9p\xb3\x10Y?\xdb\x1a\xf1\xd4\x91\xcbg?)\xda\n\xd1\xe6KT?\x86u.\xae\x82\xf8K?\xf6\xe5\x13GP\xc3P?\xa8\x94\x0cx.9R?\x95\x9d\xf4D"NV?\xcf\xa9\x90\x9f\x1e#Z?h\xa8\x8b\x04\xf5&W?\xd9\xdb\xb6&\xb4<c?\x9c\x08\xe8\xa6`\xf6R?\xe2 Y-\xa0\xfbW?\xc58\xf1H\xde\xea]?\xfcO\xe0O\xd0D_?\xd2\xd0-\xa9\x14KS?l78\x8a2?S?*\xef\x01\xc6\xe9BU?&\xfa\xf90\x7f>a?P\x98\xd1\xb7\xe7JN?A\ra\xcd\x05\x82=?\x97\x835V\xba\x0fP?\xa5\xe8T7`\x12b?\x98bpsS\x02I?\xc7\x84\xdb%\xd1H`?\xb7\xc9\xbaQ\xf6FN?\x1b\x1f\xef\xf0\xce\xb5`?\xaa\xd6\x9b\xd5\xf9n`?S\x1d+R\xd7\x9ae?\xc5\xe5\xccX/\x81Z?\xb0\x82\xab\xe4b\x92T?\x87\x0e7\x1fw\x88P?\x99\xc1\xe6A\xf3\xb3]?O\xc4\xe9e^Bb?\xc9\x9e\xa6#\x15\xe5Y?\xbd8\xa3:D\xe1`?\\\xd9m\xa4\xff-Q?o\x9e\xb3\xde\t\xe7T?'
p159
tp160
bsg114
I48
sg115
g60
(g61
(I0
tp161
g63
tp162
Rp163
(I1
(I48
I1
tp164
g69
I00
S"&\xcaqjP\xf1\x8d?\x06\xa1\xd6\xcd0\x96\x98?\xb0h\x8d\x8a)i\x8d?F\xd9\xbcQ\x0e\t\x99?N\x89\xe4\x9b~\\\x89?\xc2\x1dN\xa5\xbf\x0f\x98?RU\xbc\x8c\x81\xa9\x8d?E[\xa9y!\x87\x98?;\x93\xd3yd\xa5\x8b?\x87\x04\x19\x19\x86=\x98?\xcb*A0\xa2M\x8e?k\xfc\xffC\x83\x11\x97?\xd8\xce1]-\x0c\x8e?\xd6\xf6\xdc\xc2\x97\xcf\x97?^\x81P\xa2i\xf9\x8c?\x05\x92@s]\n\x98?\x1d\xc1\xf9\x17\x13\xaa\x8d?\xd6k\xe8\xd7\x8ep\x96?\x13=\xb3\xc4\xe2\x88\x8b?\xd5\xc5\xfd\xce\xaa\xd4\x97?\x92\x7f[\xabrZ\x8d?=\x89`@\xfc\xb9\x98?\x1bD\x8e\xd3\xb6Z\x8e?5t\x18\x84\x856\x98?cJ|\xa4)X\x8e?\x1c\xa6\xf7\x7f\xe7\xe4\x97?3\x86\xdf\xa7)\n\x8b?\x88>\xf5@\x86\x12\x97?\xa5\x16\xde*\xddI\x8b?8?euv?\x98?F\xff\xb8s\x84\x93\x8d?q\x15U_\xb5\x1a\x98?\x10\x11\xa4\xec'\xa0\x8c?DY\x8eG_q\x98?N\xd4\x0b\xca\xf2\xa1\x8c?^) 0\x1a\x15\x98?meBO\x00\xaf\x8a?R>\x90\xed\xa2\xa2\x98?v\x1e\xcbC?8\x8b?\xb2\x91\xb0\x94e\x83\x98?\x80V\xfb\x84BO\x8f?\x8e\xffx\x89\x12\x03\x98?58q,\x9f\xa7\x8c?\n\xd4\x96\xcd\x14\x04\x99?k;^\xb7\xd3\x8f\x8a?j\xaa\xe8\xb7\x19\x03\x98?\x03\x18\xf4n\xec\x96\x8c?;\x1f\xe5>k\x10\x98?"
p165
tp166
bsg122
I5
sg22
(lp167
sg124
g60
(g61
(I0
tp168
g63
tp169
Rp170
(I1
(I48
I1
tp171
g69
I00
S"X\x1e\x87B\xd2\xb6\xb2?GIL\x01\xbd\xbb\xbe?na\x98\xf6\xb9a\xb2?\x98\x0f,\xe6QK\xbf?\xa2\xab\xddB\x9e\xb3\xaf?2\xa5\xa1\x8e\xaf\x13\xbe?S\xb5\xf5\xf7\xf0\x89\xb2?\x16\xb2\x13\xd8\xe9\xa8\xbe?\x05<$\xcc^G\xb1?\xa9E_\x9f\xe7L\xbe?\xbf\xba(^\x85\xf0\xb2?\x86\xfb\xff\x14\xe4\xd5\xbc?G!?Z\x9c\xc7\xb2?\x8b4\x94\xb3}\xc3\xbd?\xdbPr\x05\xe2\x1b\xb2?\x86\xb6\x10\xd0\xf4\x0c\xbe?\xb2\x18\xfc\xeeK\x8a\xb2?\xcb\x86\xe2\x8d\xb2\x0c\xbc?,\x06\xf0\xba\x8d5\xb1?J7\xbd\x82\xd5\xc9\xbd?\xbb/\x19\xab\x87X\xb2?\x8c\xabxP{\xe8\xbe?\x91\xea8D\xb2\xf8\xb2?B\x91\x1e\xe5&D\xbe?~\xae\xcd\x06\x1a\xf7\xb2?\xa3\x8f\xf5_!\xde\xbd?\xe0\xb3\xeb\x08Z\xe6\xb0?*\x8e2\xd1'\xd7\xbc?'\xce\xca:*\x0e\xb1?\x06\x8f\xbe\x12TO\xbe?\x8c\x9fS\xc82|\xb2?\xcdZ*\xb7b!\xbe?\xaa\x8a\xe6\xf3\x18\xe4\xb1?\x95\xefq\x19\xb7\x8d\xbe?\xb1dG\xbe7\xe5\xb1?\xb53(\xbc`\x1a\xbe?d\x7f\x891`\xad\xb0?\xe6M\xf4\xa8K\xcb\xbe?\n\xf3^\x8a'\x03\xb1?\x1e\xb6\xdc\xf9>\xa4\xbe?\x10\x16\x1d\x93\x89\x91\xb3?q?\xd7+\xd7\x03\xbe?!\xc3\xc6{\xc3\xe8\xb1?\r\x89\xfc\x00\x1aE\xbf?#\xe5\x9aR\xe4\x99\xb0?\x04\xd5\xe2%\xe0\x03\xbe?\x02\x8fX\xc5S\xde\xb1?\ng\x9e\x0e\x86\x14\xbe?"
p172
tp173
bsg131
g132
sg133
(lp174
g135
asg26
I10046
sbssS'subdomain offsets'
p175
(dp176
I389
g48
(g52
S'\t\x00\x00\x00\x00\x00\x00\x00'
p177
tp178
Rp179
sI776
g48
(g52
S'\x11\x00\x00\x00\x00\x00\x00\x00'
p180
tp181
Rp182
sI787
g48
(g52
S'\x12\x00\x00\x00\x00\x00\x00\x00'
p183
tp184
Rp185
sI917
g48
(g52
S'\x14\x00\x00\x00\x00\x00\x00\x00'
p186
tp187
Rp188
sI158
g48
(g52
S'\x00\x00\x00\x00\x00\x00\x00\x00'
p189
tp190
Rp191
sI544
g48
(g52
S'\n\x00\x00\x00\x00\x00\x00\x00'
p192
tp193
Rp194
sI169
g48
(g52
S'\x01\x00\x00\x00\x00\x00\x00\x00'
p195
tp196
Rp197
sI555
g48
(g52
S'\x0b\x00\x00\x00\x00\x00\x00\x00'
p198
tp199
Rp200
sI180
g48
(g52
S'\x02\x00\x00\x00\x00\x00\x00\x00'
p201
tp202
Rp203
sI952
g48
(g52
S'\x15\x00\x00\x00\x00\x00\x00\x00'
p204
tp205
Rp206
sI577
g48
(g52
S'\x0c\x00\x00\x00\x00\x00\x00\x00'
p207
tp208
Rp209
sI963
g48
(g52
S'\x16\x00\x00\x00\x00\x00\x00\x00'
p210
tp211
Rp212
sI588
g48
(g52
S'\r\x00\x00\x00\x00\x00\x00\x00'
p213
tp214
Rp215
sI974
g48
(g52
S'\x17\x00\x00\x00\x00\x00\x00\x00'
p216
tp217
Rp218
sI215
g48
(g52
S'\x03\x00\x00\x00\x00\x00\x00\x00'
p219
tp220
Rp221
sI345
g48
(g52
S'\x05\x00\x00\x00\x00\x00\x00\x00'
p222
tp223
Rp224
sI356
g48
(g52
S'\x06\x00\x00\x00\x00\x00\x00\x00'
p225
tp226
Rp227
sI743
g48
(g52
S'\x0e\x00\x00\x00\x00\x00\x00\x00'
p228
tp229
Rp230
sI878
g48
(g52
S'\x13\x00\x00\x00\x00\x00\x00\x00'
p231
tp232
Rp233
sI367
g48
(g52
S'\x07\x00\x00\x00\x00\x00\x00\x00'
p234
tp235
Rp236
sI754
g48
(g52
S'\x0f\x00\x00\x00\x00\x00\x00\x00'
p237
tp238
Rp239
sI378
g48
(g52
S'\x08\x00\x00\x00\x00\x00\x00\x00'
p240
tp241
Rp242
sI765
g48
(g52
S'\x10\x00\x00\x00\x00\x00\x00\x00'
p243
tp244
Rp245
sI254
g48
(g52
S'\x04\x00\x00\x00\x00\x00\x00\x00'
p246
tp247
Rp248
ssS'offset'
p249
I7
sS'domain type'
p250
g91
sS'xs'
p251
g60
(g61
(I0
tp252
g63
tp253
Rp254
(I1
(I24
I2
tp255
g49
(S'O8'
p256
I0
I1
tp257
Rp258
(I3
S'|'
p259
NNNI-1
I-1
I63
tp260
bI00
(lp261
g2
(cuncertainties
AffineScalarFunc
p262
g4
Ntp263
Rp264
(dp265
S'_nominal_value'
p266
F0.6693396386574921
sS'derivatives'
p267
(dp268
g2
(cuncertainties
Variable
p269
g4
Ntp270
Rp271
(dp272
g266
F0.024010431826952526
sS'_std_dev'
p273
g2
(cuncertainties
CallableStdDev
p274
c__builtin__
float
p275
F0.0012582778536268863
tp276
Rp277
sS'tag'
p278
Nsg267
(dp279
g271
F1.0
ssbF27.8770345940274
sg2
(g269
g4
Ntp280
Rp281
(dp282
g266
F0.03587182118051566
sg273
g2
(g274
g275
F0.0015383489061010281
tp283
Rp284
sg278
Nsg267
(dp285
g281
F1.0
ssbF-18.659204262008707
ssbag2
(g262
g4
Ntp286
Rp287
(dp288
g266
F1.430085745550846
sg267
(dp289
g2
(g269
g4
Ntp290
Rp291
(dp292
g266
F0.01462042641489798
sg273
g2
(g274
g275
F0.00273003509593301
tp293
Rp294
sg278
Nsg267
(dp295
g291
F1.0
ssbF97.81422955582278
sg2
(g269
g4
Ntp296
Rp297
(dp298
g266
F0.010223461397600622
sg273
g2
(g274
g275
F0.0019985052035297753
tp299
Rp300
sg278
Nsg267
(dp301
g297
F1.0
ssbF-139.8827353998204
ssbag2
(g262
g4
Ntp302
Rp303
(dp304
g266
F0.6770378999290416
sg267
(dp305
g2
(g269
g4
Ntp306
Rp307
(dp308
g266
F0.0244486081494071
sg273
g2
(g274
g275
F0.002164248620374028
tp309
Rp310
sg278
Nsg267
(dp311
g307
F1.0
ssbF27.69228807593533
sg2
(g269
g4
Ntp312
Rp313
(dp314
g266
F0.03611113669112097
sg273
g2
(g274
g275
F0.0034136625916640065
tp315
Rp316
sg278
Nsg267
(dp317
g313
F1.0
ssbF-18.748728563161297
ssbag2
(g262
g4
Ntp318
Rp319
(dp320
g266
F1.432729145639109
sg267
(dp321
g2
(g269
g4
Ntp322
Rp323
(dp324
g266
F0.014360737362654724
sg273
g2
(g274
g275
F0.001336680428819775
tp325
Rp326
sg278
Nsg267
(dp327
g323
F1.0
ssbF99.76710174819706
sg2
(g269
g4
Ntp328
Rp329
(dp330
g266
F0.010023344193398617
sg273
g2
(g274
g275
F0.0008538029776269107
tp331
Rp332
sg278
Nsg267
(dp333
g329
F1.0
ssbF-142.93923445058445
ssbag2
(g262
g4
Ntp334
Rp335
(dp336
g266
F0.682940738438258
sg267
(dp337
g2
(g269
g4
Ntp338
Rp339
(dp340
g266
F0.023497576202798028
sg273
g2
(g274
g275
F0.0014003490662906667
tp341
Rp342
sg278
Nsg267
(dp343
g339
F1.0
ssbF29.06430572004849
sg2
(g269
g4
Ntp344
Rp345
(dp346
g266
F0.034406464397675335
sg273
g2
(g274
g275
F0.0019758408022089785
tp347
Rp348
sg278
Nsg267
(dp349
g345
F1.0
ssbF-19.849198410645204
ssbag2
(g262
g4
Ntp350
Rp351
(dp352
g266
F1.4183045600045827
sg267
(dp353
g2
(g269
g4
Ntp354
Rp355
(dp356
g266
F0.012383450634449258
sg273
g2
(g274
g275
F0.002296057696163307
tp357
Rp358
sg278
Nsg267
(dp359
g355
F1.0
ssbF114.53225775851453
sg2
(g269
g4
Ntp360
Rp361
(dp362
g266
F0.008731164648028238
sg273
g2
(g274
g275
F0.0016495676868838213
tp363
Rp364
sg278
Nsg267
(dp365
g361
F1.0
ssbF-162.4416234465214
ssbag2
(g262
g4
Ntp366
Rp367
(dp368
g266
F0.6709405890943045
sg267
(dp369
g2
(g269
g4
Ntp370
Rp371
(dp372
g266
F0.023952982950812957
sg273
g2
(g274
g275
F0.0012513972508092885
tp373
Rp374
sg278
Nsg267
(dp375
g371
F1.0
ssbF28.01073212768821
sg2
(g269
g4
Ntp376
Rp377
(dp378
g266
F0.03570060202073455
sg273
g2
(g274
g275
F0.0016176790167705477
tp379
Rp380
sg278
Nsg267
(dp381
g377
F1.0
ssbF-18.793537114713892
ssbag2
(g262
g4
Ntp382
Rp383
(dp384
g266
F1.4452495379334591
sg267
(dp385
g2
(g269
g4
Ntp386
Rp387
(dp388
g266
F0.014483463389789595
sg273
g2
(g274
g275
F0.001486891038349636
tp389
Rp390
sg278
Nsg267
(dp391
g387
F1.0
ssbF99.78618366600881
sg2
(g269
g4
Ntp392
Rp393
(dp394
g266
F0.010021427448784578
sg273
g2
(g274
g275
F0.001042315177230808
tp395
Rp396
sg278
Nsg267
(dp397
g393
F1.0
ssbF-144.2159358354425
ssbag2
(g262
g4
Ntp398
Rp399
(dp400
g266
F0.6781924184271428
sg267
(dp401
g2
(g269
g4
Ntp402
Rp403
(dp404
g266
F0.023672194749682986
sg273
g2
(g274
g275
F0.0010739596279056767
tp405
Rp406
sg278
Nsg267
(dp407
g403
F1.0
ssbF28.64932574265109
sg2
(g269
g4
Ntp408
Rp409
(dp410
g266
F0.03490483542205221
sg273
g2
(g274
g275
F0.001909740330721749
tp411
Rp412
sg278
Nsg267
(dp413
g409
F1.0
ssbF-19.42975551171554
ssbag2
(g262
g4
Ntp414
Rp415
(dp416
g266
F1.4426184374923756
sg267
(dp417
g2
(g269
g4
Ntp418
Rp419
(dp420
g266
F0.013499054878090546
sg273
g2
(g274
g275
F0.0013469381387812372
tp421
Rp422
sg278
Nsg267
(dp423
g419
F1.0
ssbF106.86810673196074
sg2
(g269
g4
Ntp424
Rp425
(dp426
g266
F0.009357328679061673
sg273
g2
(g274
g275
F0.0009276610294312168
tp427
Rp428
sg278
Nsg267
(dp429
g425
F1.0
ssbF-154.16990115142963
ssbag2
(g262
g4
Ntp430
Rp431
(dp432
g266
F0.6667719787112214
sg267
(dp433
g2
(g269
g4
Ntp434
Rp435
(dp436
g266
F0.02252774336374978
sg273
g2
(g274
g275
F0.0015298607203415675
tp437
Rp438
sg278
Nsg267
(dp439
g435
F1.0
ssbF29.597814922916278
sg2
(g269
g4
Ntp440
Rp441
(dp442
g266
F0.03378627789262052
sg273
g2
(g274
g275
F0.0009209451428887316
tp443
Rp444
sg278
Nsg267
(dp445
g441
F1.0
ssbF-19.7349936216814
ssbag2
(g262
g4
Ntp446
Rp447
(dp448
g266
F1.416929480707455
sg267
(dp449
g2
(g269
g4
Ntp450
Rp451
(dp452
g266
F0.014796511743175774
sg273
g2
(g274
g275
F0.0007767025853846765
tp453
Rp454
sg278
Nsg267
(dp455
g451
F1.0
ssbF95.76104863776087
sg2
(g269
g4
Ntp456
Rp457
(dp458
g266
F0.010442659246378347
sg273
g2
(g274
g275
F0.0004981831866132849
tp459
Rp460
sg278
Nsg267
(dp461
g457
F1.0
ssbF-135.68665291830385
ssbag2
(g262
g4
Ntp462
Rp463
(dp464
g266
F0.6726781636750322
sg267
(dp465
g2
(g269
g4
Ntp466
Rp467
(dp468
g266
F0.023252841251852306
sg273
g2
(g274
g275
F0.0012387994831165683
tp469
Rp470
sg278
Nsg267
(dp471
g467
F1.0
ssbF28.92885890327261
sg2
(g269
g4
Ntp472
Rp473
(dp474
g266
F0.034567557723020795
sg273
g2
(g274
g275
F0.0009484848203301449
tp475
Rp476
sg278
Nsg267
(dp477
g473
F1.0
ssbF-19.459811684267525
ssbag2
(g262
g4
Ntp478
Rp479
(dp480
g266
F1.4305735298859141
sg267
(dp481
g2
(g269
g4
Ntp482
Rp483
(dp484
g266
F0.014671663672039356
sg273
g2
(g274
g275
F0.0029046867635175006
tp485
Rp486
sg278
Nsg267
(dp487
g483
F1.0
ssbF97.50588357694168
sg2
(g269
g4
Ntp488
Rp489
(dp490
g266
F0.010255791377049593
sg273
g2
(g274
g275
F0.0019549222390577692
tp491
Rp492
sg278
Nsg267
(dp493
g489
F1.0
ssbF-139.48933605331044
ssbag2
(g262
g4
Ntp494
Rp495
(dp496
g266
F0.6841507846426089
sg267
(dp497
g2
(g269
g4
Ntp498
Rp499
(dp500
g266
F0.02347703948920989
sg273
g2
(g274
g275
F0.0010231288873100409
tp501
Rp502
sg278
Nsg267
(dp503
g499
F1.0
ssbF29.14127162230342
sg2
(g269
g4
Ntp504
Rp505
(dp506
g266
F0.03431559243401873
sg273
g2
(g274
g275
F0.0017657035254307891
tp507
Rp508
sg278
Nsg267
(dp509
g505
F1.0
ssbF-19.93702384588228
ssbag2
(g262
g4
Ntp510
Rp511
(dp512
g266
F1.4340532558598824
sg267
(dp513
g2
(g269
g4
Ntp514
Rp515
(dp516
g266
F0.014147591844505921
sg273
g2
(g274
g275
F0.0008535993659852116
tp517
Rp518
sg278
Nsg267
(dp519
g515
F1.0
ssbF101.363770712454
sg2
(g269
g4
Ntp520
Rp521
(dp522
g266
F0.009865457776198686
sg273
g2
(g274
g275
F0.0006809415154827867
tp523
Rp524
sg278
Nsg267
(dp525
g521
F1.0
ssbF-145.36104541642925
ssbag2
(g262
g4
Ntp526
Rp527
(dp528
g266
F0.6787063096624542
sg267
(dp529
g2
(g269
g4
Ntp530
Rp531
(dp532
g266
F0.021913749626133093
sg273
g2
(g274
g275
F0.0013614020024962138
tp533
Rp534
sg278
Nsg267
(dp535
g531
F1.0
ssbF30.971710512429492
sg2
(g269
g4
Ntp536
Rp537
(dp538
g266
F0.03228752895642242
sg273
g2
(g274
g275
F0.0013164913842803445
tp539
Rp540
sg278
Nsg267
(dp541
g537
F1.0
ssbF-21.02069534582486
ssbag2
(g262
g4
Ntp542
Rp543
(dp544
g266
F1.4466597528170975
sg267
(dp545
g2
(g269
g4
Ntp546
Rp547
(dp548
g266
F0.01448454777639135
sg273
g2
(g274
g275
F0.0011122659490834606
tp549
Rp550
sg278
Nsg267
(dp551
g547
F1.0
ssbF99.8760731194547
sg2
(g269
g4
Ntp552
Rp553
(dp554
g266
F0.010012408064982398
sg273
g2
(g274
g275
F0.0005463077754211329
tp555
Rp556
sg278
Nsg267
(dp557
g553
F1.0
ssbF-144.4866952513327
ssbag2
(g262
g4
Ntp558
Rp559
(dp560
g266
F0.6819991794183603
sg267
(dp561
g2
(g269
g4
Ntp562
Rp563
(dp564
g266
F0.023272198566194852
sg273
g2
(g274
g275
F0.0014130966903232126
tp565
Rp566
sg278
Nsg267
(dp567
g563
F1.0
ssbF29.305317994709398
sg2
(g269
g4
Ntp568
Rp569
(dp570
g266
F0.034123499365559994
sg273
g2
(g274
g275
F0.0020191805309527243
tp571
Rp572
sg278
Nsg267
(dp573
g569
F1.0
ssbF-19.986202824985916
ssbag2
(g262
g4
Ntp574
Rp575
(dp576
g266
F1.4285086768114674
sg267
(dp577
g2
(g269
g4
Ntp578
Rp579
(dp580
g266
F0.01344468272000524
sg273
g2
(g274
g275
F0.0015952872329402128
tp581
Rp582
sg278
Nsg267
(dp583
g579
F1.0
ssbF106.25082841753446
sg2
(g269
g4
Ntp584
Rp585
(dp586
g266
F0.009411691324140029
sg273
g2
(g274
g275
F0.0010923594117789083
tp587
Rp588
sg278
Nsg267
(dp589
g585
F1.0
ssbF-151.78023031285443
ssbag2
(g262
g4
Ntp590
Rp591
(dp592
g266
F0.6891887595707119
sg267
(dp593
g2
(g269
g4
Ntp594
Rp595
(dp596
g266
F0.024146977834001538
sg273
g2
(g274
g275
F0.0011573737971280256
tp597
Rp598
sg278
Nsg267
(dp599
g595
F1.0
ssbF28.541408548454463
sg2
(g269
g4
Ntp600
Rp601
(dp602
g266
F0.03503681320781033
sg273
g2
(g274
g275
F0.0013151818968028196
tp603
Rp604
sg278
Nsg267
(dp605
g601
F1.0
ssbF-19.670417953910246
ssbag2
(g262
g4
Ntp606
Rp607
(dp608
g266
F1.431033207715622
sg267
(dp609
g2
(g269
g4
Ntp610
Rp611
(dp612
g266
F0.014332671980298337
sg273
g2
(g274
g275
F0.0023482817248025975
tp613
Rp614
sg278
Nsg267
(dp615
g611
F1.0
ssbF99.84413301879214
sg2
(g269
g4
Ntp616
Rp617
(dp618
g266
F0.01001561103056286
sg273
g2
(g274
g275
F0.0014856472810149863
tp619
Rp620
sg278
Nsg267
(dp621
g617
F1.0
ssbF-142.88026994546735
ssbag2
(g262
g4
Ntp622
Rp623
(dp624
g266
F0.6929017594129793
sg267
(dp625
g2
(g269
g4
Ntp626
Rp627
(dp628
g266
F0.023645483195753953
sg273
g2
(g274
g275
F0.0018260164977337717
tp629
Rp630
sg278
Nsg267
(dp631
g627
F1.0
ssbF29.303768236692427
sg2
(g269
g4
Ntp632
Rp633
(dp634
g266
F0.03412530401970146
sg273
g2
(g274
g275
F0.00244992517893325
tp635
Rp636
sg278
Nsg267
(dp637
g633
F1.0
ssbF-20.30463256863436
ssbag2
(g262
g4
Ntp638
Rp639
(dp640
g266
F1.4407096875770664
sg267
(dp641
g2
(g269
g4
Ntp642
Rp643
(dp644
g266
F0.014821461039703767
sg273
g2
(g274
g275
F0.0014638008336920684
tp645
Rp646
sg278
Nsg267
(dp647
g643
F1.0
ssbF97.20429610263723
sg2
(g269
g4
Ntp648
Rp649
(dp650
g266
F0.01028761114574718
sg273
g2
(g274
g275
F0.0010345949450419462
tp651
Rp652
sg278
Nsg267
(dp653
g649
F1.0
ssbF-140.04317106917915
ssbag2
(g262
g4
Ntp654
Rp655
(dp656
g266
F0.6778801618747348
sg267
(dp657
g2
(g269
g4
Ntp658
Rp659
(dp660
g266
F0.023334138093480047
sg273
g2
(g274
g275
F0.0011775686041036082
tp661
Rp662
sg278
Nsg267
(dp663
g659
F1.0
ssbF29.05100497644462
sg2
(g269
g4
Ntp664
Rp665
(dp666
g266
F0.03442221709062487
sg273
g2
(g274
g275
F0.0017773361877827867
tp667
Rp668
sg278
Nsg267
(dp669
g665
F1.0
ssbF-19.693099956056006
ssbag2
(g262
g4
Ntp670
Rp671
(dp672
g266
F1.4327989070449314
sg267
(dp673
g2
(g269
g4
Ntp674
Rp675
(dp676
g266
F0.014816594440650371
sg273
g2
(g274
g275
F0.0019084963128124235
tp677
Rp678
sg278
Nsg267
(dp679
g675
F1.0
ssbF96.70230988532336
sg2
(g269
g4
Ntp680
Rp681
(dp682
g266
F0.010341014616774644
sg273
g2
(g274
g275
F0.0011735889244513468
tp683
Rp684
sg278
Nsg267
(dp685
g681
F1.0
ssbF-138.55496391241158
ssbag2
(g262
g4
Ntp686
Rp687
(dp688
g266
F0.6729127645609974
sg267
(dp689
g2
(g269
g4
Ntp690
Rp691
(dp692
g266
F0.022531602587433613
sg273
g2
(g274
g275
F0.0012976916259778795
tp693
Rp694
sg278
Nsg267
(dp695
g691
F1.0
ssbF29.865286410487997
sg2
(g269
g4
Ntp696
Rp697
(dp698
g266
F0.03348369027021362
sg273
g2
(g274
g275
F0.0019899018935666487
tp699
Rp700
sg278
Nsg267
(dp701
g697
F1.0
ssbF-20.096732442887465
ssbag2
(g262
g4
Ntp702
Rp703
(dp704
g266
F1.4313442045718763
sg267
(dp705
g2
(g269
g4
Ntp706
Rp707
(dp708
g266
F0.013202977595884046
sg273
g2
(g274
g275
F0.001174735408202089
tp709
Rp710
sg278
Nsg267
(dp711
g707
F1.0
ssbF108.41071221828702
sg2
(g269
g4
Ntp712
Rp713
(dp714
g266
F0.00922418070629848
sg273
g2
(g274
g275
F0.0007712319066043686
tp715
Rp716
sg278
Nsg267
(dp717
g713
F1.0
ssbF-155.17304464715463
ssbag2
(g262
g4
Ntp718
Rp719
(dp720
g266
F0.6819526922909429
sg267
(dp721
g2
(g269
g4
Ntp722
Rp723
(dp724
g266
F0.023679591098072467
sg273
g2
(g274
g275
F0.0009244567332984486
tp725
Rp726
sg278
Nsg267
(dp727
g723
F1.0
ssbF28.799175182820377
sg2
(g269
g4
Ntp728
Rp729
(dp730
g266
F0.034723216677279414
sg273
g2
(g274
g275
F0.0006424245708824055
tp731
Rp732
sg278
Nsg267
(dp733
g729
F1.0
ssbF-19.639675051682865
ssbag2
(g262
g4
Ntp734
Rp735
(dp736
g266
F1.4394167254426402
sg267
(dp737
g2
(g269
g4
Ntp738
Rp739
(dp740
g266
F0.013324478026116646
sg273
g2
(g274
g275
F0.0021049961285932893
tp741
Rp742
sg278
Nsg267
(dp743
g739
F1.0
ssbF108.02800099345814
sg2
(g269
g4
Ntp744
Rp745
(dp746
g266
F0.009256859247636704
sg273
g2
(g274
g275
F0.0014554048380987794
tp747
Rp748
sg278
Nsg267
(dp749
g745
F1.0
ssbF-155.4973114461178
ssbag2
(g262
g4
Ntp750
Rp751
(dp752
g266
F0.6785733368789806
sg267
(dp753
g2
(g269
g4
Ntp754
Rp755
(dp756
g266
F0.02353938478815593
sg273
g2
(g274
g275
F0.0009803123183120593
tp757
Rp758
sg278
Nsg267
(dp759
g755
F1.0
ssbF28.82714832973933
sg2
(g269
g4
Ntp760
Rp761
(dp762
g266
F0.03468952213245307
sg273
g2
(g274
g275
F0.001464532862772715
tp763
Rp764
sg278
Nsg267
(dp765
g761
F1.0
ssbF-19.56133423481655
ssbag2
(g262
g4
Ntp766
Rp767
(dp768
g266
F1.4325207386057208
sg267
(dp769
g2
(g269
g4
Ntp770
Rp771
(dp772
g266
F0.014441523343634476
sg273
g2
(g274
g275
F0.0004502548375777301
tp773
Rp774
sg278
Nsg267
(dp775
g771
F1.0
ssbF99.19457279672274
sg2
(g269
g4
Ntp776
Rp777
(dp778
g266
F0.010081196700642867
sg273
g2
(g274
g275
F0.0004137149323186131
tp779
Rp780
sg278
Nsg267
(dp781
g777
F1.0
ssbF-142.0982826884402
ssbag2
(g262
g4
Ntp782
Rp783
(dp784
g266
F0.6911769654154847
sg267
(dp785
g2
(g269
g4
Ntp786
Rp787
(dp788
g266
F0.02386998056643931
sg273
g2
(g274
g275
F0.0007632167315732739
tp789
Rp790
sg278
Nsg267
(dp791
g787
F1.0
ssbF28.95590817477518
sg2
(g269
g4
Ntp792
Rp793
(dp794
g266
F0.034535266307797796
sg273
g2
(g274
g275
F0.0010325999062457511
tp795
Rp796
sg278
Nsg267
(dp797
g793
F1.0
ssbF-20.013656743090536
ssbag2
(g262
g4
Ntp798
Rp799
(dp800
g266
F1.425474236186877
sg267
(dp801
g2
(g269
g4
Ntp802
Rp803
(dp804
g266
F0.013977348241049486
sg273
g2
(g274
g275
F0.0022060279103729035
tp805
Rp806
sg278
Nsg267
(dp807
g803
F1.0
ssbF101.98459762206265
sg2
(g269
g4
Ntp808
Rp809
(dp810
g266
F0.00980540222069442
sg273
g2
(g274
g275
F0.00146482828525712
tp811
Rp812
sg278
Nsg267
(dp813
g809
F1.0
ssbF-145.37641639813575
ssbag2
(g262
g4
Ntp814
Rp815
(dp816
g266
F0.6766282360329732
sg267
(dp817
g2
(g269
g4
Ntp818
Rp819
(dp820
g266
F0.023517998874049588
sg273
g2
(g274
g275
F0.0009239866953605823
tp821
Rp822
sg278
Nsg267
(dp823
g819
F1.0
ssbF28.77065517592075
sg2
(g269
g4
Ntp824
Rp825
(dp826
g266
F0.03475763738731045
sg273
g2
(g274
g275
F0.0014161505260634978
tp827
Rp828
sg278
Nsg267
(dp829
g825
F1.0
ssbF-19.46703766119619
ssbag2
(g262
g4
Ntp830
Rp831
(dp832
g266
F1.4386040305053271
sg267
(dp833
g2
(g269
g4
Ntp834
Rp835
(dp836
g266
F0.013980767050705858
sg273
g2
(g274
g275
F0.0019878468436763416
tp837
Rp838
sg278
Nsg267
(dp839
g835
F1.0
ssbF102.89879126715692
sg2
(g269
g4
Ntp840
Rp841
(dp842
g266
F0.009718287141038347
sg273
g2
(g274
g275
F0.001090443754540927
tp843
Rp844
sg278
Nsg267
(dp845
g841
F1.0
ssbF-148.03061585105831
ssbag2
(g262
g4
Ntp846
Rp847
(dp848
g266
F0.6873015193756286
sg267
(dp849
g2
(g269
g4
Ntp850
Rp851
(dp852
g266
F0.02405790877315745
sg273
g2
(g274
g275
F0.0020060424402526715
tp853
Rp854
sg278
Nsg267
(dp855
g851
F1.0
ssbF28.568631041717286
sg2
(g269
g4
Ntp856
Rp857
(dp858
g266
F0.03500342730947633
sg273
g2
(g274
g275
F0.002270361849729243
tp859
Rp860
sg278
Nsg267
(dp861
g857
F1.0
ssbF-19.635263521454032
ssbag2
(g262
g4
Ntp862
Rp863
(dp864
g266
F1.434818198422156
sg267
(dp865
g2
(g269
g4
Ntp866
Rp867
(dp868
g266
F0.013029100817493167
sg273
g2
(g274
g275
F0.0020398179835615766
tp869
Rp870
sg278
Nsg267
(dp871
g867
F1.0
ssbF110.12411512663532
sg2
(g269
g4
Ntp872
Rp873
(dp874
g266
F0.009080663203060177
sg273
g2
(g274
g275
F0.0014680092332340186
tp875
Rp876
sg278
Nsg267
(dp877
g873
F1.0
ssbF-158.00808446883298
ssbag2
(g262
g4
Ntp878
Rp879
(dp880
g266
F0.6871772542977153
sg267
(dp881
g2
(g269
g4
Ntp882
Rp883
(dp884
g266
F0.02393873901395844
sg273
g2
(g274
g275
F0.0016177141544190126
tp885
Rp886
sg278
Nsg267
(dp887
g883
F1.0
ssbF28.705657967072916
sg2
(g269
g4
Ntp888
Rp889
(dp890
g266
F0.03483633787969811
sg273
g2
(g274
g275
F0.0024083080370463383
tp891
Rp892
sg278
Nsg267
(dp893
g889
F1.0
ssbF-19.725875224622502
ssbag2
(g262
g4
Ntp894
Rp895
(dp896
g266
F1.4278239222372562
sg267
(dp897
g2
(g269
g4
Ntp898
Rp899
(dp900
g266
F0.013290876633063702
sg273
g2
(g274
g275
F0.0026373105514242794
tp901
Rp902
sg278
Nsg267
(dp903
g899
F1.0
ssbF107.42887483322656
sg2
(g269
g4
Ntp904
Rp905
(dp906
g266
F0.00930848434885321
sg273
g2
(g274
g275
F0.001665173212779819
tp907
Rp908
sg278
Nsg267
(dp909
g905
F1.0
ssbF-153.3895174259128
ssbag2
(g262
g4
Ntp910
Rp911
(dp912
g266
F0.6758331017226012
sg267
(dp913
g2
(g269
g4
Ntp914
Rp915
(dp916
g266
F0.02344922031465973
sg273
g2
(g274
g275
F0.0010090983677039382
tp917
Rp918
sg278
Nsg267
(dp919
g915
F1.0
ssbF28.821133182841532
sg2
(g269
g4
Ntp920
Rp921
(dp922
g266
F0.034696762048042694
sg273
g2
(g274
g275
F0.0014529362205873678
tp923
Rp924
sg278
Nsg267
(dp925
g921
F1.0
ssbF-19.47827583411998
ssbag2
(g262
g4
Ntp926
Rp927
(dp928
g266
F1.4481344130727312
sg267
(dp929
g2
(g269
g4
Ntp930
Rp931
(dp932
g266
F0.015287894900591015
sg273
g2
(g274
g275
F0.0012556043390576192
tp933
Rp934
sg278
Nsg267
(dp935
g931
F1.0
ssbF94.72425225900446
sg2
(g269
g4
Ntp936
Rp937
(dp938
g266
F0.010556958499558284
sg273
g2
(g274
g275
F0.0006795603129221217
tp939
Rp940
sg278
Nsg267
(dp941
g937
F1.0
ssbF-137.17344944884672
ssbag2
(g262
g4
Ntp942
Rp943
(dp944
g266
F0.684184601112476
sg267
(dp945
g2
(g269
g4
Ntp946
Rp947
(dp948
g266
F0.024429631279151244
sg273
g2
(g274
g275
F0.002228912707601206
tp949
Rp950
sg278
Nsg267
(dp951
g947
F1.0
ssbF28.00634169605226
sg2
(g269
g4
Ntp952
Rp953
(dp954
g266
F0.03570619864789262
sg273
g2
(g274
g275
F0.0021021491573992635
tp955
Rp956
sg278
Nsg267
(dp957
g953
F1.0
ssbF-19.161507721933223
ssbag2
(g262
g4
Ntp958
Rp959
(dp960
g266
F1.4186112757482292
sg267
(dp961
g2
(g269
g4
Ntp962
Rp963
(dp964
g266
F0.013991588157434712
sg273
g2
(g274
g275
F0.0018129230080426771
tp965
Rp966
sg278
Nsg267
(dp967
g963
F1.0
ssbF101.39029678302971
sg2
(g269
g4
Ntp968
Rp969
(dp970
g266
F0.009862876741942587
sg273
g2
(g274
g275
F0.0013154511453208778
tp971
Rp972
sg278
Nsg267
(dp973
g969
F1.0
ssbF-143.83341826786537
ssbag2
(g262
g4
Ntp974
Rp975
(dp976
g266
F0.6695478363075661
sg267
(dp977
g2
(g269
g4
Ntp978
Rp979
(dp980
g266
F0.02344932732573072
sg273
g2
(g274
g275
F0.0020605404471104303
tp981
Rp982
sg278
Nsg267
(dp983
g979
F1.0
ssbF28.552965592871306
sg2
(g269
g4
Ntp984
Rp985
(dp986
g266
F0.03502263177348085
sg273
g2
(g274
g275
F0.0021975127125047544
tp987
Rp988
sg278
Nsg267
(dp989
g985
F1.0
ssbF-19.117576332871366
ssbag2
(g262
g4
Ntp990
Rp991
(dp992
g266
F1.4218462416362323
sg267
(dp993
g2
(g269
g4
Ntp994
Rp995
(dp996
g266
F0.012969640763712062
sg273
g2
(g274
g275
F0.0015804964483353992
tp997
Rp998
sg278
Nsg267
(dp999
g995
F1.0
ssbF109.62880680661839
sg2
(g269
g4
Ntp1000
Rp1001
(dp1002
g266
F0.009121690084285667
sg273
g2
(g274
g275
F0.0011771903654532844
tp1003
Rp1004
sg278
Nsg267
(dp1005
g1001
F1.0
ssbF-155.87530693305496
ssbag2
(g262
g4
Ntp1006
Rp1007
(dp1008
g266
F0.6836672027951092
sg267
(dp1009
g2
(g269
g4
Ntp1010
Rp1011
(dp1012
g266
F0.023500133241469028
sg273
g2
(g274
g275
F0.0012757870088594655
tp1013
Rp1014
sg278
Nsg267
(dp1015
g1011
F1.0
ssbF29.0920564479477
sg2
(g269
g4
Ntp1016
Rp1017
(dp1018
g266
F0.03437364428978155
sg273
g2
(g274
g275
F0.0013110930002336698
tp1019
Rp1020
sg278
Nsg267
(dp1021
g1017
F1.0
ssbF-19.889284855325826
ssbag2
(g262
g4
Ntp1022
Rp1023
(dp1024
g266
F1.4215880901983444
sg267
(dp1025
g2
(g269
g4
Ntp1026
Rp1027
(dp1028
g266
F0.013959738861114351
sg273
g2
(g274
g275
F0.0010485645777556707
tp1029
Rp1030
sg278
Nsg267
(dp1031
g1027
F1.0
ssbF101.8348626963402
sg2
(g269
g4
Ntp1032
Rp1033
(dp1034
g266
F0.009819819789828602
sg273
g2
(g274
g275
F0.0006849977554709221
tp1035
Rp1036
sg278
Nsg267
(dp1037
g1033
F1.0
ssbF-144.76722797610088
ssbatp1038
bsS'# groups'
p1039
I2
sS'xs type'
p1040
g135
s.