(dp0
S'domain'
p1
ccopy_reg
_reconstructor
p2
(copenmc.universe
Cell
p3
c__builtin__
object
p4
Ntp5
Rp6
(dp7
S'_type'
p8
S'normal'
p9
sS'_rotation'
p10
NsS'_fill'
p11
g2
(copenmc.material
Material
p12
g4
Ntp13
Rp14
(dp15
S'_density_units'
p16
S'g/cm3'
p17
sS'_density'
p18
F0.043439030625154515
sS'_sab'
p19
NsS'_name'
p20
S''
p21
sS'_nuclides'
p22
(dp23
sS'_elements'
p24
(dp25
sS'_id'
p26
I10005
sbsg20
g21
sS'_translation'
p27
NsS'_offset'
p28
Nsg26
I10013
sS'_surfaces'
p29
(dp30
I10003
(g2
(copenmc.surface
ZCylinder
p31
g4
Ntp32
Rp33
(dp34
g8
S'z-cylinder'
p35
sS'_R'
p36
NsS'_coeffs'
p37
(dp38
S'y0'
p39
F0.0
sS'x0'
p40
F0.0
sS'R'
p41
F0.56134
ssg20
g21
sS'_bc_type'
p42
S'transmission'
p43
sg26
I10003
sS'_x0'
p44
NsS'_coeff_keys'
p45
(lp46
g40
ag39
ag41
asS'_y0'
p47
Nsbcnumpy.core.multiarray
scalar
p48
(cnumpy
dtype
p49
(S'i8'
p50
I0
I1
tp51
Rp52
(I3
S'<'
p53
NNNI-1
I-1
I0
tp54
bS'\x01\x00\x00\x00\x00\x00\x00\x00'
p55
tp56
Rp57
tp58
sI10004
(g2
(g31
g4
Ntp59
Rp60
(dp61
g8
g35
sg36
Nsg37
(dp62
g39
F0.0
sg40
F0.0
sg41
F0.60198
ssg20
g21
sg42
g43
sg26
I10004
sg44
Nsg45
(lp63
g40
ag39
ag41
asg47
Nsbg48
(g52
S'\xff\xff\xff\xff\xff\xff\xff\xff'
p64
tp65
Rp66
tp67
ssbsS'group bounds'
p68
cnumpy.core.multiarray
_reconstruct
p69
(cnumpy
ndarray
p70
(I0
tp71
S'b'
p72
tp73
Rp74
(I1
(I3
tp75
g49
(S'f8'
p76
I0
I1
tp77
Rp78
(I3
S'<'
p79
NNNI-1
I-1
I0
tp80
bI00
S'\x00\x00\x00\x00\x00\x00\x00\x00\xf1h\xe3\x88\xb5\xf8\xa4>\x00\x00\x00\x00\x00\x00$@'
p81
tp82
bsS'tallies'
p83
(dp84
S'flux'
p85
g2
(copenmc.tallies
Tally
p86
g4
Ntp87
Rp88
(dp89
S'_num_tot_score_bins'
p90
I1
sS'_label'
p91
S'2 groups'
p92
sS'_filters'
p93
(lp94
g2
(copenmc.tallies
Filter
p95
g4
Ntp96
Rp97
(dp98
S'_mesh'
p99
Nsg8
S'distribcell'
p100
sg28
I6
sS'_stride'
p101
I1
sS'_bin_edges'
p102
(lp103
I10013
asbag2
(g95
g4
Ntp104
Rp105
(dp106
g99
Nsg8
S'energy'
p107
sg28
I0
sg101
I24
sg102
(lp108
F0.0
aF6.25e-07
aF10.0
asbasS'_sum_sq'
p109
g69
(g70
(I0
tp110
g72
tp111
Rp112
(I1
(I48
I1
tp113
g78
I00
S'\xa9\x08\x00\xa8$\x01\x0e?B\x99\x805Q\x1fG?\x86\xfe\x8b\x8c\xbd\xa5\x10?\x86\xe21$i\x9bG?88\xecR\x91\xa2\x07?\xaf<`\xe2\xd5bE?\n\xd7K\x15\xc9\xb4\r?]\x0b\x07\xb1\xe4\x92G?{\x9e&\x07\xf1\xa4\t?U\xb4\x96{bBG?C\x9b\xa6=z\xa1\r?\x04\xf0c\xbdoXE?\xd0\xda \xc5\xa6\xa2\x0e?\xb6\xb3\x04\x05\x9e&F?\xbe=U&\x8f\xe6\t?\xb9J\xa2\x7f\xce\x87E?Ve\x0f4T\xe0\n?I\xf8\xcb\\\x9a\xdfB?\x0c{i\x908\xb6\x08?d\x0bs\'\xd7\xaaE?\xff\x96\xd0\x0e\x08u\r?A\x88\xf6c^\xdbE?\xc6\xf0\xee\x02X\xe4\x0e?\xcd\xb6\\\xa6XTF?\x1c\x03\xbf\xb7v%\r?\x1aF%\xc7\xd7`E?\xa4Q\xdf\x80\x87\xc5\x06?\x8c)J\xd5\xc8\xc9D?&\xdaL\x98\x00!\n?\xea\xeaF\x8e\x85tE?\x01\xae\xea\xb1\x9a?\x0b?\xa7\xbb\x0f\xbf\x1c@G?$\xaa\xf7(7}\x0b?X\xd8\x0c:\x8a\x08E?\x8c\xa0\xe2\x11h\xa8\n?\xa5_=\xad\xa21E?K\xed\xba\x07\x1e\x07\x07?\x1d\xbd\xe7=$\xabF?\x17\x96v\x04\x16\xbb\x07?]|\x1a\x05\xe9\x01G?w=k\x17\xc6\xd8\x0c?\xd2"\x19\\\x11\xe3D?\xfb,$7\xe3\xd9\t?&\xac\xd9\xa9\xf4KF?*Q\xa7\xc8e\xad\x08?\xab\x80B\xcdX\xe2F?u5\x0e6\xa7\xeb\r?\x92\x15\xe9k\xd9\x84D?'
p114
tp115
bsS'_std_dev'
p116
g69
(g70
(I0
tp117
g72
tp118
Rp119
(I1
(I48
I1
tp120
g78
I00
S'\x15\x06\x1a8\xb2\x06B?\xe7\x1eU\x07\xa0\xc9F?\xc5\xc6\xa5KAw+?B\xa5y\xfc,9R?\x9c=-\xa8?a<?\x8b\xc1I\xfeg;D?Ze\x8a\xe7\x97\xbb@?FX\x84\\\xe2ML?X\xa7`\xfe\x84\x04@?\xf5#\xdcx\xbd\\O?3\xc1\xe0\xcfN\t=?\xe1\xb9W\xbc\xc9\xa0D?3|\x97\x7f\xaam;?\xf8\xb3:\x16\xcf^>?\xeb\xccl\x08\xe8\xc3\x19?\xd7 ;\xf5\xb0\xe1;?\xc1\xdbPm\x95\x062?+\x1d\x13Q\x8a{H?i\x89\x81\x08q\xa1.?r\xc0P\xab\xc4R;?\x04\x0b\xf3\xa8H\xfe6?\xe7}\xe6\xd1\x14 E?\xbf\xdc\r\x87sA7?}\xcd\x10\xbc\xe3\x9eI?\x96\xb4\xd0\xfc\xe2\xf95?m\xb0\x1au\xae\x80C?\x1f\x86y\x1f\x1bV7?y6V\x82u,??^{^\xc3\x91R*?\x03\xba\xe0]>e:?\x83V1<\x9e\x91(?\xe4\xcf\xd2D\x91\xe5??\x10ng\x8c\x05DB?Q\n%\x18\xbe\xefL?ZIJp\xe1\x89#?i\xea\x88H-\x1b??\x83\xa8\x96\xe3\xbd\x85E?\xdb\x06\xefW\x9dmK?@\xe3\xa6&5U@?\x19\xd7\x15\x05\xa2$N?w1\xc1|:\x0f4?7.\xbcc\x99\xe6\x1c?cn1\xaa\xb2\xdc7?\xd2\x1f\xccm3\xc29?\x9c\xd8\xc8\x13\x10P??v.\x99\x93;B??\x96\x1a\xa6<\xe9\xaa;?\x8eQ\xfc\xc44\x97F?'
p121
tp122
bsS'_num_tot_filter_bins'
p123
I48
sS'_mean'
p124
g69
(g70
(I0
tp125
g72
tp126
Rp127
(I1
(I48
I1
tp128
g78
I00
S"\xb3\xd4\x0bj+\x86k?\x86\xfa\x13\x84\xd9N\x88?0r\xd0\x9c6+m?)]ipM\x87\x88? \x89\x8c`\xfdvh?\x15T`\xf3pa\x87?\xba*\x82\x92aik?\x7fsz6o\x88\x88?\xe1H<w\x91ui?po\x8dIX\\\x88?h\xbe~\x8c\xd8jk?\xf5G~\xd2\x90[\x87?\x1b\xeb6AG\xe5k?f\x18'F\xa1\xcd\x87?pv#}K\xbei?\xd7\x8exK\x06x\x87?\xc33\xab\x10\x1c.j?\x91\xc4\x89q\x08\xf4\x85?\xaa\x93\x02\xb18\x1di?\t\x9fV\xd1/\x8b\x87?\x02\xf0r\xdc\xfdak?\x8eL)\xca\xa9\xa2\x87?\x80\xe7\x7f[0\x0bl?\xea\xeaF\xe2\x8b\xe1\x87?\x92\xa1\x19\xffp>k?\xf6\x10\x91\x01\xac`\x87?\xc8\x08\xe0\xcc\x84\rh?\xb5\xf7%\xe5\xed\x0e\x87?\xe8\x06\t/\x00\xd6i?}e\xb9y\xb8m\x87?\xca \xea\xd6`cj?\x95\xf4\x92\xfe\xe9b\x88?\x86\xfd\x04h\xb1Rj?\x8d\xca\x0c\xda\x02+\x87?P@\x9a\x12\xd7\x1bj?\x96.\x08\xb4OH\x87?\xe5\xb6\xd2\xd6\xef\xf7g?\xee\xd4D\xb1\xdb\x0e\x88?\x0e[v\x1e\xb8xh?\xb0qR\x97-;\x88?R\x84\x0f\xa3f\x1dk?\xf9\x87&!\x87\x1f\x87?\xd8\xdb\x8d\x99\xa7\xa2i?\x02\xb2\xa6\xe2`\xe2\x87?\x82\x18@\x7f\xcd\xf9h?J\x8b\xb2S\x9c1\x88?Z\xdaj)P\x90k?\xfeyx(\x82\xe5\x86?"
p129
tp130
bsS'_num_realizations'
p131
I5
sg22
(lp132
sS'_sum'
p133
g69
(g70
(I0
tp134
g72
tp135
Rp136
(I1
(I48
I1
tp137
g78
I00
S'\xf0dG"\xdb3\x91?(\xf9\x18\xe5\x8fb\xae?^G\x02"\x02;\x92?s\xb4\x83\xcc \xa9\xae?h\xab\xaf\xb8\xbc\x94\x8e?\x1ai80\xcd9\xad?\xb4Z\x91\xfb\xdc!\x91?_\x10\x19\x04\x8b\xaa\xae?\x19[\x0b\xd5\xf5\xd2\x8f?L\xcb\xf0[ns\xae?\x017\xcfW\xc7"\x91?\xf2\xd9\x1d\x07u2\xad?\xf1R\xc2\x88Lo\x91?\x80\xde\xb0\x97\t\xc1\xad?\x06*6.\xef\x16\x90?\x8d\xb2V\xde\x07V\xad?Z\x00k\x8a\xd1\\\x90?\xb55\xec\x8d\nq\xab?\x948C\xdd\x86d\x8f?\xcbF\xac\xc5\xfbm\xad?\x01\xd6\xc7\xa9>\x1d\x91?\xb2\x9f\xb3<T\x8b\xad?\xb0\xf0/9\xfe\x86\x91?\xa4\xa5\xd8\xda\xee\xd9\xad?\xfb\x04p\x9f\x06\x07\x91?3U\xf5\x01\xd78\xad?\xfa\n\x18\x00\xe6\x10\x8e?\xa2uo^\xa9\xd2\xac?Q\xa4e\x1d\xc0%\x90?\xdc\xbe\'\x98&I\xad?~TR\x86\x1c~\x90?\xba\xb17~\xa4{\xae?t\x1e\x03\xe1\xaes\x90?0\xfd\x8f\x90\xc3\xf5\xac?2h\xa0kfQ\x90?;:\n\xa1c\x1a\xad?\x9ed\x87\xcc\xeb\xf5\x8d?)\n\x96\x9d\x92\x12\xae?\xd1\xf1\x13&\xe6\x96\x8e?\x1c\x0e\'\xfd\xf8I\xae?\xb3\xb2\xe9%`\xf2\x90?\xf7)p\xe9h\xe7\xac?g\xa9\xf8\xbf\xa8\x05\x90?\x82^P\x1b\xf9\xda\xad?\xa3\x1e\x10\xdf@8\x8f?\x1d.\x9fh\x03>\xae?x\xc8\xe2\x192:\x91?}\x98\x96\xb2\xe2\x9e\xac?'
p138
tp139
bsS'_estimator'
p140
S'tracklength'
p141
sS'_scores'
p142
(lp143
g85
asg26
I10114
sbsS'total'
p144
g2
(g86
g4
Ntp145
Rp146
(dp147
g90
I1
sg91
S'2 groups'
p148
sg93
(lp149
g2
(g95
g4
Ntp150
Rp151
(dp152
g99
Nsg8
g100
sg28
I6
sg101
I1
sg102
(lp153
I10013
asbag2
(g95
g4
Ntp154
Rp155
(dp156
g99
Nsg8
g107
sg28
I0
sg101
I24
sg102
(lp157
F0.0
aF6.25e-07
aF10.0
asbasg109
g69
(g70
(I0
tp158
g72
tp159
Rp160
(I1
(I48
I1
tp161
g78
I00
S'\xc0R\xec\x95u\xd1\xd5>\xc6c\xd26\xfd\x85\x12?@\xe8\\H&;\xd8>\x00\x7f\x07\xd4\x86O\x13?\x06Z\xeell"\xd1>(W\x0b\xf1m\xef\x10?J\xe2\x05\x98J\x8f\xd5>\xb9\xa6\x11\x1cj\x1c\x13?\x08\xc2\xdd\xd15\x9d\xd2>\x86\xba\x1e\xa2}\xba\x12?\x99\xd7{\xd0\x9az\xd5>\x976*\x8c\xd5\x0b\x11?\xaa\x14N\xa5\x95B\xd6>H\x98;\xfb\x0f<\x11?\x9b\x0c\x9e\x12\xf3\xd4\xd2>\x84\x9c\xd6\x00&\x06\x11?\xc7\x87\xf21\xe9\x84\xd3>j_\xf8\xdfL\xd2\x0c?8\x1d\xd2\xc0>\xeb\xd1>\x04\xed\x19\x8e\xf0\xcb\x10?\xce\xea\xb5\x07S^\xd5>J\xf4\x9a\x9b\x17\x8e\x11?\x9cGv2\x81n\xd6>\xc2\xde\xb9\x94\xa0\x91\x11?b\x7fq\xb3\x8b+\xd5>\xe5If\xe3\xbc\r\x11?\xfcFt\x89\xd3\x81\xd0>\x0e\xe9u~\xe0P\x10?\x95X\xd8\x10\xe2\xf4\xd2>\xf8\xc3R\xbf\x8c\xab\x10?\x1b\x1aR\xa6\xf0\xc5\xd3>;c\xbfB\x0b\n\x12?B\x90[\xaa3\xed\xd3>JfT\xee\xd3\x15\x11?\x9aU\xce\x10\xa3Y\xd3>tE4bGJ\x11?\xaa\x951\x91D\xb4\xd0>\x82\xc0p\x8a\xd6A\x11?2\xe6\x8b)\xb63\xd1>\x81\x91o09Z\x12?\xd1\xeb\xab\x80\x00\xf5\xd4>_^l\xf1\x11K\x11?\x04\xc2\x1a.\xb9\xc0\xd2>j;\x0eOJn\x12?A~J8\xe9\xe4\xd1>I\xc9\xfbcIe\x12?\xf6\xaf\xf7\x968\xbb\xd5>\xbf\x10%\x12t\xa2\x10?'
p162
tp163
bsg116
g69
(g70
(I0
tp164
g72
tp165
Rp166
(I1
(I48
I1
tp167
g78
I00
S'A\x12\xe8\x92J\xad%?\x8b\x07\xea\xa1\x91\xce.?\x9fokj\xde\xae\x10?{#\n6Y\x91:?\xca\'\xb2\xd2I;!?\x9b\x8dN\xc7\xc1\xfc1?y\xb9s\x1c\xfe\xf7#?\xff\x90\xd9\x0e\x10\x948?\xf4\xd4\x1e\xc0:O#?\xc4&Q\xe4y\xf92?6\xea\xf6\x02\xad\x81!?\xf8\xa6W\xbc\xa7\x833?\xdf\x9aD@\x17\xb0 ?\x1a\x9a\xdf\x7f\xc3\x94+?\x9b\x04\x1b\x1e:)\x00?d\xfc\xc7\x81\xfcM!?S\xeb\xc7"\xc5S\x16?\xceox.\xb4\x1e2?\xbck\xac\xbejN\x12?\xb1\xbe\x1c\xec\x8cB%?r\x9d\x07\xd8p\xe1\x1b?\xa1\xfe\x81\x91\xfe\x1b0?\xedNm\xfc\x1a\x03\x1c?\xa4\xa0\xa0\xd1\x19=2?7?\x11\x10\xd7\xa4\x1a?\x17]\x96\x17x\xac!?*\x03s.\xceD\x1c?.\xdd\x0f\x7f\x18)$?\xa3\x9f\xc8\x18\\K\x10?\xf7\r\x04\x97\x84\x8d ?(\x8e\xb9"\x89}\r? \xfe\xdd\x9d\xba\xc6!?k]+\xed\xf1\xfa%?\x16A\xaf\xd2\xa1\x89-?\x06\xe8\x08\x1d\n\xb6\x07?tj\xef\xce\x16..?\x9b1V\x89\xb0\xc8)?\xc5\x82\xa5@\x0f\x981?\xc4s\xdfs\xe8\xd8#?d\xb9\xb3\xda)\xbc\'?\n\x87\xa1\xf6#\x8b\x18?u\n\x8f\xaeYS*?\xf7M\\\x1f\x9e\xb4\x1c?\\\xe00\x1e\xe2O)?\x97\x06\x88\n\x08\xe5"?\x9f\x8f\x86\x00\x9b++?\x1e\x1e\xdex\xc1\xc0 ?\xe2\xba\xab\xd6\x12\xd43?'
p168
tp169
bsg123
I48
sg124
g69
(g70
(I0
tp170
g72
tp171
Rp172
(I1
(I48
I1
tp173
g78
I00
S"\xf6\x07\x90\x86\xda\x98P?R\x16M6\xcb\xc3n?(\x98}>c\x98Q?B\xc1\xd2\xd1@Zo?:,\xd3a\xbbtM?f\xb8\x81\xd3\xd8fm?\xdb7\x84\xfe\xbb\x83P?\xa3\xc1\x99\x80\xcb3o?\x8d\xa5\xee\xae\xc6\xacN?\xa8f\x03\xc9=\xebn?o\xc7\x8b\xed\x83\x81P?K\xacU\x03\x86}m?\x11\x12\xb9\xca\x15\xd0P?=5\xceQ\xf1\xadm? \xc5\xa4K\xfa\nO?P\xe1\xd1!Z\x83m?[\xd7RQ\x8c\x8cO?[R\xfb\xe1-\x1dk?\x8e\xb3\xac\xe3\x99>N?8\xf0sUWOm?^\x85\xecf\x99}P?\x03 '\xf3\xf7\xf1m?\xe9\x12ps\xd4\xe5P?\xed \xc6\xb7t\xf2m?a\x85\xfe_\xe9jP?\xd3\x9d\xd7\xa6\xd1\x89m?\x02\x8c\xc9\xb4\xc7\xf5L?c\x7f\x1e\xaa{\xe3l?2\x8a\x8e@\x98\x1eO?r6Y1\x944m?BQ\x133S\xcaO?%/\xberaan?>\xff{S\xea\xb1O?\xc5vx\n\xe9\x8bm?\x0b\x07\x89\xca,uO?\xeb\xc2\xf0\x85\xe2\xb8m?\x8e\xdc\\\x90\xad\xdfL?\x03 \xe1\x1b\xc0\xaem?\xd6\xd6\x9d\xa7\x16vM?2\x01G\xe7\x8e\xa2n?\x8e\x89sjMWP?\x16\xb5\xb9\x94w\xbbm?\x8a\xe5BP\xd2\xe0N?}f\xda\xc9\xa7\xb2n?J\x8cHl\x9e\x13N?\xe0\x029~Q\xaan?\x9eQ\xc5\xf6\x1b\x9cP?\x1ef\xed\x05\x0b!m?"
p174
tp175
bsg131
I5
sg22
(lp176
sg133
g69
(g70
(I0
tp177
g72
tp178
Rp179
(I1
(I48
I1
tp180
g78
I00
S'\xf4\t4(\x11\xbft?\xf3-\xf0\x01_:\x93?2\xfe\x1c\x0e|\xfeu?\xc9\xb8#\x83h\x98\x93?\xa4\xfb#\x1d\xf5hr?@\x131\x84G`\x92?\xd2E%\xfe\xaa\xa4t?\x06\x19`0_\x80\x93?x\'U-\xfc+s?) \xa2\x9d\x06S\x93?K\xb9\xee\xe8\xe4\xa1t?\xaf\x8b\x15\xc2sn\x92?\x95Vg=\x1b\x04u?F\xe1 \xd3\xb6\x8c\x92?4\xfbFo\xdcfs?\xd2,#U\x18r\x92?\x99\xc6\xd3\xb2\xd7\xb7s?y\x13=\xad<\xf2\x90?9\xf0K. \xe7r?#vh\x95\x96Q\x92?\xb6\xa6\xa7\xc0\xff\x9ct?\x02t\xf8\xf7:\xb7\x92?\xa3\x17L\x90I\x1fu?\x94\xd4\xdb\xf2\x88\xb7\x92?\xb9&\xfe\xb7\xa3\x85t?\xa4\xc2F\x08#v\x92?\x81\xf7\xfd\xd0\x9c\x19r?\x9e\x0fSJ-\x0e\x92?_\x16Y(\x1fss?\x07\xc2\xd7\x9e\xdc@\x92?\xc9\x12\xec\xffs\xdes?w\xdd\xb6\xe7\xdc\xfc\x92?\x87\x7f-t2\xcfs?;J\x8b\xa6qw\x92?g\xa4\x95\xfe;\xa9s?\xd3y\xb6\x93\x8d\x93\x92?\xd9\t:z\xcc\x0br?\x02\xb4l\x118\x8d\x92?F\xa6\xc2(\xceir?\xbf`\x8cP\x99%\x93?\xf1k\x10\xc5 mt?.\x11\xf4\xbc*\x95\x92?v\xcf)r\x83Ls?\x0e\x80(\xde\xa8/\x93?\xaeW\xad\x03C\xccr?\xcc\xa1\xe3\xeer*\x93?\x06\xa6v\xf4"\xc3t?\xd3_\xb4\xe3\xa64\x92?'
p181
tp182
bsg140
g141
sg142
(lp183
g144
asg26
I10115
sbssS'subdomain offsets'
p184
(dp185
I388
g48
(g52
S'\t\x00\x00\x00\x00\x00\x00\x00'
p186
tp187
Rp188
sI775
g48
(g52
S'\x11\x00\x00\x00\x00\x00\x00\x00'
p189
tp190
Rp191
sI786
g48
(g52
S'\x12\x00\x00\x00\x00\x00\x00\x00'
p192
tp193
Rp194
sI916
g48
(g52
S'\x14\x00\x00\x00\x00\x00\x00\x00'
p195
tp196
Rp197
sI157
g48
(g52
S'\x00\x00\x00\x00\x00\x00\x00\x00'
p198
tp199
Rp200
sI543
g48
(g52
S'\n\x00\x00\x00\x00\x00\x00\x00'
p201
tp202
Rp203
sI168
g48
(g52
S'\x01\x00\x00\x00\x00\x00\x00\x00'
p204
tp205
Rp206
sI554
g48
(g52
S'\x0b\x00\x00\x00\x00\x00\x00\x00'
p207
tp208
Rp209
sI179
g48
(g52
S'\x02\x00\x00\x00\x00\x00\x00\x00'
p210
tp211
Rp212
sI951
g48
(g52
S'\x15\x00\x00\x00\x00\x00\x00\x00'
p213
tp214
Rp215
sI576
g48
(g52
S'\x0c\x00\x00\x00\x00\x00\x00\x00'
p216
tp217
Rp218
sI962
g48
(g52
S'\x16\x00\x00\x00\x00\x00\x00\x00'
p219
tp220
Rp221
sI587
g48
(g52
S'\r\x00\x00\x00\x00\x00\x00\x00'
p222
tp223
Rp224
sI973
g48
(g52
S'\x17\x00\x00\x00\x00\x00\x00\x00'
p225
tp226
Rp227
sI214
g48
(g52
S'\x03\x00\x00\x00\x00\x00\x00\x00'
p228
tp229
Rp230
sI344
g48
(g52
S'\x05\x00\x00\x00\x00\x00\x00\x00'
p231
tp232
Rp233
sI355
g48
(g52
S'\x06\x00\x00\x00\x00\x00\x00\x00'
p234
tp235
Rp236
sI742
g48
(g52
S'\x0e\x00\x00\x00\x00\x00\x00\x00'
p237
tp238
Rp239
sI877
g48
(g52
S'\x13\x00\x00\x00\x00\x00\x00\x00'
p240
tp241
Rp242
sI366
g48
(g52
S'\x07\x00\x00\x00\x00\x00\x00\x00'
p243
tp244
Rp245
sI753
g48
(g52
S'\x0f\x00\x00\x00\x00\x00\x00\x00'
p246
tp247
Rp248
sI377
g48
(g52
S'\x08\x00\x00\x00\x00\x00\x00\x00'
p249
tp250
Rp251
sI764
g48
(g52
S'\x10\x00\x00\x00\x00\x00\x00\x00'
p252
tp253
Rp254
sI253
g48
(g52
S'\x04\x00\x00\x00\x00\x00\x00\x00'
p255
tp256
Rp257
ssS'offset'
p258
I6
sS'domain type'
p259
g100
sS'xs'
p260
g69
(g70
(I0
tp261
g72
tp262
Rp263
(I1
(I24
I2
tp264
g49
(S'O8'
p265
I0
I1
tp266
Rp267
(I3
S'|'
p268
NNNI-1
I-1
I63
tp269
bI00
(lp270
g2
(cuncertainties
AffineScalarFunc
p271
g4
Ntp272
Rp273
(dp274
S'_nominal_value'
p275
F0.31640623721242533
sS'derivatives'
p276
(dp277
g2
(cuncertainties
Variable
p278
g4
Ntp279
Rp280
(dp281
g275
F0.003755471132907564
sS'_std_dev'
p282
g2
(cuncertainties
CallableStdDev
p283
c__builtin__
float
p284
F0.00023503806820107347
tp285
Rp286
sS'tag'
p287
Nsg276
(dp288
g280
F1.0
ssbF84.25207544265079
sg2
(g278
g4
Ntp289
Rp290
(dp291
g275
F0.011869143813325832
sg282
g2
(g283
g284
F0.0006954223050934211
tp292
Rp293
sg287
Nsg276
(dp294
g290
F1.0
ssbF-26.657882168146525
ssbag2
(g271
g4
Ntp295
Rp296
(dp297
g275
F0.3015009476687825
sg276
(dp298
g2
(g278
g4
Ntp299
Rp300
(dp301
g275
F0.0010130056418806688
sg282
g2
(g283
g284
F0.00016538176846849116
tp302
Rp303
sg287
Nsg276
(dp304
g300
F1.0
ssbF297.6300774683139
sg2
(g278
g4
Ntp305
Rp306
(dp307
g275
F0.003359875482028396
sg282
g2
(g283
g284
F0.000550114651744762
tp308
Rp309
sg287
Nsg276
(dp310
g306
F1.0
ssbF-89.73575041142979
ssbag2
(g271
g4
Ntp311
Rp312
(dp313
g275
F0.3195519409243308
sg276
(dp314
g2
(g278
g4
Ntp315
Rp316
(dp317
g275
F0.0038272157676929883
sg282
g2
(g283
g284
F0.00040539196019345026
tp318
Rp319
sg287
Nsg276
(dp320
g316
F1.0
ssbF83.4946238520944
sg2
(g278
g4
Ntp321
Rp322
(dp323
g275
F0.011976819031743151
sg282
g2
(g283
g284
F0.0011122645682014186
tp324
Rp325
sg287
Nsg276
(dp326
g322
F1.0
ssbF-26.680869108683698
ssbag2
(g271
g4
Ntp327
Rp328
(dp329
g275
F0.3016110209417781
sg276
(dp330
g2
(g278
g4
Ntp331
Rp332
(dp333
g275
F0.0010739297085478137
sg282
g2
(g283
g284
F6.364090459548423e-05
tp334
Rp335
sg287
Nsg276
(dp336
g332
F1.0
ssbF280.8480094564306
sg2
(g278
g4
Ntp337
Rp338
(dp339
g275
F0.0035606447841145736
sg282
g2
(g283
g284
F0.00020954773010433393
tp340
Rp341
sg287
Nsg276
(dp342
g338
F1.0
ssbF-84.70685486162019
ssbag2
(g271
g4
Ntp343
Rp344
(dp345
g275
F0.31438145947368346
sg276
(dp346
g2
(g278
g4
Ntp347
Rp348
(dp349
g275
F0.003589080322902882
sg282
g2
(g283
g284
F0.0002744649021286461
tp350
Rp351
sg287
Nsg276
(dp352
g348
F1.0
ssbF87.59387675654156
sg2
(g278
g4
Ntp353
Rp354
(dp355
g275
F0.011416323115591745
sg282
g2
(g283
g284
F0.0006174333362434654
tp356
Rp357
sg287
Nsg276
(dp358
g354
F1.0
ssbF-27.5378908156795
ssbag2
(g271
g4
Ntp359
Rp360
(dp361
g275
F0.3010036842251369
sg276
(dp362
g2
(g278
g4
Ntp363
Rp364
(dp365
g275
F0.000898925299816062
sg282
g2
(g283
g284
F0.00013146663818402869
tp366
Rp367
sg287
Nsg276
(dp368
g364
F1.0
ssbF334.84838427256216
sg2
(g278
g4
Ntp369
Rp370
(dp371
g275
F0.0029864262363769184
sg282
g2
(g283
g284
F0.0004330425655796001
tp372
Rp373
sg287
Nsg276
(dp374
g370
F1.0
ssbF-100.7905973228756
ssbag2
(g271
g4
Ntp375
Rp376
(dp377
g275
F0.3179634715718731
sg276
(dp378
g2
(g278
g4
Ntp379
Rp380
(dp381
g275
F0.0038088774352262474
sg282
g2
(g283
g284
F0.0003750361637229332
tp382
Rp383
sg287
Nsg276
(dp384
g380
F1.0
ssbF83.4795755387666
sg2
(g278
g4
Ntp385
Rp386
(dp387
g275
F0.011978978014036688
sg282
g2
(g283
g284
F0.0008637767105337333
tp388
Rp389
sg287
Nsg276
(dp390
g386
F1.0
ssbF-26.54345564365265
ssbag2
(g271
g4
Ntp391
Rp392
(dp393
g275
F0.3012330573855483
sg276
(dp394
g2
(g278
g4
Ntp395
Rp396
(dp397
g275
F0.0010079704171093082
sg282
g2
(g283
g284
F0.00015234925215374862
tp398
Rp399
sg287
Nsg276
(dp400
g396
F1.0
ssbF298.8510895482773
sg2
(g278
g4
Ntp401
Rp402
(dp403
g275
F0.003346148081680181
sg282
g2
(g283
g284
F0.0005106441231702938
tp404
Rp405
sg287
Nsg276
(dp406
g402
F1.0
ssbF-90.02382740762984
ssbag2
(g271
g4
Ntp407
Rp408
(dp409
g275
F0.31730290380503196
sg276
(dp410
g2
(g278
g4
Ntp411
Rp412
(dp413
g275
F0.00377428119109598
sg282
g2
(g283
g284
F0.0002895281398350542
tp414
Rp415
sg287
Nsg276
(dp416
g412
F1.0
ssbF84.06975732321979
sg2
(g278
g4
Ntp417
Rp418
(dp419
g275
F0.011894883865970235
sg282
g2
(g283
g284
F0.0009571004063398935
tp420
Rp421
sg287
Nsg276
(dp422
g418
F1.0
ssbF-26.675578120841987
ssbag2
(g271
g4
Ntp423
Rp424
(dp425
g275
F0.3012157232149137
sg276
(dp426
g2
(g278
g4
Ntp427
Rp428
(dp429
g275
F0.0009361238606874642
sg282
g2
(g283
g284
F0.00014731971901730363
tp430
Rp431
sg287
Nsg276
(dp432
g428
F1.0
ssbF321.76909046385055
sg2
(g278
g4
Ntp433
Rp434
(dp435
g275
F0.003107818711108754
sg282
g2
(g283
g284
F0.000488820017158202
tp436
Rp437
sg287
Nsg276
(dp438
g434
F1.0
ssbF-96.92190929227372
ssbag2
(g271
g4
Ntp439
Rp440
(dp441
g275
F0.3156384531987427
sg276
(dp442
g2
(g278
g4
Ntp443
Rp444
(dp445
g275
F0.003599893325988234
sg282
g2
(g283
g284
F0.00029776425466697355
tp446
Rp447
sg287
Nsg276
(dp448
g444
F1.0
ssbF87.67994621398798
sg2
(g278
g4
Ntp449
Rp450
(dp451
g275
F0.011405116485352787
sg282
g2
(g283
g284
F0.0006295189893402131
tp452
Rp453
sg287
Nsg276
(dp454
g450
F1.0
ssbF-27.675162599532115
ssbag2
(g271
g4
Ntp455
Rp456
(dp457
g275
F0.3010121184706503
sg276
(dp458
g2
(g278
g4
Ntp459
Rp460
(dp461
g275
F0.001007441364148733
sg282
g2
(g283
g284
F0.0001335643478180424
tp462
Rp463
sg287
Nsg276
(dp464
g460
F1.0
ssbF298.7887227809028
sg2
(g278
g4
Ntp465
Rp466
(dp467
g275
F0.003346846529858106
sg282
g2
(g283
g284
F0.0004430596744695758
tp468
Rp469
sg287
Nsg276
(dp470
g466
F1.0
ssbF-89.93902641941939
ssbag2
(g271
g4
Ntp471
Rp472
(dp473
g275
F0.31171660748849495
sg276
(dp474
g2
(g278
g4
Ntp475
Rp476
(dp477
g275
F0.003622981383563455
sg282
g2
(g283
g284
F0.0002104271551949956
tp478
Rp479
sg287
Nsg276
(dp480
g476
F1.0
ssbF86.03869975779449
sg2
(g278
g4
Ntp481
Rp482
(dp483
g275
F0.011622676804915421
sg282
g2
(g283
g284
F0.00046341472464456147
tp484
Rp485
sg287
Nsg276
(dp486
g482
F1.0
ssbF-26.819691601220892
ssbag2
(g271
g4
Ntp487
Rp488
(dp489
g275
F0.3013525674489236
sg276
(dp490
g2
(g278
g4
Ntp491
Rp492
(dp493
g275
F0.001026173859728922
sg282
g2
(g283
g284
F0.00012731822801833375
tp494
Rp495
sg287
Nsg276
(dp496
g492
F1.0
ssbF293.6661897902272
sg2
(g278
g4
Ntp497
Rp498
(dp499
g275
F0.00340522686903223
sg282
g2
(g283
g284
F0.00041852390822144924
tp500
Rp501
sg287
Nsg276
(dp502
g498
F1.0
ssbF-88.49706026622783
ssbag2
(g271
g4
Ntp503
Rp504
(dp505
g275
F0.3143858670395336
sg276
(dp506
g2
(g278
g4
Ntp507
Rp508
(dp509
g275
F0.0036026726143597934
sg282
g2
(g283
g284
F0.00013202388153385751
tp510
Rp511
sg287
Nsg276
(dp512
g508
F1.0
ssbF87.2646228764811
sg2
(g278
g4
Ntp513
Rp514
(dp515
g275
F0.01145939748591422
sg282
g2
(g283
g284
F0.00042543955099151376
tp516
Rp517
sg287
Nsg276
(dp518
g514
F1.0
ssbF-27.434764124900425
ssbag2
(g271
g4
Ntp519
Rp520
(dp521
g275
F0.3014651796159791
sg276
(dp522
g2
(g278
g4
Ntp523
Rp524
(dp525
g275
F0.0009473535676873014
sg282
g2
(g283
g284
F3.08247433742439e-05
tp526
Rp527
sg287
Nsg276
(dp528
g524
F1.0
ssbF318.218234351428
sg2
(g278
g4
Ntp529
Rp530
(dp531
g275
F0.003142497481447397
sg282
g2
(g283
g284
F9.828666416638084e-05
tp532
Rp533
sg287
Nsg276
(dp534
g530
F1.0
ssbF-95.93171717583297
ssbag2
(g271
g4
Ntp535
Rp536
(dp537
g275
F0.30876950594094427
sg276
(dp538
g2
(g278
g4
Ntp539
Rp540
(dp541
g275
F0.0033098121783530616
sg282
g2
(g283
g284
F0.00027648829424875294
tp542
Rp543
sg287
Nsg276
(dp544
g540
F1.0
ssbF93.28913222338366
sg2
(g278
g4
Ntp545
Rp546
(dp547
g275
F0.010719362225446257
sg282
g2
(g283
g284
F0.0007471490263463489
tp548
Rp549
sg287
Nsg276
(dp550
g546
F1.0
ssbF-28.8048392662736
ssbag2
(g271
g4
Ntp551
Rp552
(dp553
g275
F0.301268875121671
sg276
(dp554
g2
(g278
g4
Ntp555
Rp556
(dp557
g275
F0.0009627995629190965
sg282
g2
(g283
g284
F8.517161104030822e-05
tp558
Rp559
sg287
Nsg276
(dp560
g556
F1.0
ssbF312.90923544694886
sg2
(g278
g4
Ntp561
Rp562
(dp563
g275
F0.003195814909622703
sg282
g2
(g283
g284
F0.00027505062218174606
tp564
Rp565
sg287
Nsg276
(dp566
g562
F1.0
ssbF-94.2698133782844
ssbag2
(g271
g4
Ntp567
Rp568
(dp569
g275
F0.31122899503449103
sg276
(dp570
g2
(g278
g4
Ntp571
Rp572
(dp573
g275
F0.0035778718698775934
sg282
g2
(g283
g284
F0.00016220064395032965
tp574
Rp575
sg287
Nsg276
(dp576
g572
F1.0
ssbF86.98718298292187
sg2
(g278
g4
Ntp577
Rp578
(dp579
g275
F0.011495946479797252
sg282
g2
(g283
g284
F0.00041692067617572
tp580
Rp581
sg287
Nsg276
(dp582
g578
F1.0
ssbF-27.07293354065615
ssbag2
(g271
g4
Ntp583
Rp584
(dp585
g275
F0.3010707124240412
sg276
(dp586
g2
(g278
g4
Ntp587
Rp588
(dp589
g275
F0.0009229899800168183
sg282
g2
(g283
g284
F6.983305472056575e-05
tp590
Rp591
sg287
Nsg276
(dp592
g588
F1.0
ssbF326.19066180821943
sg2
(g278
g4
Ntp593
Rp594
(dp595
g275
F0.0030656916861339827
sg282
g2
(g283
g284
F0.0002336931686413677
tp596
Rp597
sg287
Nsg276
(dp598
g594
F1.0
ssbF-98.20645493667013
ssbag2
(g271
g4
Ntp599
Rp600
(dp601
g275
F0.3167408368573028
sg276
(dp602
g2
(g278
g4
Ntp603
Rp604
(dp605
g275
F0.003655418660148514
sg282
g2
(g283
g284
F0.00024580922173098914
tp606
Rp607
sg287
Nsg276
(dp608
g604
F1.0
ssbF86.6496744437022
sg2
(g278
g4
Ntp609
Rp610
(dp611
g275
F0.011540724260305415
sg282
g2
(g283
g284
F0.0006446935329228993
tp612
Rp613
sg287
Nsg276
(dp614
g610
F1.0
ssbF-27.445490396711076
ssbag2
(g271
g4
Ntp615
Rp616
(dp617
g275
F0.3011129998802954
sg276
(dp618
g2
(g278
g4
Ntp619
Rp620
(dp621
g275
F0.0010065076891766149
sg282
g2
(g283
g284
F0.00010635615581799042
tp622
Rp623
sg287
Nsg276
(dp624
g620
F1.0
ssbF299.1661197607187
sg2
(g278
g4
Ntp625
Rp626
(dp627
g275
F0.0033426244950458548
sg282
g2
(g283
g284
F0.0003508498566128645
tp628
Rp629
sg287
Nsg276
(dp630
g626
F1.0
ssbF-90.08280778369772
ssbag2
(g271
g4
Ntp631
Rp632
(dp633
g275
F0.3135028100159878
sg276
(dp634
g2
(g278
g4
Ntp635
Rp636
(dp637
g275
F0.0036556510587538644
sg282
g2
(g283
g284
F0.00027830009787744637
tp638
Rp639
sg287
Nsg276
(dp640
g636
F1.0
ssbF85.75840663601366
sg2
(g278
g4
Ntp641
Rp642
(dp643
g275
F0.01166066440861387
sg282
g2
(g283
g284
F0.0007818805680756404
tp644
Rp645
sg287
Nsg276
(dp646
g642
F1.0
ssbF-26.885501462884015
ssbag2
(g271
g4
Ntp647
Rp648
(dp649
g275
F0.30127566978677295
sg276
(dp650
g2
(g278
g4
Ntp651
Rp652
(dp653
g275
F0.0010313582149603046
sg282
g2
(g283
g284
F0.00010685779771551678
tp654
Rp655
sg287
Nsg276
(dp656
g652
F1.0
ssbF292.11545069078505
sg2
(g278
g4
Ntp657
Rp658
(dp659
g275
F0.003423304031454799
sg282
g2
(g283
g284
F0.00035485334870295407
tp660
Rp661
sg287
Nsg276
(dp662
g658
F1.0
ssbF-88.0072780619313
ssbag2
(g271
g4
Ntp663
Rp664
(dp665
g275
F0.31588277017507743
sg276
(dp666
g2
(g278
g4
Ntp667
Rp668
(dp669
g275
F0.003605756259947171
sg282
g2
(g283
g284
F0.00013483968704684136
tp670
Rp671
sg287
Nsg276
(dp672
g668
F1.0
ssbF87.60513673203899
sg2
(g278
g4
Ntp673
Rp674
(dp675
g275
F0.011414855764208625
sg282
g2
(g283
g284
F0.0005951740115128897
tp676
Rp677
sg287
Nsg276
(dp678
g674
F1.0
ssbF-27.672953272482903
ssbag2
(g271
g4
Ntp679
Rp680
(dp681
g275
F0.30130811806045144
sg276
(dp682
g2
(g278
g4
Ntp683
Rp684
(dp685
g275
F0.0010020522167695988
sg282
g2
(g283
g284
F0.00010163843764243457
tp686
Rp687
sg287
Nsg276
(dp688
g684
F1.0
ssbF300.69103487621044
sg2
(g278
g4
Ntp689
Rp690
(dp691
g275
F0.00332567281366298
sg282
g2
(g283
g284
F0.00033532897652117347
tp692
Rp693
sg287
Nsg276
(dp694
g690
F1.0
ssbF-90.60064983620053
ssbag2
(g271
g4
Ntp695
Rp696
(dp697
g275
F0.3132124203319526
sg276
(dp698
g2
(g278
g4
Ntp699
Rp700
(dp701
g275
F0.0035264411280450532
sg282
g2
(g283
g284
F0.000153812637591713
tp702
Rp703
sg287
Nsg276
(dp704
g700
F1.0
ssbF88.81827569473353
sg2
(g278
g4
Ntp705
Rp706
(dp707
g275
F0.011258944087554438
sg282
g2
(g283
g284
F0.00047567242503352526
tp708
Rp709
sg287
Nsg276
(dp710
g706
F1.0
ssbF-27.818987100058127
ssbag2
(g271
g4
Ntp711
Rp712
(dp713
g275
F0.30100517765231366
sg276
(dp714
g2
(g278
g4
Ntp715
Rp716
(dp717
g275
F0.0008837914588862852
sg282
g2
(g283
g284
F0.00010783680373817038
tp718
Rp719
sg287
Nsg276
(dp720
g716
F1.0
ssbF340.583940505181
sg2
(g278
g4
Ntp721
Rp722
(dp723
g275
F0.0029361337428791302
sg282
g2
(g283
g284
F0.00035608446294163766
tp724
Rp725
sg287
Nsg276
(dp726
g722
F1.0
ssbF-102.51752951728702
ssbag2
(g271
g4
Ntp727
Rp728
(dp729
g275
F0.3116425125246104
sg276
(dp730
g2
(g278
g4
Ntp731
Rp732
(dp733
g275
F0.0035651106252661486
sg282
g2
(g283
g284
F0.0001262878754531985
tp734
Rp735
sg287
Nsg276
(dp736
g732
F1.0
ssbF87.41454201055687
sg2
(g278
g4
Ntp737
Rp738
(dp739
g275
F0.011439744200447017
sg282
g2
(g283
g284
F0.00040276310562861755
tp740
Rp741
sg287
Nsg276
(dp742
g738
F1.0
ssbF-27.24208750335805
ssbag2
(g271
g4
Ntp743
Rp744
(dp745
g275
F0.30112616686514093
sg276
(dp746
g2
(g278
g4
Ntp747
Rp748
(dp749
g275
F0.0009496920985053224
sg282
g2
(g283
g284
F6.215810407950036e-05
tp750
Rp751
sg287
Nsg276
(dp752
g748
F1.0
ssbF317.0776795332612
sg2
(g278
g4
Ntp753
Rp754
(dp755
g275
F0.0031538013065820387
sg282
g2
(g283
g284
F0.00020082501731352292
tp756
Rp757
sg287
Nsg276
(dp758
g754
F1.0
ssbF-95.48038623634447
ssbag2
(g271
g4
Ntp759
Rp760
(dp761
g275
F0.31144833191407656
sg276
(dp762
g2
(g278
g4
Ntp763
Rp764
(dp765
g275
F0.0037085440907897054
sg282
g2
(g283
g284
F0.00013562229190354578
tp766
Rp767
sg287
Nsg276
(dp768
g764
F1.0
ssbF83.98129408453549
sg2
(g278
g4
Ntp769
Rp770
(dp771
g275
F0.011907413560374539
sg282
g2
(g283
g284
F0.0004867057476289889
tp772
Rp773
sg287
Nsg276
(dp774
g770
F1.0
ssbF-26.155833954614085
ssbag2
(g271
g4
Ntp775
Rp776
(dp777
g275
F0.3011794699563296
sg276
(dp778
g2
(g278
g4
Ntp779
Rp780
(dp781
g275
F0.0009701639411568224
sg282
g2
(g283
g284
F5.624842409870614e-05
tp782
Rp783
sg287
Nsg276
(dp784
g780
F1.0
ssbF310.4418306840012
sg2
(g278
g4
Ntp785
Rp786
(dp787
g275
F0.0032212153813056853
sg282
g2
(g283
g284
F0.0001874452264895473
tp788
Rp789
sg287
Nsg276
(dp790
g786
F1.0
ssbF-93.4987060176801
ssbag2
(g271
g4
Ntp791
Rp792
(dp793
g275
F0.31882886989604453
sg276
(dp794
g2
(g278
g4
Ntp795
Rp796
(dp797
g275
F0.0036067534999933725
sg282
g2
(g283
g284
F0.00022535419824843615
tp798
Rp799
sg287
Nsg276
(dp800
g796
F1.0
ssbF88.39774326042253
sg2
(g278
g4
Ntp801
Rp802
(dp803
g275
F0.011312505988461364
sg282
g2
(g283
g284
F0.000883071727266158
tp804
Rp805
sg287
Nsg276
(dp806
g802
F1.0
ssbF-28.1837525850812
ssbag2
(g271
g4
Ntp807
Rp808
(dp809
g275
F0.30101962443767466
sg276
(dp810
g2
(g278
g4
Ntp811
Rp812
(dp813
g275
F0.0009672540827238907
sg282
g2
(g283
g284
F0.00016769602969788784
tp814
Rp815
sg287
Nsg276
(dp816
g812
F1.0
ssbF311.2104976491505
sg2
(g278
g4
Ntp817
Rp818
(dp819
g275
F0.0032132592170054956
sg282
g2
(g283
g284
F0.00055742522163932
tp820
Rp821
sg287
Nsg276
(dp822
g818
F1.0
ssbF-93.68046712340912
ssbag2
(g271
g4
Ntp823
Rp824
(dp825
g275
F0.31914796145628027
sg276
(dp826
g2
(g278
g4
Ntp827
Rp828
(dp829
g275
F0.0036281990319583144
sg282
g2
(g283
g284
F0.0002302553980076564
tp830
Rp831
sg287
Nsg276
(dp832
g828
F1.0
ssbF87.96319017923906
sg2
(g278
g4
Ntp833
Rp834
(dp835
g275
F0.011368391687049322
sg282
g2
(g283
g284
F0.00047464232969544065
tp836
Rp837
sg287
Nsg276
(dp838
g834
F1.0
ssbF-28.07327282889524
ssbag2
(g271
g4
Ntp839
Rp840
(dp841
g275
F0.3012181175678344
sg276
(dp842
g2
(g278
g4
Ntp843
Rp844
(dp845
g275
F0.0009600132662585815
sg282
g2
(g283
g284
F4.522531856250571e-05
tp846
Rp847
sg287
Nsg276
(dp848
g844
F1.0
ssbF313.7645365482905
sg2
(g278
g4
Ntp849
Rp850
(dp851
g275
F0.0031871033323298895
sg282
g2
(g283
g284
F0.000149067658771938
tp852
Rp853
sg287
Nsg276
(dp854
g850
F1.0
ssbF-94.51156305862004
ssbag2
(g271
g4
Ntp855
Rp856
(dp857
g275
F0.3084480195495455
sg276
(dp858
g2
(g278
g4
Ntp859
Rp860
(dp861
g275
F0.0036233665587452903
sg282
g2
(g283
g284
F0.00026846287132368765
tp862
Rp863
sg287
Nsg276
(dp864
g860
F1.0
ssbF85.12746765989797
sg2
(g278
g4
Ntp865
Rp866
(dp867
g275
F0.011747089717213357
sg282
g2
(g283
g284
F0.000837041690708608
tp868
Rp869
sg287
Nsg276
(dp870
g866
F1.0
ssbF-26.25739880896351
ssbag2
(g271
g4
Ntp871
Rp872
(dp873
g275
F0.30116338134742887
sg276
(dp874
g2
(g278
g4
Ntp875
Rp876
(dp877
g275
F0.0008811566810668235
sg282
g2
(g283
g284
F0.00019671587930892857
tp878
Rp879
sg287
Nsg276
(dp880
g876
F1.0
ssbF341.7818735514868
sg2
(g278
g4
Ntp881
Rp882
(dp883
g275
F0.002925842700810632
sg282
g2
(g283
g284
F0.0006568124000996409
tp884
Rp885
sg287
Nsg276
(dp886
g882
F1.0
ssbF-102.93218472202513
ssbag2
(g271
g4
Ntp887
Rp888
(dp889
g275
F0.3160701700975805
sg276
(dp890
g2
(g278
g4
Ntp891
Rp892
(dp893
g275
F0.00373962317300438
sg282
g2
(g283
g284
F0.0001810837833100084
tp894
Rp895
sg287
Nsg276
(dp896
g892
F1.0
ssbF84.51925647996575
sg2
(g278
g4
Ntp897
Rp898
(dp899
g275
F0.011831623249514006
sg282
g2
(g283
g284
F0.0009198943245525031
tp900
Rp901
sg287
Nsg276
(dp902
g898
F1.0
ssbF-26.714015772143803
ssbag2
(g271
g4
Ntp903
Rp904
(dp905
g275
F0.3009747219510686
sg276
(dp906
g2
(g278
g4
Ntp907
Rp908
(dp909
g275
F0.0008990870112330583
sg282
g2
(g283
g284
F0.00015142285877703225
tp910
Rp911
sg287
Nsg276
(dp912
g908
F1.0
ssbF334.75594485376337
sg2
(g278
g4
Ntp913
Rp914
(dp915
g275
F0.0029872509073344327
sg282
g2
(g283
g284
F0.0004984387899674494
tp916
Rp917
sg287
Nsg276
(dp918
g914
F1.0
ssbF-100.7530774238287
ssbag2
(g271
g4
Ntp919
Rp920
(dp921
g275
F0.32145583678820205
sg276
(dp922
g2
(g278
g4
Ntp923
Rp924
(dp925
g275
F0.0036294303479765906
sg282
g2
(g283
g284
F0.00020084829091445195
tp926
Rp927
sg287
Nsg276
(dp928
g924
F1.0
ssbF88.569226012951
sg2
(g278
g4
Ntp929
Rp930
(dp931
g275
F0.011290603350804661
sg282
g2
(g283
g284
F0.00011024771896133647
tp932
Rp933
sg287
Nsg276
(dp934
g930
F1.0
ssbF-28.47109466167656
ssbag2
(g271
g4
Ntp935
Rp936
(dp937
g275
F0.3013298360375351
sg276
(dp938
g2
(g278
g4
Ntp939
Rp940
(dp941
g275
F0.000997377015487719
sg282
g2
(g283
g284
F9.362608912646619e-05
tp942
Rp943
sg287
Nsg276
(dp944
g940
F1.0
ssbF302.12229814638783
sg2
(g278
g4
Ntp945
Rp946
(dp947
g275
F0.0033099178913152194
sg282
g2
(g283
g284
F0.000306083468562666
tp948
Rp949
sg287
Nsg276
(dp950
g946
F1.0
ssbF-91.03846256373434
ssbag2
(g271
g4
Ntp951
Rp952
(dp953
g275
F0.3213186539410031
sg276
(dp954
g2
(g278
g4
Ntp955
Rp956
(dp957
g275
F0.0037472989195748694
sg282
g2
(g283
g284
F0.00019311557034185328
tp958
Rp959
sg287
Nsg276
(dp960
g956
F1.0
ssbF85.74673673950106
sg2
(g278
g4
Ntp961
Rp962
(dp963
g275
F0.01166225139316968
sg282
g2
(g283
g284
F0.0003930450018718698
tp964
Rp965
sg287
Nsg276
(dp966
g962
F1.0
ssbF-27.552026028970037
ssbag2
(g271
g4
Ntp967
Rp968
(dp969
g275
F0.3011289605519654
sg276
(dp970
g2
(g278
g4
Ntp971
Rp972
(dp973
g275
F0.0009423281594741911
sg282
g2
(g283
g284
F0.00010950293639338375
tp974
Rp975
sg287
Nsg276
(dp976
g972
F1.0
ssbF319.55848663165506
sg2
(g278
g4
Ntp977
Rp978
(dp979
g275
F0.0031293176111222114
sg282
g2
(g283
g284
F0.0003641067689323705
tp980
Rp981
sg287
Nsg276
(dp982
g978
F1.0
ssbF-96.22831491494944
ssbag2
(g271
g4
Ntp983
Rp984
(dp985
g275
F0.3168716429392652
sg276
(dp986
g2
(g278
g4
Ntp987
Rp988
(dp989
g275
F0.003743323484542635
sg282
g2
(g283
g284
F0.00020729319682033246
tp990
Rp991
sg287
Nsg276
(dp992
g988
F1.0
ssbF84.64981566453667
sg2
(g278
g4
Ntp993
Rp994
(dp995
g275
F0.011813374809496974
sg282
g2
(g283
g284
F0.0004769702387405825
tp996
Rp997
sg287
Nsg276
(dp998
g994
F1.0
ssbF-26.823126164127682
ssbag2
(g271
g4
Ntp999
Rp1000
(dp1001
g275
F0.3010578826647412
sg276
(dp1002
g2
(g278
g4
Ntp1003
Rp1004
(dp1005
g275
F0.0009178660917011996
sg282
g2
(g283
g284
F0.0001441547695009606
tp1006
Rp1007
sg287
Nsg276
(dp1008
g1004
F1.0
ssbF327.9976081333954
sg2
(g278
g4
Ntp1009
Rp1010
(dp1011
g275
F0.003048802720516498
sg282
g2
(g283
g284
F0.00047779457580377784
tp1012
Rp1013
sg287
Nsg276
(dp1014
g1010
F1.0
ssbF-98.74626542373952
ssbag2
(g271
g4
Ntp1015
Rp1016
(dp1017
g275
F0.31805136630813674
sg276
(dp1018
g2
(g278
g4
Ntp1019
Rp1020
(dp1021
g275
F0.003555795220944415
sg282
g2
(g283
g284
F0.0003025575630734423
tp1022
Rp1023
sg287
Nsg276
(dp1024
g1020
F1.0
ssbF89.4459175924261
sg2
(g278
g4
Ntp1025
Rp1026
(dp1027
g275
F0.011179940090241477
sg282
g2
(g283
g284
F0.0006894118941738624
tp1028
Rp1029
sg287
Nsg276
(dp1030
g1026
F1.0
ssbF-28.44839630095613
ssbag2
(g271
g4
Ntp1031
Rp1032
(dp1033
g275
F0.3012982243448512
sg276
(dp1034
g2
(g278
g4
Ntp1035
Rp1036
(dp1037
g275
F0.001013781841796214
sg282
g2
(g283
g284
F0.0001278148815197924
tp1038
Rp1039
sg287
Nsg276
(dp1040
g1036
F1.0
ssbF297.2022302263892
sg2
(g278
g4
Ntp1041
Rp1042
(dp1043
g275
F0.0033647123012443938
sg282
g2
(g283
g284
F0.0004221743989990893
tp1044
Rp1045
sg287
Nsg276
(dp1046
g1042
F1.0
ssbF-89.54650423854072
ssbatp1047
bsS'# groups'
p1048
I2
sS'xs type'
p1049
g144
s.