(dp0
S'domain'
p1
ccopy_reg
_reconstructor
p2
(copenmc.universe
Cell
p3
c__builtin__
object
p4
Ntp5
Rp6
(dp7
S'_type'
p8
S'normal'
p9
sS'_rotation'
p10
NsS'_fill'
p11
g2
(copenmc.material
Material
p12
g4
Ntp13
Rp14
(dp15
S'_density_units'
p16
S'g/cm3'
p17
sS'_density'
p18
F2.5295110490843215e-05
sS'_sab'
p19
NsS'_name'
p20
S''
p21
sS'_nuclides'
p22
(dp23
sS'_elements'
p24
(dp25
sS'_id'
p26
I10006
sbsg20
g21
sS'_translation'
p27
NsS'_offset'
p28
Nsg26
I10015
sS'_surfaces'
p29
(dp30
I10005
(g2
(copenmc.surface
ZCylinder
p31
g4
Ntp32
Rp33
(dp34
g8
S'z-cylinder'
p35
sS'_R'
p36
NsS'_coeffs'
p37
(dp38
S'y0'
p39
F0.0
sS'x0'
p40
F0.0
sS'R'
p41
F0.43688
ssg20
g21
sS'_bc_type'
p42
S'transmission'
p43
sg26
I10005
sS'_x0'
p44
NsS'_coeff_keys'
p45
(lp46
g40
ag39
ag41
asS'_y0'
p47
Nsbcnumpy.core.multiarray
scalar
p48
(cnumpy
dtype
p49
(S'i8'
p50
I0
I1
tp51
Rp52
(I3
S'<'
p53
NNNI-1
I-1
I0
tp54
bS'\xff\xff\xff\xff\xff\xff\xff\xff'
p55
tp56
Rp57
tp58
ssbsS'group bounds'
p59
cnumpy.core.multiarray
_reconstruct
p60
(cnumpy
ndarray
p61
(I0
tp62
S'b'
p63
tp64
Rp65
(I1
(I3
tp66
g49
(S'f8'
p67
I0
I1
tp68
Rp69
(I3
S'<'
p70
NNNI-1
I-1
I0
tp71
bI00
S'\x00\x00\x00\x00\x00\x00\x00\x00\xf1h\xe3\x88\xb5\xf8\xa4>\x00\x00\x00\x00\x00\x00$@'
p72
tp73
bsS'tallies'
p74
(dp75
S'nu-scatter'
p76
g2
(copenmc.tallies
Tally
p77
g4
Ntp78
Rp79
(dp80
S'_num_tot_score_bins'
p81
I1
sS'_label'
p82
S'2 groups'
p83
sS'_filters'
p84
(lp85
g2
(copenmc.tallies
Filter
p86
g4
Ntp87
Rp88
(dp89
S'_mesh'
p90
Nsg8
S'distribcell'
p91
sg28
I8
sS'_stride'
p92
I1
sS'_bin_edges'
p93
(lp94
I10015
asbag2
(g86
g4
Ntp95
Rp96
(dp97
g90
Nsg8
S'energy'
p98
sg28
I0
sg92
I1
sg93
(lp99
F0.0
aF6.25e-07
aF10.0
asbasS'_sum_sq'
p100
g60
(g61
(I0
tp101
g63
tp102
Rp103
(I1
(I2
I1
tp104
g69
I00
S'\x00\x00\x00\x00\x00\x00\x00\x00\x00\x00\x00\x00\x00\x00\x00\x00'
p105
tp106
bsS'_std_dev'
p107
g60
(g61
(I0
tp108
g63
tp109
Rp110
(I1
(I2
I1
tp111
g69
I00
S'\x00\x00\x00\x00\x00\x00\x00\x00\x00\x00\x00\x00\x00\x00\x00\x00'
p112
tp113
bsS'_num_tot_filter_bins'
p114
I2
sS'_mean'
p115
g60
(g61
(I0
tp116
g63
tp117
Rp118
(I1
(I2
I1
tp119
g69
I00
S'\x00\x00\x00\x00\x00\x00\x00\x00\x00\x00\x00\x00\x00\x00\x00\x00'
p120
tp121
bsS'_num_realizations'
p122
I5
sg22
(lp123
sS'_sum'
p124
g60
(g61
(I0
tp125
g63
tp126
Rp127
(I1
(I2
I1
tp128
g69
I00
S'\x00\x00\x00\x00\x00\x00\x00\x00\x00\x00\x00\x00\x00\x00\x00\x00'
p129
tp130
bsS'_estimator'
p131
S'analog'
p132
sS'_scores'
p133
(lp134
S'nu-scatter'
p135
asg26
I10086
sbsS'flux'
p136
g2
(g77
g4
Ntp137
Rp138
(dp139
g81
I1
sg82
S'2 groups'
p140
sg84
(lp141
g2
(g86
g4
Ntp142
Rp143
(dp144
g90
Nsg8
g91
sg28
I8
sg92
I1
sg93
(lp145
I10015
asbag2
(g86
g4
Ntp146
Rp147
(dp148
g90
Nsg8
g98
sg28
I0
sg92
I1
sg93
(lp149
F0.0
aF6.25e-07
aF10.0
asbasg100
g60
(g61
(I0
tp150
g63
tp151
Rp152
(I1
(I2
I1
tp153
g69
I00
S'\x00\x00\x00\x00\x00\x00\x00\x00\x00\x00\x00\x00\x00\x00\x00\x00'
p154
tp155
bsg107
g60
(g61
(I0
tp156
g63
tp157
Rp158
(I1
(I2
I1
tp159
g69
I00
S'\x00\x00\x00\x00\x00\x00\x00\x00\x00\x00\x00\x00\x00\x00\x00\x00'
p160
tp161
bsg114
I2
sg115
g60
(g61
(I0
tp162
g63
tp163
Rp164
(I1
(I2
I1
tp165
g69
I00
S'\x00\x00\x00\x00\x00\x00\x00\x00\x00\x00\x00\x00\x00\x00\x00\x00'
p166
tp167
bsg122
I5
sg22
(lp168
sg124
g60
(g61
(I0
tp169
g63
tp170
Rp171
(I1
(I2
I1
tp172
g69
I00
S'\x00\x00\x00\x00\x00\x00\x00\x00\x00\x00\x00\x00\x00\x00\x00\x00'
p173
tp174
bsg131
g132
sg133
(lp175
g136
asg26
I10078
sbssS'subdomain offsets'
p176
(dp177
I566
g48
(g52
S'\x00\x00\x00\x00\x00\x00\x00\x00'
p178
tp179
Rp180
ssS'offset'
p181
I8
sS'domain type'
p182
g91
sS'xs'
p183
g60
(g61
(I0
tp184
g63
tp185
Rp186
(I1
(I1
I2
tp187
g49
(S'O8'
p188
I0
I1
tp189
Rp190
(I3
S'|'
p191
NNNI-1
I-1
I63
tp192
bI00
(lp193
g2
(cuncertainties
AffineScalarFunc
p194
g4
Ntp195
Rp196
(dp197
S'_nominal_value'
p198
F0.0
sS'derivatives'
p199
(dp200
g2
(cuncertainties
Variable
p201
g4
Ntp202
Rp203
(dp204
g198
F0.0
sS'_std_dev'
p205
g2
(cuncertainties
CallableStdDev
p206
c__builtin__
float
p207
F0.0
tp208
Rp209
sS'tag'
p210
Nsg199
(dp211
g203
F1.0
ssbF-1.0
sg2
(g201
g4
Ntp212
Rp213
(dp214
g198
F-1.0
sg205
g2
(g206
g207
F0.0
tp215
Rp216
sg210
Nsg199
(dp217
g213
F1.0
ssbF0.0
ssbag2
(g194
g4
Ntp218
Rp219
(dp220
g198
F0.0
sg199
(dp221
g2
(g201
g4
Ntp222
Rp223
(dp224
g198
F0.0
sg205
g2
(g206
g207
F0.0
tp225
Rp226
sg210
Nsg199
(dp227
g223
F1.0
ssbF-1.0
sg213
F0.0
ssbatp228
bsS'# groups'
p229
I2
sS'xs type'
p230
S'nu-scatter'
p231
s.