(dp0
S'domain'
p1
ccopy_reg
_reconstructor
p2
(copenmc.universe
Cell
p3
c__builtin__
object
p4
Ntp5
Rp6
(dp7
S'_type'
p8
S'normal'
p9
sS'_rotation'
p10
NsS'_fill'
p11
g2
(copenmc.material
Material
p12
g4
Ntp13
Rp14
(dp15
S'_density_units'
p16
S'g/cm3'
p17
sS'_density'
p18
F0.07425478275227912
sS'_sab'
p19
NsS'_name'
p20
S''
p21
sS'_nuclides'
p22
(dp23
sS'_elements'
p24
(dp25
sS'_id'
p26
I10003
sbsg20
g21
sS'_translation'
p27
NsS'_offset'
p28
Nsg26
I10017
sS'_surfaces'
p29
(dp30
I10006
(g2
(copenmc.surface
ZCylinder
p31
g4
Ntp32
Rp33
(dp34
g8
S'z-cylinder'
p35
sS'_R'
p36
NsS'_coeffs'
p37
(dp38
S'y0'
p39
F0.0
sS'x0'
p40
F0.0
sS'R'
p41
F0.48387
ssg20
g21
sS'_bc_type'
p42
S'transmission'
p43
sg26
I10006
sS'_x0'
p44
NsS'_coeff_keys'
p45
(lp46
g40
ag39
ag41
asS'_y0'
p47
Nsbcnumpy.core.multiarray
scalar
p48
(cnumpy
dtype
p49
(S'i8'
p50
I0
I1
tp51
Rp52
(I3
S'<'
p53
NNNI-1
I-1
I0
tp54
bS'\x01\x00\x00\x00\x00\x00\x00\x00'
p55
tp56
Rp57
tp58
ssbsS'group bounds'
p59
cnumpy.core.multiarray
_reconstruct
p60
(cnumpy
ndarray
p61
(I0
tp62
S'b'
p63
tp64
Rp65
(I1
(I3
tp66
g49
(S'f8'
p67
I0
I1
tp68
Rp69
(I3
S'<'
p70
NNNI-1
I-1
I0
tp71
bI00
S'\x00\x00\x00\x00\x00\x00\x00\x00\xf1h\xe3\x88\xb5\xf8\xa4>\x00\x00\x00\x00\x00\x00$@'
p72
tp73
bsS'tallies'
p74
(dp75
S'flux'
p76
g2
(copenmc.tallies
Tally
p77
g4
Ntp78
Rp79
(dp80
S'_num_tot_score_bins'
p81
I1
sS'_label'
p82
S'2 groups'
p83
sS'_filters'
p84
(lp85
g2
(copenmc.tallies
Filter
p86
g4
Ntp87
Rp88
(dp89
S'_mesh'
p90
Nsg8
S'distribcell'
p91
sg28
I10
sS'_stride'
p92
I1
sS'_bin_edges'
p93
(lp94
I10017
asbag2
(g86
g4
Ntp95
Rp96
(dp97
g90
Nsg8
S'energy'
p98
sg28
I0
sg92
I1
sg93
(lp99
F0.0
aF6.25e-07
aF10.0
asbasS'_sum_sq'
p100
g60
(g61
(I0
tp101
g63
tp102
Rp103
(I1
(I2
I1
tp104
g69
I00
S'\xd3\x0cV\x8d\xb0\x9d\\?\xa2X\xce\x8e\xf3C\x98?'
p105
tp106
bsS'_std_dev'
p107
g60
(g61
(I0
tp108
g63
tp109
Rp110
(I1
(I2
I1
tp111
g69
I00
S'\xc9\t9Ft\x8fJ?)\xad\xc9JZ\x7f\x80?'
p112
tp113
bsS'_num_tot_filter_bins'
p114
I2
sS'_mean'
p115
g60
(g61
(I0
tp116
g63
tp117
Rp118
(I1
(I2
I1
tp119
g69
I00
S'\xd1E]x\x14!\x93?\x92\xc6\xe4\xc4\xa1\x8f\xb1?'
p120
tp121
bsS'_num_realizations'
p122
I5
sg22
(lp123
sS'_sum'
p124
g60
(g61
(I0
tp125
g63
tp126
Rp127
(I1
(I2
I1
tp128
g69
I00
S'E\x97t\x96Y\xe9\xb7?6\xf8\x1d6\x8a\xf3\xd5?'
p129
tp130
bsS'_estimator'
p131
S'analog'
p132
sS'_scores'
p133
(lp134
g76
asg26
I10002
sbsS'total'
p135
g2
(g77
g4
Ntp136
Rp137
(dp138
g81
I1
sg82
S'2 groups'
p139
sg84
(lp140
g2
(g86
g4
Ntp141
Rp142
(dp143
g90
Nsg8
g91
sg28
I10
sg92
I1
sg93
(lp144
I10017
asbag2
(g86
g4
Ntp145
Rp146
(dp147
g90
Nsg8
g98
sg28
I0
sg92
I1
sg93
(lp148
F0.0
aF6.25e-07
aF10.0
asbasg100
g60
(g61
(I0
tp149
g63
tp150
Rp151
(I1
(I2
I1
tp152
g69
I00
S'\x03\xb7\x83K\xa6\x8en?;=)r\x0c\xf1\x85?'
p153
tp154
bsg107
g60
(g61
(I0
tp155
g63
tp156
Rp157
(I1
(I2
I1
tp158
g69
I00
S'\xf2\xb4\xb1\xffA\x83S?\xe2\xcc`%L\xdfl?'
p159
tp160
bsg114
I2
sg115
g60
(g61
(I0
tp161
g63
tp162
Rp163
(I1
(I2
I1
tp164
g69
I00
S'\xa2#\xb9\xfc\x87\xf4\x9b?\n\x9d\xd7\xd8%\xaa\xa7?'
p165
tp166
bsg122
I5
sg22
(lp167
sg124
g60
(g61
(I0
tp168
g63
tp169
Rp170
(I1
(I2
I1
tp171
g69
I00
S'E\xb6\xf3\xfd\xd4x\xc1?L\x84\rO\xaf\x94\xcd?'
p172
tp173
bsg131
g132
sg133
(lp174
g135
asg26
I10003
sbsS'scatter-1'
p175
g2
(g77
g4
Ntp176
Rp177
(dp178
g81
I1
sg82
S'2 groups'
p179
sg84
(lp180
g2
(g86
g4
Ntp181
Rp182
(dp183
g90
Nsg8
g91
sg28
I10
sg92
I1
sg93
(lp184
I10017
asbag2
(g86
g4
Ntp185
Rp186
(dp187
g90
Nsg8
g98
sg28
I0
sg92
I1
sg93
(lp188
F0.0
aF6.25e-07
aF10.0
asbasg100
g60
(g61
(I0
tp189
g63
tp190
Rp191
(I1
(I2
I1
tp192
g69
I00
S'4\xc1|M\x88\x19A?\x96_T\x829\x81n?'
p193
tp194
bsg107
g60
(g61
(I0
tp195
g63
tp196
Rp197
(I1
(I2
I1
tp198
g69
I00
S'\x8av\xc9\xff\xb3\x8aD?\xc6\xb4j\xf0\xf6Jc?'
p199
tp200
bsg114
I2
sg115
g60
(g61
(I0
tp201
g63
tp202
Rp203
(I1
(I2
I1
tp204
g69
I00
S'&-\xb4E\xf0\xe6\x84?\xf0\xd31\xc5\x14\xe4\x9b?'
p205
tp206
bsg122
I5
sg22
(lp207
sg124
g60
(g61
(I0
tp208
g63
tp209
Rp210
(I1
(I2
I1
tp211
g69
I00
S'p8!W\xac \xaa?v$?\xfb\x8cn\xc1?'
p212
tp213
bsg131
g132
sg133
(lp214
S'scatter-1'
p215
asg26
I10004
sbssS'subdomain offsets'
p216
(dp217
I565
g48
(g52
S'\x00\x00\x00\x00\x00\x00\x00\x00'
p218
tp219
Rp220
ssS'offset'
p221
I10
sS'domain type'
p222
g91
sS'xs'
p223
g60
(g61
(I0
tp224
g63
tp225
Rp226
(I1
(I1
I2
tp227
g49
(S'O8'
p228
I0
I1
tp229
Rp230
(I3
S'|'
p231
NNNI-1
I-1
I63
tp232
bI00
(lp233
g2
(cuncertainties
AffineScalarFunc
p234
g4
Ntp235
Rp236
(dp237
S'_nominal_value'
p238
F0.2767249768773194
sS'derivatives'
p239
(dp240
g2
(cuncertainties
Variable
p241
g4
Ntp242
Rp243
(dp244
g238
F0.04622
sS'_std_dev'
p245
g2
(cuncertainties
CallableStdDev
p246
c__builtin__
float
p247
F0.003524445269272301
tp248
Rp249
sS'tag'
p250
Nsg239
(dp251
g243
F1.0
ssbF14.577705938368483
sg2
(g241
g4
Ntp252
Rp253
(dp254
g238
F0.027237247978025125
sg245
g2
(g246
g247
F0.0023550818471763406
tp255
Rp256
sg250
Nsg239
(dp257
g253
F1.0
ssbF-14.577705938368483
sg2
(g241
g4
Ntp258
Rp259
(dp260
g238
F0.06859789902662275
sg245
g2
(g246
g247
F0.008055406005232317
tp261
Rp262
sg250
Nsg239
(dp263
g259
F1.0
ssbF-4.03401533871938
ssbag2
(g234
g4
Ntp264
Rp265
(dp266
g238
F0.9150477332056991
sg239
(dp267
g2
(g241
g4
Ntp268
Rp269
(dp270
g238
F0.027299999999999998
sg245
g2
(g246
g247
F0.0011909622687896163
tp271
Rp272
sg250
Nsg239
(dp273
g269
F1.0
ssbF53.53067584250598
sg2
(g241
g4
Ntp274
Rp275
(dp276
g238
F0.010206105353538119
sg245
g2
(g246
g247
F0.0006268862631022148
tp277
Rp278
sg250
Nsg239
(dp279
g275
F1.0
ssbF-53.53067584250598
sg2
(g241
g4
Ntp280
Rp281
(dp282
g238
F0.018680877539116573
sg245
g2
(g246
g247
F0.0008105581040996286
tp283
Rp284
sg250
Nsg239
(dp285
g281
F1.0
ssbF-48.98312358665417
ssbatp286
bsS'# groups'
p287
I2
sS'xs type'
p288
S'transport'
p289
s.