(dp0
S'domain'
p1
ccopy_reg
_reconstructor
p2
(copenmc.universe
Cell
p3
c__builtin__
object
p4
Ntp5
Rp6
(dp7
S'_type'
p8
S'normal'
p9
sS'_rotation'
p10
NsS'_fill'
p11
g2
(copenmc.material
Material
p12
g4
Ntp13
Rp14
(dp15
S'_density_units'
p16
S'g/cm3'
p17
sS'_density'
p18
F0.043439030625154515
sS'_sab'
p19
NsS'_name'
p20
S''
p21
sS'_nuclides'
p22
(dp23
sS'_elements'
p24
(dp25
sS'_id'
p26
I10005
sbsg20
g21
sS'_translation'
p27
NsS'_offset'
p28
Nsg26
I10016
sS'_surfaces'
p29
(dp30
I10005
(g2
(copenmc.surface
ZCylinder
p31
g4
Ntp32
Rp33
(dp34
g8
S'z-cylinder'
p35
sS'_R'
p36
NsS'_coeffs'
p37
(dp38
S'y0'
p39
F0.0
sS'x0'
p40
F0.0
sS'R'
p41
F0.43688
ssg20
g21
sS'_bc_type'
p42
S'transmission'
p43
sg26
I10005
sS'_x0'
p44
NsS'_coeff_keys'
p45
(lp46
g40
ag39
ag41
asS'_y0'
p47
Nsbcnumpy.core.multiarray
scalar
p48
(cnumpy
dtype
p49
(S'i8'
p50
I0
I1
tp51
Rp52
(I3
S'<'
p53
NNNI-1
I-1
I0
tp54
bS'\x01\x00\x00\x00\x00\x00\x00\x00'
p55
tp56
Rp57
tp58
sI10006
(g2
(g31
g4
Ntp59
Rp60
(dp61
g8
g35
sg36
Nsg37
(dp62
g39
F0.0
sg40
F0.0
sg41
F0.48387
ssg20
g21
sg42
g43
sg26
I10006
sg44
Nsg45
(lp63
g40
ag39
ag41
asg47
Nsbg48
(g52
S'\xff\xff\xff\xff\xff\xff\xff\xff'
p64
tp65
Rp66
tp67
ssbsS'group bounds'
p68
cnumpy.core.multiarray
_reconstruct
p69
(cnumpy
ndarray
p70
(I0
tp71
S'b'
p72
tp73
Rp74
(I1
(I3
tp75
g49
(S'f8'
p76
I0
I1
tp77
Rp78
(I3
S'<'
p79
NNNI-1
I-1
I0
tp80
bI00
S'\x00\x00\x00\x00\x00\x00\x00\x00\xf1h\xe3\x88\xb5\xf8\xa4>\x00\x00\x00\x00\x00\x00$@'
p81
tp82
bsS'tallies'
p83
(dp84
S'nu-scatter'
p85
g2
(copenmc.tallies
Tally
p86
g4
Ntp87
Rp88
(dp89
S'_num_tot_score_bins'
p90
I1
sS'_label'
p91
S'2 groups'
p92
sS'_filters'
p93
(lp94
g2
(copenmc.tallies
Filter
p95
g4
Ntp96
Rp97
(dp98
S'_mesh'
p99
Nsg8
S'distribcell'
p100
sg28
I9
sS'_stride'
p101
I1
sS'_bin_edges'
p102
(lp103
I10016
asbag2
(g95
g4
Ntp104
Rp105
(dp106
g99
Nsg8
S'energy'
p107
sg28
I0
sg101
I1
sg102
(lp108
F0.0
aF6.25e-07
aF10.0
asbasS'_sum_sq'
p109
g69
(g70
(I0
tp110
g72
tp111
Rp112
(I1
(I2
I1
tp113
g78
I00
S"\x05\xa2'eRC\xcb>\xc2\x8a2\x9f\x9c6\r?"
p114
tp115
bsS'_std_dev'
p116
g69
(g70
(I0
tp117
g72
tp118
Rp119
(I1
(I2
I1
tp120
g78
I00
S'\x9c\xd5S\x8c\xf6\x1c=?\xc5\xd9\xfd\x9f\xad\xb9??'
p121
tp122
bsS'_num_tot_filter_bins'
p123
I2
sS'_mean'
p124
g69
(g70
(I0
tp125
g72
tp126
Rp127
(I1
(I2
I1
tp128
g78
I00
S'V\xf1F\xe6\x91?H?\x18\xec\x86m\x8b2k?'
p129
tp130
bsS'_num_realizations'
p131
I5
sg22
(lp132
sS'_sum'
p133
g69
(g70
(I0
tp134
g72
tp135
Rp136
(I1
(I2
I1
tp137
g78
I00
S'\xac\xad\xd8_vOn?\x8fSt$\x97\xff\x90?'
p138
tp139
bsS'_estimator'
p140
S'analog'
p141
sS'_scores'
p142
(lp143
S'nu-scatter'
p144
asg26
I10162
sbsS'flux'
p145
g2
(g86
g4
Ntp146
Rp147
(dp148
g90
I1
sg91
S'2 groups'
p149
sg93
(lp150
g2
(g95
g4
Ntp151
Rp152
(dp153
g99
Nsg8
g100
sg28
I9
sg101
I1
sg102
(lp154
I10016
asbag2
(g95
g4
Ntp155
Rp156
(dp157
g99
Nsg8
g107
sg28
I0
sg101
I1
sg102
(lp158
F0.0
aF6.25e-07
aF10.0
asbasg109
g69
(g70
(I0
tp159
g72
tp160
Rp161
(I1
(I2
I1
tp162
g78
I00
S'\x0c\xf0\x1cq\xd1\xda\x03?\x86\x8f;szWA?'
p163
tp164
bsg116
g69
(g70
(I0
tp165
g72
tp166
Rp167
(I1
(I2
I1
tp168
g78
I00
S'\x0b\x8e\x11\xea\xc6\x97X?X\x0b\x0c\x1f\xc4d\\?'
p169
tp170
bsg123
I2
sg124
g69
(g70
(I0
tp171
g72
tp172
Rp173
(I1
(I2
I1
tp174
g78
I00
S'\xbc\xf8h\x07p\xbbd?\x1a\x01>\xeb\x14\xea\x84?'
p175
tp176
bsg131
I5
sg22
(lp177
sg133
g69
(g70
(I0
tp178
g72
tp179
Rp180
(I1
(I2
I1
tp181
g78
I00
S'\xeb6C\tL\xea\x89?`\x81\r&\x9a$\xaa?'
p182
tp183
bsg140
g141
sg142
(lp184
g145
asg26
I10154
sbssS'subdomain offsets'
p185
(dp186
I564
g48
(g52
S'\x00\x00\x00\x00\x00\x00\x00\x00'
p187
tp188
Rp189
ssS'offset'
p190
I9
sS'domain type'
p191
g100
sS'xs'
p192
g69
(g70
(I0
tp193
g72
tp194
Rp195
(I1
(I1
I2
tp196
g49
(S'O8'
p197
I0
I1
tp198
Rp199
(I3
S'|'
p200
NNNI-1
I-1
I63
tp201
bI00
(lp202
g2
(cuncertainties
AffineScalarFunc
p203
g4
Ntp204
Rp205
(dp206
S'_nominal_value'
p207
F0.32510451890981634
sS'derivatives'
p208
(dp209
g2
(cuncertainties
Variable
p210
g4
Ntp211
Rp212
(dp213
g207
F0.00332
sS'_std_dev'
p214
g2
(cuncertainties
CallableStdDev
p215
c__builtin__
float
p216
F0.0004840897454338157
tp217
Rp218
sS'tag'
p219
Nsg208
(dp220
g212
F1.0
ssbF97.92304786440252
sg2
(g210
g4
Ntp221
Rp222
(dp223
g207
F0.010212100438139294
sg214
g2
(g215
g216
F0.0017330088850832839
tp224
Rp225
sg219
Nsg208
(dp226
g222
F1.0
ssbF-31.8352253661395
ssbag2
(g203
g4
Ntp227
Rp228
(dp229
g207
F0.2923995707794716
sg208
(dp230
g2
(g210
g4
Ntp231
Rp232
(dp233
g207
F0.00074
sg214
g2
(g215
g216
F0.0004442312168316477
tp234
Rp235
sg219
Nsg208
(dp236
g232
F1.0
ssbF395.1345551073941
sg2
(g210
g4
Ntp237
Rp238
(dp239
g207
F0.0025307834687558744
sg214
g2
(g215
g216
F0.0015010302088506202
tp240
Rp241
sg219
Nsg208
(dp242
g238
F1.0
ssbF-115.53717431353951
ssbatp243
bsS'# groups'
p244
I2
sS'xs type'
p245
S'nu-scatter'
p246
s.