(dp0
S'domain'
p1
ccopy_reg
_reconstructor
p2
(copenmc.universe
Cell
p3
c__builtin__
object
p4
Ntp5
Rp6
(dp7
S'_type'
p8
S'normal'
p9
sS'_rotation'
p10
NsS'_fill'
p11
g2
(copenmc.material
Material
p12
g4
Ntp13
Rp14
(dp15
S'_density_units'
p16
S'g/cm3'
p17
sS'_density'
p18
F0.043439030625154515
sS'_sab'
p19
NsS'_name'
p20
S''
p21
sS'_nuclides'
p22
(dp23
sS'_elements'
p24
(dp25
sS'_id'
p26
I10005
sbsg20
g21
sS'_translation'
p27
NsS'_offset'
p28
Nsg26
I10016
sS'_surfaces'
p29
(dp30
I10005
(g2
(copenmc.surface
ZCylinder
p31
g4
Ntp32
Rp33
(dp34
g8
S'z-cylinder'
p35
sS'_R'
p36
NsS'_coeffs'
p37
(dp38
S'y0'
p39
F0.0
sS'x0'
p40
F0.0
sS'R'
p41
F0.43688
ssg20
g21
sS'_bc_type'
p42
S'transmission'
p43
sg26
I10005
sS'_x0'
p44
NsS'_coeff_keys'
p45
(lp46
g40
ag39
ag41
asS'_y0'
p47
Nsbcnumpy.core.multiarray
scalar
p48
(cnumpy
dtype
p49
(S'i8'
p50
I0
I1
tp51
Rp52
(I3
S'<'
p53
NNNI-1
I-1
I0
tp54
bS'\x01\x00\x00\x00\x00\x00\x00\x00'
p55
tp56
Rp57
tp58
sI10006
(g2
(g31
g4
Ntp59
Rp60
(dp61
g8
g35
sg36
Nsg37
(dp62
g39
F0.0
sg40
F0.0
sg41
F0.48387
ssg20
g21
sg42
g43
sg26
I10006
sg44
Nsg45
(lp63
g40
ag39
ag41
asg47
Nsbg48
(g52
S'\xff\xff\xff\xff\xff\xff\xff\xff'
p64
tp65
Rp66
tp67
ssbsS'group bounds'
p68
cnumpy.core.multiarray
_reconstruct
p69
(cnumpy
ndarray
p70
(I0
tp71
S'b'
p72
tp73
Rp74
(I1
(I3
tp75
g49
(S'f8'
p76
I0
I1
tp77
Rp78
(I3
S'<'
p79
NNNI-1
I-1
I0
tp80
bI00
S'\x00\x00\x00\x00\x00\x00\x00\x00\xf1h\xe3\x88\xb5\xf8\xa4>\x00\x00\x00\x00\x00\x00$@'
p81
tp82
bsS'tallies'
p83
(dp84
S'nu-fission-in'
p85
g2
(copenmc.tallies
Tally
p86
g4
Ntp87
Rp88
(dp89
S'_num_tot_score_bins'
p90
I1
sS'_label'
p91
S'2 groups'
p92
sS'_filters'
p93
(lp94
g2
(copenmc.tallies
Filter
p95
g4
Ntp96
Rp97
(dp98
S'_mesh'
p99
Nsg8
S'distribcell'
p100
sg28
I9
sS'_stride'
p101
I1
sS'_bin_edges'
p102
(lp103
I10016
asbag2
(g95
g4
Ntp104
Rp105
(dp106
g99
Nsg8
S'energy'
p107
sg28
I0
sg101
I1
sg102
(lp108
F0.0
aF6.25e-07
aF10.0
asbasS'_sum_sq'
p109
g69
(g70
(I0
tp110
g72
tp111
Rp112
(I1
(I2
I1
tp113
g78
I00
S'\x00\x00\x00\x00\x00\x00\x00\x00\x00\x00\x00\x00\x00\x00\x00\x00'
p114
tp115
bsS'_std_dev'
p116
g69
(g70
(I0
tp117
g72
tp118
Rp119
(I1
(I2
I1
tp120
g78
I00
S'\x00\x00\x00\x00\x00\x00\x00\x00\x00\x00\x00\x00\x00\x00\x00\x00'
p121
tp122
bsS'_num_tot_filter_bins'
p123
I2
sS'_mean'
p124
g69
(g70
(I0
tp125
g72
tp126
Rp127
(I1
(I2
I1
tp128
g78
I00
S'\x00\x00\x00\x00\x00\x00\x00\x00\x00\x00\x00\x00\x00\x00\x00\x00'
p129
tp130
bsS'_num_realizations'
p131
I5
sg22
(lp132
sS'_sum'
p133
g69
(g70
(I0
tp134
g72
tp135
Rp136
(I1
(I2
I1
tp137
g78
I00
S'\x00\x00\x00\x00\x00\x00\x00\x00\x00\x00\x00\x00\x00\x00\x00\x00'
p138
tp139
bsS'_estimator'
p140
S'analog'
p141
sS'_scores'
p142
(lp143
S'nu-fission'
p144
asg26
I10169
sbsS'nu-fission-out'
p145
g2
(g86
g4
Ntp146
Rp147
(dp148
g90
I1
sg91
S'2 groups'
p149
sg93
(lp150
g2
(g95
g4
Ntp151
Rp152
(dp153
g99
Nsg8
g100
sg28
I9
sg101
I1
sg102
(lp154
I10016
asbag2
(g95
g4
Ntp155
Rp156
(dp157
g99
Nsg8
S'energyout'
p158
sg28
I0
sg101
I1
sg102
(lp159
F0.0
aF6.25e-07
aF10.0
asbasg109
g69
(g70
(I0
tp160
g72
tp161
Rp162
(I1
(I2
I1
tp163
g78
I00
S'\x00\x00\x00\x00\x00\x00\x00\x00\x00\x00\x00\x00\x00\x00\x00\x00'
p164
tp165
bsg116
g69
(g70
(I0
tp166
g72
tp167
Rp168
(I1
(I2
I1
tp169
g78
I00
S'\x00\x00\x00\x00\x00\x00\x00\x00\x00\x00\x00\x00\x00\x00\x00\x00'
p170
tp171
bsg123
I2
sg124
g69
(g70
(I0
tp172
g72
tp173
Rp174
(I1
(I2
I1
tp175
g78
I00
S'\x00\x00\x00\x00\x00\x00\x00\x00\x00\x00\x00\x00\x00\x00\x00\x00'
p176
tp177
bsg131
I5
sg22
(lp178
sg133
g69
(g70
(I0
tp179
g72
tp180
Rp181
(I1
(I2
I1
tp182
g78
I00
S'\x00\x00\x00\x00\x00\x00\x00\x00\x00\x00\x00\x00\x00\x00\x00\x00'
p183
tp184
bsg140
g141
sg142
(lp185
g144
asg26
I10170
sbssS'subdomain offsets'
p186
(dp187
I564
g48
(g52
S'\x00\x00\x00\x00\x00\x00\x00\x00'
p188
tp189
Rp190
ssS'offset'
p191
I9
sS'domain type'
p192
g100
sS'xs'
p193
g69
(g70
(I0
tp194
g72
tp195
Rp196
(I1
(I1
I2
tp197
g49
(S'O8'
p198
I0
I1
tp199
Rp200
(I3
S'|'
p201
NNNI-1
I-1
I63
tp202
bI00
(lp203
g2
(cuncertainties
Variable
p204
g4
Ntp205
Rp206
(dp207
S'_nominal_value'
p208
F0.0
sS'_std_dev'
p209
g2
(cuncertainties
CallableStdDev
p210
c__builtin__
float
p211
F0.0
tp212
Rp213
sS'tag'
p214
NsS'derivatives'
p215
(dp216
g206
F1.0
ssbag2
(g204
g4
Ntp217
Rp218
(dp219
g208
F0.0
sg209
g2
(g210
g211
F0.0
tp220
Rp221
sg214
Nsg215
(dp222
g218
F1.0
ssbatp223
bsS'# groups'
p224
I2
sS'xs type'
p225
S'chi'
p226
s.