(dp0
S'domain'
p1
ccopy_reg
_reconstructor
p2
(copenmc.universe
Cell
p3
c__builtin__
object
p4
Ntp5
Rp6
(dp7
S'_type'
p8
S'normal'
p9
sS'_rotation'
p10
NsS'_fill'
p11
g2
(copenmc.material
Material
p12
g4
Ntp13
Rp14
(dp15
S'_density_units'
p16
S'g/cm3'
p17
sS'_density'
p18
F0.043439030625154515
sS'_sab'
p19
NsS'_name'
p20
S''
p21
sS'_nuclides'
p22
(dp23
sS'_elements'
p24
(dp25
sS'_id'
p26
I10005
sbsg20
g21
sS'_translation'
p27
NsS'_offset'
p28
Nsg26
I10013
sS'_surfaces'
p29
(dp30
I10003
(g2
(copenmc.surface
ZCylinder
p31
g4
Ntp32
Rp33
(dp34
g8
S'z-cylinder'
p35
sS'_R'
p36
NsS'_coeffs'
p37
(dp38
S'y0'
p39
F0.0
sS'x0'
p40
F0.0
sS'R'
p41
F0.56134
ssg20
g21
sS'_bc_type'
p42
S'transmission'
p43
sg26
I10003
sS'_x0'
p44
NsS'_coeff_keys'
p45
(lp46
g40
ag39
ag41
asS'_y0'
p47
Nsbcnumpy.core.multiarray
scalar
p48
(cnumpy
dtype
p49
(S'i8'
p50
I0
I1
tp51
Rp52
(I3
S'<'
p53
NNNI-1
I-1
I0
tp54
bS'\x01\x00\x00\x00\x00\x00\x00\x00'
p55
tp56
Rp57
tp58
sI10004
(g2
(g31
g4
Ntp59
Rp60
(dp61
g8
g35
sg36
Nsg37
(dp62
g39
F0.0
sg40
F0.0
sg41
F0.60198
ssg20
g21
sg42
g43
sg26
I10004
sg44
Nsg45
(lp63
g40
ag39
ag41
asg47
Nsbg48
(g52
S'\xff\xff\xff\xff\xff\xff\xff\xff'
p64
tp65
Rp66
tp67
ssbsS'group bounds'
p68
cnumpy.core.multiarray
_reconstruct
p69
(cnumpy
ndarray
p70
(I0
tp71
S'b'
p72
tp73
Rp74
(I1
(I3
tp75
g49
(S'f8'
p76
I0
I1
tp77
Rp78
(I3
S'<'
p79
NNNI-1
I-1
I0
tp80
bI00
S'\x00\x00\x00\x00\x00\x00\x00\x00\xf1h\xe3\x88\xb5\xf8\xa4>\x00\x00\x00\x00\x00\x00$@'
p81
tp82
bsS'tallies'
p83
(dp84
S'flux'
p85
g2
(copenmc.tallies
Tally
p86
g4
Ntp87
Rp88
(dp89
S'_num_tot_score_bins'
p90
I1
sS'_label'
p91
S'2 groups'
p92
sS'_filters'
p93
(lp94
g2
(copenmc.tallies
Filter
p95
g4
Ntp96
Rp97
(dp98
S'_mesh'
p99
Nsg8
S'distribcell'
p100
sg28
I6
sS'_stride'
p101
I1
sS'_bin_edges'
p102
(lp103
I10013
asbag2
(g95
g4
Ntp104
Rp105
(dp106
g99
Nsg8
S'energy'
p107
sg28
I0
sg101
I24
sg102
(lp108
F0.0
aF6.25e-07
aF10.0
asbasS'_sum_sq'
p109
g69
(g70
(I0
tp110
g72
tp111
Rp112
(I1
(I48
I1
tp113
g78
I00
S'\xa9\x08\x00\xa8$\x01\x0e?B\x99\x805Q\x1fG?\x86\xfe\x8b\x8c\xbd\xa5\x10?\x86\xe21$i\x9bG?88\xecR\x91\xa2\x07?\xaf<`\xe2\xd5bE?\n\xd7K\x15\xc9\xb4\r?]\x0b\x07\xb1\xe4\x92G?{\x9e&\x07\xf1\xa4\t?U\xb4\x96{bBG?C\x9b\xa6=z\xa1\r?\x04\xf0c\xbdoXE?\xd0\xda \xc5\xa6\xa2\x0e?\xb6\xb3\x04\x05\x9e&F?\xbe=U&\x8f\xe6\t?\xb9J\xa2\x7f\xce\x87E?Ve\x0f4T\xe0\n?I\xf8\xcb\\\x9a\xdfB?\x0c{i\x908\xb6\x08?d\x0bs\'\xd7\xaaE?\xff\x96\xd0\x0e\x08u\r?A\x88\xf6c^\xdbE?\xc6\xf0\xee\x02X\xe4\x0e?\xcd\xb6\\\xa6XTF?\x1c\x03\xbf\xb7v%\r?\x1aF%\xc7\xd7`E?\xa4Q\xdf\x80\x87\xc5\x06?\x8c)J\xd5\xc8\xc9D?&\xdaL\x98\x00!\n?\xea\xeaF\x8e\x85tE?\x01\xae\xea\xb1\x9a?\x0b?\xa7\xbb\x0f\xbf\x1c@G?$\xaa\xf7(7}\x0b?X\xd8\x0c:\x8a\x08E?\x8c\xa0\xe2\x11h\xa8\n?\xa5_=\xad\xa21E?K\xed\xba\x07\x1e\x07\x07?\x1d\xbd\xe7=$\xabF?\x17\x96v\x04\x16\xbb\x07?]|\x1a\x05\xe9\x01G?w=k\x17\xc6\xd8\x0c?\xd2"\x19\\\x11\xe3D?\xfb,$7\xe3\xd9\t?&\xac\xd9\xa9\xf4KF?*Q\xa7\xc8e\xad\x08?\xab\x80B\xcdX\xe2F?u5\x0e6\xa7\xeb\r?\x92\x15\xe9k\xd9\x84D?'
p114
tp115
bsS'_std_dev'
p116
g69
(g70
(I0
tp117
g72
tp118
Rp119
(I1
(I48
I1
tp120
g78
I00
S'\x15\x06\x1a8\xb2\x06B?\xe7\x1eU\x07\xa0\xc9F?\xc5\xc6\xa5KAw+?B\xa5y\xfc,9R?\x9c=-\xa8?a<?\x8b\xc1I\xfeg;D?Ze\x8a\xe7\x97\xbb@?FX\x84\\\xe2ML?X\xa7`\xfe\x84\x04@?\xf5#\xdcx\xbd\\O?3\xc1\xe0\xcfN\t=?\xe1\xb9W\xbc\xc9\xa0D?3|\x97\x7f\xaam;?\xf8\xb3:\x16\xcf^>?\xeb\xccl\x08\xe8\xc3\x19?\xd7 ;\xf5\xb0\xe1;?\xc1\xdbPm\x95\x062?+\x1d\x13Q\x8a{H?i\x89\x81\x08q\xa1.?r\xc0P\xab\xc4R;?\x04\x0b\xf3\xa8H\xfe6?\xe7}\xe6\xd1\x14 E?\xbf\xdc\r\x87sA7?}\xcd\x10\xbc\xe3\x9eI?\x96\xb4\xd0\xfc\xe2\xf95?m\xb0\x1au\xae\x80C?\x1f\x86y\x1f\x1bV7?y6V\x82u,??^{^\xc3\x91R*?\x03\xba\xe0]>e:?\x83V1<\x9e\x91(?\xe4\xcf\xd2D\x91\xe5??\x10ng\x8c\x05DB?Q\n%\x18\xbe\xefL?ZIJp\xe1\x89#?i\xea\x88H-\x1b??\x83\xa8\x96\xe3\xbd\x85E?\xdb\x06\xefW\x9dmK?@\xe3\xa6&5U@?\x19\xd7\x15\x05\xa2$N?w1\xc1|:\x0f4?7.\xbcc\x99\xe6\x1c?cn1\xaa\xb2\xdc7?\xd2\x1f\xccm3\xc29?\x9c\xd8\xc8\x13\x10P??v.\x99\x93;B??\x96\x1a\xa6<\xe9\xaa;?\x8eQ\xfc\xc44\x97F?'
p121
tp122
bsS'_num_tot_filter_bins'
p123
I48
sS'_mean'
p124
g69
(g70
(I0
tp125
g72
tp126
Rp127
(I1
(I48
I1
tp128
g78
I00
S"\xb3\xd4\x0bj+\x86k?\x86\xfa\x13\x84\xd9N\x88?0r\xd0\x9c6+m?)]ipM\x87\x88? \x89\x8c`\xfdvh?\x15T`\xf3pa\x87?\xba*\x82\x92aik?\x7fsz6o\x88\x88?\xe1H<w\x91ui?po\x8dIX\\\x88?h\xbe~\x8c\xd8jk?\xf5G~\xd2\x90[\x87?\x1b\xeb6AG\xe5k?f\x18'F\xa1\xcd\x87?pv#}K\xbei?\xd7\x8exK\x06x\x87?\xc33\xab\x10\x1c.j?\x91\xc4\x89q\x08\xf4\x85?\xaa\x93\x02\xb18\x1di?\t\x9fV\xd1/\x8b\x87?\x02\xf0r\xdc\xfdak?\x8eL)\xca\xa9\xa2\x87?\x80\xe7\x7f[0\x0bl?\xea\xeaF\xe2\x8b\xe1\x87?\x92\xa1\x19\xffp>k?\xf6\x10\x91\x01\xac`\x87?\xc8\x08\xe0\xcc\x84\rh?\xb5\xf7%\xe5\xed\x0e\x87?\xe8\x06\t/\x00\xd6i?}e\xb9y\xb8m\x87?\xca \xea\xd6`cj?\x95\xf4\x92\xfe\xe9b\x88?\x86\xfd\x04h\xb1Rj?\x8d\xca\x0c\xda\x02+\x87?P@\x9a\x12\xd7\x1bj?\x96.\x08\xb4OH\x87?\xe5\xb6\xd2\xd6\xef\xf7g?\xee\xd4D\xb1\xdb\x0e\x88?\x0e[v\x1e\xb8xh?\xb0qR\x97-;\x88?R\x84\x0f\xa3f\x1dk?\xf9\x87&!\x87\x1f\x87?\xd8\xdb\x8d\x99\xa7\xa2i?\x02\xb2\xa6\xe2`\xe2\x87?\x82\x18@\x7f\xcd\xf9h?J\x8b\xb2S\x9c1\x88?Z\xdaj)P\x90k?\xfeyx(\x82\xe5\x86?"
p129
tp130
bsS'_num_realizations'
p131
I5
sg22
(lp132
sS'_sum'
p133
g69
(g70
(I0
tp134
g72
tp135
Rp136
(I1
(I48
I1
tp137
g78
I00
S'\xf0dG"\xdb3\x91?(\xf9\x18\xe5\x8fb\xae?^G\x02"\x02;\x92?s\xb4\x83\xcc \xa9\xae?h\xab\xaf\xb8\xbc\x94\x8e?\x1ai80\xcd9\xad?\xb4Z\x91\xfb\xdc!\x91?_\x10\x19\x04\x8b\xaa\xae?\x19[\x0b\xd5\xf5\xd2\x8f?L\xcb\xf0[ns\xae?\x017\xcfW\xc7"\x91?\xf2\xd9\x1d\x07u2\xad?\xf1R\xc2\x88Lo\x91?\x80\xde\xb0\x97\t\xc1\xad?\x06*6.\xef\x16\x90?\x8d\xb2V\xde\x07V\xad?Z\x00k\x8a\xd1\\\x90?\xb55\xec\x8d\nq\xab?\x948C\xdd\x86d\x8f?\xcbF\xac\xc5\xfbm\xad?\x01\xd6\xc7\xa9>\x1d\x91?\xb2\x9f\xb3<T\x8b\xad?\xb0\xf0/9\xfe\x86\x91?\xa4\xa5\xd8\xda\xee\xd9\xad?\xfb\x04p\x9f\x06\x07\x91?3U\xf5\x01\xd78\xad?\xfa\n\x18\x00\xe6\x10\x8e?\xa2uo^\xa9\xd2\xac?Q\xa4e\x1d\xc0%\x90?\xdc\xbe\'\x98&I\xad?~TR\x86\x1c~\x90?\xba\xb17~\xa4{\xae?t\x1e\x03\xe1\xaes\x90?0\xfd\x8f\x90\xc3\xf5\xac?2h\xa0kfQ\x90?;:\n\xa1c\x1a\xad?\x9ed\x87\xcc\xeb\xf5\x8d?)\n\x96\x9d\x92\x12\xae?\xd1\xf1\x13&\xe6\x96\x8e?\x1c\x0e\'\xfd\xf8I\xae?\xb3\xb2\xe9%`\xf2\x90?\xf7)p\xe9h\xe7\xac?g\xa9\xf8\xbf\xa8\x05\x90?\x82^P\x1b\xf9\xda\xad?\xa3\x1e\x10\xdf@8\x8f?\x1d.\x9fh\x03>\xae?x\xc8\xe2\x192:\x91?}\x98\x96\xb2\xe2\x9e\xac?'
p138
tp139
bsS'_estimator'
p140
S'tracklength'
p141
sS'_scores'
p142
(lp143
g85
asg26
I10114
sbsS'scatter'
p144
g2
(g86
g4
Ntp145
Rp146
(dp147
g90
I1
sg91
S'2 groups'
p148
sg93
(lp149
g2
(g95
g4
Ntp150
Rp151
(dp152
g99
Nsg8
g100
sg28
I6
sg101
I1
sg102
(lp153
I10013
asbag2
(g95
g4
Ntp154
Rp155
(dp156
g99
Nsg8
g107
sg28
I0
sg101
I24
sg102
(lp157
F0.0
aF6.25e-07
aF10.0
asbasg109
g69
(g70
(I0
tp158
g72
tp159
Rp160
(I1
(I48
I1
tp161
g78
I00
S'=\xfd\x06\xa25\xdf\xd4>\x84ZG0\x80>\x12?\x0fBiY\xf5*\xd7>G\x18\x19h\x83\xec\x12?u\xe3\x85\x02&m\xd0>F8\xbb\xc7!\xb9\x10?\xe7\xc7|\x94\x01\xa8\xd4>\x87p\x11\xf2\x01\xe6\x12?\x8f\x90X\xf7\xc0\xd3\xd1>\xf4\xa3\xcdl\xbd\x89\x12?\xb2J|\x12_\x97\xd4>\xb0\xa1\xff/\xff\xe3\x10?X\xdfs\x08\x1bP\xd5>O9\x86w\xdc\r\x11?2(\xb7\xc5\x13\x07\xd2>\xa1h%z7\xd5\x10?\xb6\xe9\xb1\xbc!\xb0\xd2>\x1aJ\xfb\x94gk\x0c?P\x9dk\xac\xef,\xd1>\xe6\xb3P\xcc9\x94\x10?7EK\xcf\xdex\xd4>B\xf27\x9f\xa1U\x11?gw\x99\x84\xbfz\xd5>o7\xad\x8dk\\\x11?\xd0\xc5\xae\x15\x0fD\xd4>\x93\xa7\x8a\xb3\x18\xdd\x10?W\xc7\xcc-$\xa4\xcf>\x8d\xe4J(\xb0(\x10?\x0e\xd2>\xd3+)\xd2>\xd1\xe0\x1e\x8e\x1c}\x10?\xf0=/\xaew\xf0\xd2>\xe7eb\xdbE\xc7\x11?\x88c\xd4\x1fd\x19\xd3>\xcd1\xf1\x95\xc8\xd1\x10?,\xecf\x1f6\x89\xd2>9/\xc7|\xda\x11\x11?\x0b\xaed\r\xb0\x00\xd0>\x908\x1d\x04\x1e\x18\x11?@ly(\xb9}\xd0>\xabm\x11#\xf0(\x12?\xabg\xb7{\xd2\x0e\xd4>\xddj\xd9T\xc1\r\x11?Hx\xa2\xfd\xe6\xf7\xd1>\x82\xee\x8e\xb8\x16-\x12?\xa4_\xf9\x01^&\xd1>\x11\x9ez\xa1\x91=\x12?\xf2\xd0\x01C\x07\xce\xd4>l\xa5h\xcc7j\x10?'
p162
tp163
bsg116
g69
(g70
(I0
tp164
g72
tp165
Rp166
(I1
(I48
I1
tp167
g78
I00
S't\xa0n\x11<?%?\xdd\xdd\x11WU\xe5-?\xf6\xe5\x88\xb8\xa69\x10?5\xb8.A\x16\xbd:?,%\x8c5\xeb\xcb ?\n\xdf\xd5\xeak\x1b1?\x80\xf3N\x7f\x8e\xa5#?\x10\xc3\xf0\xe5\xd4\xdb7?\\\x96\x9b\x17\xa2\xdf"?x` \xdf\x1c\x013?\x92L\xeb\x19\x15 !?\x1f\xbb\xdbxu 3?\xbd\x85\x8ey\x91< ?\x19\xbb\xe1\x0f\x0c\x1c+?\x94\xaf\xd6\xaa\xa7i\xff>\xe9f_F\xb4[!?\xa65\x89\x83\x9au\x15?R\xcbQ\x8bB\x862?\\p\xb4BB\xfe\x11?\x1e\xff\x83:\x01p#?T\xe9y\xb3\xfb \x1b?sL\xd5\x17!F/?zMS\xff\x0e_\x1b?\xa8n\x0f\\h\xff1?\xaa\x04T%P\xf5\x19?\x0c\\nB\xc0\xc2!?F\x92;\xe3\xf5\x8d\x1b?\x99\xca\x08\x0ff\xdd#?;&\x02\xe8\x07>\x0f?^\xb4\xfa\xc6\x8eg ?:Q\xf5\x82&\xf5\x0c?\t"@um\x08!?\xee\xe1\xc2\xea\xc8\x86%?\\\xd6F\xf8\xe6>-?r\xa2\xfa\xc7\xab\x1b\x07?)\xf0\x1eT\xf1\xf6,?\x19\x9d\x84\x85LR)?\x8d\x1cQh\xa1\xa91?\xd4\xe9\xfb\r\xcfO#?\x9a\x86\x8e\xcb\xe2\xbd\'?\xea\xc8$\xe0/\xbd\x17?\xe0\xb8\xccY\xcb\xf1\'?\x00\x1fw\xd4\x86 \x1c?\x94\x98\x0c4N\xe9)?\xa9\x8a\x85\xcb\xe4u"?\xcd\xc5\x99\xeeC\xd9*?\xcb)\xb2\x16UX ?\xaa\xe6\x1a"\x15\xcc2?'
p168
tp169
bsg123
I48
sg124
g69
(g70
(I0
tp170
g72
tp171
Rp172
(I1
(I48
I1
tp173
g78
I00
S'W\xceh\xcc\x91;P?\x83\x97\xc1\xee\x8c\x88n?*\xf8s<\x7f4Q?\xe8\xfdc\xdd\xb0\x08o?k\xf1J\n\xa3\xd7L?\x10\xda\xe6\xa1\x848m?\xcdvl\x86\xf3)P?\x9bQwu2\x08o?\x98\x9f\xc5\x8e\x1c\x05N?;\xebh@\xbc\xc2n?\x11~\'MQ)P?\xd5\xe4\xf0$d[m?\xdb_~^\xb5sP?Nk\xae\xa06\x86m?scp\xedx_N?b\x91\xd9\x94\xc5Xm?v\xd2\xf2qH\xdfN?\xa0\xaf\xa5\x8e\xdc\xebj?\x90\xcf6B4\x9cM?\xd2\x975g.\x1fm?\xf3\x07\xb1\xe3@$P?\xba\x8fK\x0c\x12\xc2m?t\xdc\xc5\xc2\x0e\x89P?s\xa4\xd0\x17$\xc5m?\xaa\xf7\x98\xc5C\x10P?\xc5\xd56~\x84_m?\xb3=|\x896ZL?`\xffU\xcf\xe3\xbfl?\r\x00\xd9\x14\xf2uN?\xb6\xc4&>\xce\x0bm?\x86H^J\xd3\x1cO?\x96\x8447")n?Fj\x91\x86\xa2\x07O?x\xf1\xb7\xfd\xdfPm?\xe6\xc7\xe4$\xf9\xc9N?\x80\x88^\xaf\xc2\x88m?\x80a\xc3\xc7-BL?\xca\r\xda\xee\x98\x8am?\xa02h\xe1F\xd9L?\x9dp\xc4\xfdByn?V\x0b\xea8\x94\xf9O?\x1e[\xc8\x95\x8a\x87m?\xaa\xd2\xccl\xaa9N?&\x7f\xa3\xba\xd4{n?\n\xf1:3\xfaqM?\xa0*\x9d\t=\x89n?\x1c\xd4\xc2\xde\x92@P?\xcb\xe1\xfb`\xe2\xf0l?'
p174
tp175
bsg131
I5
sg22
(lp176
sg133
g69
(g70
(I0
tp177
g72
tp178
Rp179
(I1
(I48
I1
tp180
g78
I00
S"\xed\x01\x83?vJt?\xb2\xfe8\x15X\x15\x93?4\xf6\x90\x0b\x9f\x81u?\xb1~^\x8ane\x93?\xe3\xd6n\xe6\xc5\x06r?JH0\xe5RC\x92?\x80\x94\x07hp4t?\x01\x93j\x89\x1fe\x93?\xbf\x83;\xd91\xc3r?\x05\x93A\xa8\xb59\x93?\x95]q\xa0\xa53t?\x05\x8f\x16\x97\x1eY\x92?\xd2\xf7\x1d\xb6\xa2\x90t?\x11\x03m$\xe2s\x92?(>f\x94\xab\xfbr?\xdd\xfa\x07}{W\x92?\x8a\xc37G\x8dKs?\xc4\x8d'\xd9i\xd3\x90?\xbaAb\xa9\xa0\x81r?\xe3~\x81\x00}3\x92?\xf0I\x9d\x1cQ-t?\xd49\xafGK\x99\x92?\x91SwsR\xabt?\xc8f\xe2\x8e6\x9b\x92?\x945\xff\xb6T\x14t?\x9bE\xe2\xce\xb2[\x92?\x90\xa6\xed\x15b\xb8q?\x9c\xbf\x95a\xee\xf7\x91?\x08\xa0\x07M\xb7\ts?\xf2:\xd8\xe6`'\x92?T\xedz\x0e\x04rs?\xde\xd2\x80b\xb5\xd9\x92?l\xe2\x1a\x94\xc5ds?\xeb\xf6\x92\xfe\x8bR\x92?\xf0\xfc\x0e\xb7;>s?P\x15\x9b\xadyu\x92?\xf0\x1c\xda\x9c\\\xa9q?\x9eHH\x95\x9fv\x92?\xa4\x1f\xe1L\xcc\x07r?b\xc6\x9a\xde\xc9\x0b\x93?\x16G\x92\xa3\xfc\xfbs?\xf38\x9d\x9d\xb6t\x92?\xaa\x03\x00\x84\n\xe4r?x/\xa6\xf4d\r\x93?\xa6\xd6\x04`<gr?\xa4:\x02&\xc6\x15\x93?#\x89s\x96\xb7Pt?\x1fm\x9d|\x8d\x16\x92?"
p181
tp182
bsg140
g141
sg142
(lp183
g144
asg26
I10122
sbssS'subdomain offsets'
p184
(dp185
I388
g48
(g52
S'\t\x00\x00\x00\x00\x00\x00\x00'
p186
tp187
Rp188
sI775
g48
(g52
S'\x11\x00\x00\x00\x00\x00\x00\x00'
p189
tp190
Rp191
sI786
g48
(g52
S'\x12\x00\x00\x00\x00\x00\x00\x00'
p192
tp193
Rp194
sI916
g48
(g52
S'\x14\x00\x00\x00\x00\x00\x00\x00'
p195
tp196
Rp197
sI157
g48
(g52
S'\x00\x00\x00\x00\x00\x00\x00\x00'
p198
tp199
Rp200
sI543
g48
(g52
S'\n\x00\x00\x00\x00\x00\x00\x00'
p201
tp202
Rp203
sI168
g48
(g52
S'\x01\x00\x00\x00\x00\x00\x00\x00'
p204
tp205
Rp206
sI554
g48
(g52
S'\x0b\x00\x00\x00\x00\x00\x00\x00'
p207
tp208
Rp209
sI179
g48
(g52
S'\x02\x00\x00\x00\x00\x00\x00\x00'
p210
tp211
Rp212
sI951
g48
(g52
S'\x15\x00\x00\x00\x00\x00\x00\x00'
p213
tp214
Rp215
sI576
g48
(g52
S'\x0c\x00\x00\x00\x00\x00\x00\x00'
p216
tp217
Rp218
sI962
g48
(g52
S'\x16\x00\x00\x00\x00\x00\x00\x00'
p219
tp220
Rp221
sI587
g48
(g52
S'\r\x00\x00\x00\x00\x00\x00\x00'
p222
tp223
Rp224
sI973
g48
(g52
S'\x17\x00\x00\x00\x00\x00\x00\x00'
p225
tp226
Rp227
sI214
g48
(g52
S'\x03\x00\x00\x00\x00\x00\x00\x00'
p228
tp229
Rp230
sI344
g48
(g52
S'\x05\x00\x00\x00\x00\x00\x00\x00'
p231
tp232
Rp233
sI355
g48
(g52
S'\x06\x00\x00\x00\x00\x00\x00\x00'
p234
tp235
Rp236
sI742
g48
(g52
S'\x0e\x00\x00\x00\x00\x00\x00\x00'
p237
tp238
Rp239
sI877
g48
(g52
S'\x13\x00\x00\x00\x00\x00\x00\x00'
p240
tp241
Rp242
sI366
g48
(g52
S'\x07\x00\x00\x00\x00\x00\x00\x00'
p243
tp244
Rp245
sI753
g48
(g52
S'\x0f\x00\x00\x00\x00\x00\x00\x00'
p246
tp247
Rp248
sI377
g48
(g52
S'\x08\x00\x00\x00\x00\x00\x00\x00'
p249
tp250
Rp251
sI764
g48
(g52
S'\x10\x00\x00\x00\x00\x00\x00\x00'
p252
tp253
Rp254
sI253
g48
(g52
S'\x04\x00\x00\x00\x00\x00\x00\x00'
p255
tp256
Rp257
ssS'offset'
p258
I6
sS'domain type'
p259
g100
sS'xs'
p260
g69
(g70
(I0
tp261
g72
tp262
Rp263
(I1
(I24
I2
tp264
g49
(S'O8'
p265
I0
I1
tp266
Rp267
(I3
S'|'
p268
NNNI-1
I-1
I63
tp269
bI00
(lp270
g2
(cuncertainties
AffineScalarFunc
p271
g4
Ntp272
Rp273
(dp274
S'_nominal_value'
p275
F0.31402616689436186
sS'derivatives'
p276
(dp277
g2
(cuncertainties
Variable
p278
g4
Ntp279
Rp280
(dp281
g275
F0.0037272217360166406
sS'_std_dev'
p282
g2
(cuncertainties
CallableStdDev
p283
c__builtin__
float
p284
F0.0002280871081301446
tp285
Rp286
sS'tag'
p287
Nsg276
(dp288
g280
F1.0
ssbF84.25207544265079
sg2
(g278
g4
Ntp289
Rp290
(dp291
g275
F0.011869143813325832
sg282
g2
(g283
g284
F0.0006954223050934211
tp292
Rp293
sg287
Nsg276
(dp294
g290
F1.0
ssbF-26.457356304150228
ssbag2
(g271
g4
Ntp295
Rp296
(dp297
g275
F0.2948814582197656
sg276
(dp298
g2
(g278
g4
Ntp299
Rp300
(dp301
g275
F0.0009907649815773711
sg282
g2
(g283
g284
F0.000162101824313202
tp302
Rp303
sg287
Nsg276
(dp304
g300
F1.0
ssbF297.6300774683139
sg2
(g278
g4
Ntp305
Rp306
(dp307
g275
F0.003359875482028396
sg282
g2
(g283
g284
F0.000550114651744762
tp308
Rp309
sg287
Nsg276
(dp310
g306
F1.0
ssbF-87.76559125391819
ssbag2
(g271
g4
Ntp311
Rp312
(dp313
g275
F0.31630467247605176
sg276
(dp314
g2
(g278
g4
Ntp315
Rp316
(dp317
g275
F0.003788323821140461
sg282
g2
(g283
g284
F0.00040799897504484604
tp318
Rp319
sg287
Nsg276
(dp320
g316
F1.0
ssbF83.4946238520944
sg2
(g278
g4
Ntp321
Rp322
(dp323
g275
F0.011976819031743151
sg282
g2
(g283
g284
F0.0011122645682014186
tp324
Rp325
sg287
Nsg276
(dp326
g322
F1.0
ssbF-26.409739651047865
ssbag2
(g271
g4
Ntp327
Rp328
(dp329
g275
F0.29492240420667015
sg276
(dp330
g2
(g278
g4
Ntp331
Rp332
(dp333
g275
F0.00105011392025701
sg282
g2
(g283
g284
F6.189422686810734e-05
tp334
Rp335
sg287
Nsg276
(dp336
g332
F1.0
ssbF280.8480094564306
sg2
(g278
g4
Ntp337
Rp338
(dp339
g275
F0.0035606447841145736
sg282
g2
(g283
g284
F0.00020954773010433393
tp340
Rp341
sg287
Nsg276
(dp342
g338
F1.0
ssbF-82.82837016554814
ssbag2
(g271
g4
Ntp343
Rp344
(dp345
g275
F0.3124463940266256
sg276
(dp346
g2
(g278
g4
Ntp347
Rp348
(dp349
g275
F0.0035669889905094523
sg282
g2
(g283
g284
F0.00026103386593189003
tp350
Rp351
sg287
Nsg276
(dp352
g348
F1.0
ssbF87.59387675654156
sg2
(g278
g4
Ntp353
Rp354
(dp355
g275
F0.011416323115591745
sg282
g2
(g283
g284
F0.0006174333362434654
tp356
Rp357
sg287
Nsg276
(dp358
g354
F1.0
ssbF-27.368390931394067
ssbag2
(g271
g4
Ntp359
Rp360
(dp361
g275
F0.2947329137228204
sg276
(dp362
g2
(g278
g4
Ntp363
Rp364
(dp365
g275
F0.0008801981062656455
sg282
g2
(g283
g284
F0.00012814756589588896
tp366
Rp367
sg287
Nsg276
(dp368
g364
F1.0
ssbF334.84838427256216
sg2
(g278
g4
Ntp369
Rp370
(dp371
g275
F0.0029864262363769184
sg282
g2
(g283
g284
F0.0004330425655796001
tp372
Rp373
sg287
Nsg276
(dp374
g370
F1.0
ssbF-98.69083995203087
ssbag2
(g271
g4
Ntp375
Rp376
(dp377
g275
F0.31622800937296797
sg276
(dp378
g2
(g278
g4
Ntp379
Rp380
(dp381
g275
F0.003788088371701371
sg282
g2
(g283
g284
F0.0003640551348694102
tp382
Rp383
sg287
Nsg276
(dp384
g380
F1.0
ssbF83.4795755387666
sg2
(g278
g4
Ntp385
Rp386
(dp387
g275
F0.011978978014036688
sg282
g2
(g283
g284
F0.0008637767105337333
tp388
Rp389
sg287
Nsg276
(dp390
g386
F1.0
ssbF-26.39857999592447
ssbag2
(g271
g4
Ntp391
Rp392
(dp393
g275
F0.2948358644259238
sg276
(dp394
g2
(g278
g4
Ntp395
Rp396
(dp397
g275
F0.0009865644621593229
sg282
g2
(g283
g284
F0.00014989246815657817
tp398
Rp399
sg287
Nsg276
(dp400
g396
F1.0
ssbF298.8510895482773
sg2
(g278
g4
Ntp401
Rp402
(dp403
g275
F0.003346148081680181
sg282
g2
(g283
g284
F0.0005106441231702938
tp404
Rp405
sg287
Nsg276
(dp406
g402
F1.0
ssbF-88.1120193215955
ssbag2
(g271
g4
Ntp407
Rp408
(dp409
g275
F0.31567911649521935
sg276
(dp410
g2
(g278
g4
Ntp411
Rp412
(dp413
g275
F0.0037549664296227226
sg282
g2
(g283
g284
F0.0002899833190226418
tp414
Rp415
sg287
Nsg276
(dp416
g412
F1.0
ssbF84.06975732321979
sg2
(g278
g4
Ntp417
Rp418
(dp419
g275
F0.011894883865970235
sg282
g2
(g283
g284
F0.0009571004063398935
tp420
Rp421
sg287
Nsg276
(dp422
g418
F1.0
ssbF-26.539066715761514
ssbag2
(g271
g4
Ntp423
Rp424
(dp425
g275
F0.2947844689716953
sg276
(dp426
g2
(g278
g4
Ntp427
Rp428
(dp429
g275
F0.0009161366884144926
sg282
g2
(g283
g284
F0.00014399388947265973
tp430
Rp431
sg287
Nsg276
(dp432
g428
F1.0
ssbF321.76909046385055
sg2
(g278
g4
Ntp433
Rp434
(dp435
g275
F0.003107818711108754
sg282
g2
(g283
g284
F0.000488820017158202
tp436
Rp437
sg287
Nsg276
(dp438
g434
F1.0
ssbF-94.85253046389157
ssbag2
(g271
g4
Ntp439
Rp440
(dp441
g275
F0.3142114139557293
sg276
(dp442
g2
(g278
g4
Ntp443
Rp444
(dp445
g275
F0.0035836177771924973
sg282
g2
(g283
g284
F0.00029185169192562534
tp446
Rp447
sg287
Nsg276
(dp448
g444
F1.0
ssbF87.67994621398798
sg2
(g278
g4
Ntp449
Rp450
(dp451
g275
F0.011405116485352787
sg282
g2
(g283
g284
F0.0006295189893402131
tp452
Rp453
sg287
Nsg276
(dp454
g450
F1.0
ssbF-27.550039875459454
ssbag2
(g271
g4
Ntp455
Rp456
(dp457
g275
F0.29472919381191875
sg276
(dp458
g2
(g278
g4
Ntp459
Rp460
(dp461
g275
F0.0009864133795572975
sg282
g2
(g283
g284
F0.00013065583785607356
tp462
Rp463
sg287
Nsg276
(dp464
g460
F1.0
ssbF298.7887227809028
sg2
(g278
g4
Ntp465
Rp466
(dp467
g275
F0.003346846529858106
sg282
g2
(g283
g284
F0.0004430596744695758
tp468
Rp469
sg287
Nsg276
(dp470
g466
F1.0
ssbF-88.06175938530836
ssbag2
(g271
g4
Ntp471
Rp472
(dp473
g275
F0.3100866568124461
sg276
(dp474
g2
(g278
g4
Ntp475
Rp476
(dp477
g275
F0.003604036993647786
sg282
g2
(g283
g284
F0.0002068295215766562
tp478
Rp479
sg287
Nsg276
(dp480
g476
F1.0
ssbF86.03869975779449
sg2
(g278
g4
Ntp481
Rp482
(dp483
g275
F0.011622676804915421
sg282
g2
(g283
g284
F0.00046341472464456147
tp484
Rp485
sg287
Nsg276
(dp486
g482
F1.0
ssbF-26.679452764384312
ssbag2
(g271
g4
Ntp487
Rp488
(dp489
g275
F0.29488477225423815
sg276
(dp490
g2
(g278
g4
Ntp491
Rp492
(dp493
g275
F0.0010041495497485817
sg282
g2
(g283
g284
F0.00012387538734252675
tp494
Rp495
sg287
Nsg276
(dp496
g492
F1.0
ssbF293.6661897902272
sg2
(g278
g4
Ntp497
Rp498
(dp499
g275
F0.00340522686903223
sg282
g2
(g283
g284
F0.00041852390822144924
tp500
Rp501
sg287
Nsg276
(dp502
g498
F1.0
ssbF-86.59768749506102
ssbag2
(g271
g4
Ntp503
Rp504
(dp505
g275
F0.3126140585440958
sg276
(dp506
g2
(g278
g4
Ntp507
Rp508
(dp509
g275
F0.003582368756541652
sg282
g2
(g283
g284
F0.00013243270512824167
tp510
Rp511
sg287
Nsg276
(dp512
g508
F1.0
ssbF87.2646228764811
sg2
(g278
g4
Ntp513
Rp514
(dp515
g275
F0.01145939748591422
sg282
g2
(g283
g284
F0.00042543955099151376
tp516
Rp517
sg287
Nsg276
(dp518
g514
F1.0
ssbF-27.2801479247367
ssbag2
(g271
g4
Ntp519
Rp520
(dp521
g275
F0.2949591982119696
sg276
(dp522
g2
(g278
g4
Ntp523
Rp524
(dp525
g275
F0.0009269085375108579
sg282
g2
(g283
g284
F2.995749917082643e-05
tp526
Rp527
sg287
Nsg276
(dp528
g524
F1.0
ssbF318.218234351428
sg2
(g278
g4
Ntp529
Rp530
(dp531
g275
F0.003142497481447397
sg282
g2
(g283
g284
F9.828666416638084e-05
tp532
Rp533
sg287
Nsg276
(dp534
g530
F1.0
ssbF-93.86139526072584
ssbag2
(g271
g4
Ntp535
Rp536
(dp537
g275
F0.30657567193731206
sg276
(dp538
g2
(g278
g4
Ntp539
Rp540
(dp541
g275
F0.0032862956770056267
sg282
g2
(g283
g284
F0.0002826607190577385
tp542
Rp543
sg287
Nsg276
(dp544
g540
F1.0
ssbF93.28913222338366
sg2
(g278
g4
Ntp545
Rp546
(dp547
g275
F0.010719362225446257
sg282
g2
(g283
g284
F0.0007471490263463489
tp548
Rp549
sg287
Nsg276
(dp550
g546
F1.0
ssbF-28.600178395832597
ssbag2
(g271
g4
Ntp551
Rp552
(dp553
g275
F0.2948057934665863
sg276
(dp554
g2
(g278
g4
Ntp555
Rp556
(dp557
g275
F0.0009421447502036679
sg282
g2
(g283
g284
F8.18610723254039e-05
tp558
Rp559
sg287
Nsg276
(dp560
g556
F1.0
ssbF312.90923544694886
sg2
(g278
g4
Ntp561
Rp562
(dp563
g275
F0.003195814909622703
sg282
g2
(g283
g284
F0.00027505062218174606
tp564
Rp565
sg287
Nsg276
(dp566
g562
F1.0
ssbF-92.24745543896064
ssbag2
(g271
g4
Ntp567
Rp568
(dp569
g275
F0.3092313845819764
sg276
(dp570
g2
(g278
g4
Ntp571
Rp572
(dp573
g275
F0.003554907447028002
sg282
g2
(g283
g284
F0.00014829649922631303
tp574
Rp575
sg287
Nsg276
(dp576
g572
F1.0
ssbF86.98718298292187
sg2
(g278
g4
Ntp577
Rp578
(dp579
g275
F0.011495946479797252
sg282
g2
(g283
g284
F0.00041692067617572
tp580
Rp581
sg287
Nsg276
(dp582
g578
F1.0
ssbF-26.899167034694663
ssbag2
(g271
g4
Ntp583
Rp584
(dp585
g275
F0.2947559122503111
sg276
(dp586
g2
(g278
g4
Ntp587
Rp588
(dp589
g275
F0.0009036307496246166
sg282
g2
(g283
g284
F6.863860533140711e-05
tp590
Rp591
sg287
Nsg276
(dp592
g588
F1.0
ssbF326.19066180821943
sg2
(g278
g4
Ntp593
Rp594
(dp595
g275
F0.0030656916861339827
sg282
g2
(g283
g284
F0.0002336931686413677
tp596
Rp597
sg287
Nsg276
(dp598
g594
F1.0
ssbF-96.14662608881446
ssbag2
(g271
g4
Ntp599
Rp600
(dp601
g275
F0.3147617953890041
sg276
(dp602
g2
(g278
g4
Ntp603
Rp604
(dp605
g275
F0.003632579088263169
sg282
g2
(g283
g284
F0.0002386012455795925
tp606
Rp607
sg287
Nsg276
(dp608
g604
F1.0
ssbF86.6496744437022
sg2
(g278
g4
Ntp609
Rp610
(dp611
g275
F0.011540724260305415
sg282
g2
(g283
g284
F0.0006446935329228993
tp612
Rp613
sg287
Nsg276
(dp614
g610
F1.0
ssbF-27.274007097772408
ssbag2
(g271
g4
Ntp615
Rp616
(dp617
g275
F0.29474025673226817
sg276
(dp618
g2
(g278
g4
Ntp619
Rp620
(dp621
g275
F0.0009852060018293834
sg282
g2
(g283
g284
F0.00010348831426113442
tp622
Rp623
sg287
Nsg276
(dp624
g620
F1.0
ssbF299.1661197607187
sg2
(g278
g4
Ntp625
Rp626
(dp627
g275
F0.0033426244950458548
sg282
g2
(g283
g284
F0.0003508498566128645
tp628
Rp629
sg287
Nsg276
(dp630
g626
F1.0
ssbF-88.17629894387069
ssbag2
(g271
g4
Ntp631
Rp632
(dp633
g275
F0.3116497554362233
sg276
(dp634
g2
(g278
g4
Ntp635
Rp636
(dp637
g275
F0.003634043211168386
sg282
g2
(g283
g284
F0.00027462289659550354
tp638
Rp639
sg287
Nsg276
(dp640
g636
F1.0
ssbF85.75840663601366
sg2
(g278
g4
Ntp641
Rp642
(dp643
g275
F0.01166066440861387
sg282
g2
(g283
g284
F0.0007818805680756404
tp644
Rp645
sg287
Nsg276
(dp646
g642
F1.0
ssbF-26.72658645471385
ssbag2
(g271
g4
Ntp647
Rp648
(dp649
g275
F0.29481447839843994
sg276
(dp650
g2
(g278
g4
Ntp651
Rp652
(dp653
g275
F0.0010092395924326232
sg282
g2
(g283
g284
F0.00010441330944681816
tp654
Rp655
sg287
Nsg276
(dp656
g652
F1.0
ssbF292.11545069078505
sg2
(g278
g4
Ntp657
Rp658
(dp659
g275
F0.003423304031454799
sg282
g2
(g283
g284
F0.00035485334870295407
tp660
Rp661
sg287
Nsg276
(dp662
g658
F1.0
ssbF-86.11986422752899
ssbag2
(g271
g4
Ntp663
Rp664
(dp665
g275
F0.3141156974808909
sg276
(dp666
g2
(g278
g4
Ntp667
Rp668
(dp669
g275
F0.0035855853800181602
sg282
g2
(g283
g284
F0.00013550373952561678
tp670
Rp671
sg287
Nsg276
(dp672
g668
F1.0
ssbF87.60513673203899
sg2
(g278
g4
Ntp673
Rp674
(dp675
g275
F0.011414855764208625
sg282
g2
(g283
g284
F0.0005951740115128897
tp676
Rp677
sg287
Nsg276
(dp678
g674
F1.0
ssbF-27.518148627493243
ssbag2
(g271
g4
Ntp679
Rp680
(dp681
g275
F0.2948096128716479
sg276
(dp682
g2
(g278
g4
Ntp683
Rp684
(dp685
g275
F0.0009804403147337473
sg282
g2
(g283
g284
F9.902288123343991e-05
tp686
Rp687
sg287
Nsg276
(dp688
g684
F1.0
ssbF300.69103487621044
sg2
(g278
g4
Ntp689
Rp690
(dp691
g275
F0.00332567281366298
sg282
g2
(g283
g284
F0.00033532897652117347
tp692
Rp693
sg287
Nsg276
(dp694
g690
F1.0
ssbF-88.64660758583078
ssbag2
(g271
g4
Ntp695
Rp696
(dp697
g275
F0.31170498307318534
sg276
(dp698
g2
(g278
g4
Ntp699
Rp700
(dp701
g275
F0.003509468976233096
sg282
g2
(g283
g284
F0.00015155669054108393
tp702
Rp703
sg287
Nsg276
(dp704
g700
F1.0
ssbF88.81827569473353
sg2
(g278
g4
Ntp705
Rp706
(dp707
g275
F0.011258944087554438
sg282
g2
(g283
g284
F0.00047567242503352526
tp708
Rp709
sg287
Nsg276
(dp710
g706
F1.0
ssbF-27.68509912201642
ssbag2
(g271
g4
Ntp711
Rp712
(dp713
g275
F0.2946890350113856
sg276
(dp714
g2
(g278
g4
Ntp715
Rp716
(dp717
g275
F0.0008652464193534187
sg282
g2
(g283
g284
F0.00010511220244386566
tp718
Rp719
sg287
Nsg276
(dp720
g716
F1.0
ssbF340.583940505181
sg2
(g278
g4
Ntp721
Rp722
(dp723
g275
F0.0029361337428791302
sg282
g2
(g283
g284
F0.00035608446294163766
tp724
Rp725
sg287
Nsg276
(dp726
g722
F1.0
ssbF-100.36635276784695
ssbag2
(g271
g4
Ntp727
Rp728
(dp729
g275
F0.3099429817856996
sg276
(dp730
g2
(g278
g4
Ntp731
Rp732
(dp733
g275
F0.0035456684283522123
sg282
g2
(g283
g284
F0.00012515657316694828
tp734
Rp735
sg287
Nsg276
(dp736
g732
F1.0
ssbF87.41454201055687
sg2
(g278
g4
Ntp737
Rp738
(dp739
g275
F0.011439744200447017
sg282
g2
(g283
g284
F0.00040276310562861755
tp740
Rp741
sg287
Nsg276
(dp742
g738
F1.0
ssbF-27.0935238021833
ssbag2
(g271
g4
Ntp743
Rp744
(dp745
g275
F0.2947514659977379
sg276
(dp746
g2
(g278
g4
Ntp747
Rp748
(dp749
g275
F0.0009295875585806371
sg282
g2
(g283
g284
F5.9589973717310824e-05
tp750
Rp751
sg287
Nsg276
(dp752
g748
F1.0
ssbF317.0776795332612
sg2
(g278
g4
Ntp753
Rp754
(dp755
g275
F0.0031538013065820387
sg282
g2
(g283
g284
F0.00020082501731352292
tp756
Rp757
sg287
Nsg276
(dp758
g754
F1.0
ssbF-93.45911087758965
ssbag2
(g271
g4
Ntp759
Rp760
(dp761
g275
F0.30919589812045745
sg276
(dp762
g2
(g278
g4
Ntp763
Rp764
(dp765
g275
F0.0036817234300917196
sg282
g2
(g283
g284
F0.00012995086819979376
tp766
Rp767
sg287
Nsg276
(dp768
g764
F1.0
ssbF83.98129408453549
sg2
(g278
g4
Ntp769
Rp770
(dp771
g275
F0.011907413560374539
sg282
g2
(g283
g284
F0.0004867057476289889
tp772
Rp773
sg287
Nsg276
(dp774
g770
F1.0
ssbF-25.966671649786214
ssbag2
(g271
g4
Ntp775
Rp776
(dp777
g275
F0.2947586731702246
sg276
(dp778
g2
(g278
g4
Ntp779
Rp780
(dp781
g275
F0.0009494811717891828
sg282
g2
(g283
g284
F5.523227479878536e-05
tp782
Rp783
sg287
Nsg276
(dp784
g780
F1.0
ssbF310.4418306840012
sg2
(g278
g4
Ntp785
Rp786
(dp787
g275
F0.0032212153813056853
sg282
g2
(g283
g284
F0.0001874452264895473
tp788
Rp789
sg287
Nsg276
(dp790
g786
F1.0
ssbF-91.5054221089517
ssbag2
(g271
g4
Ntp791
Rp792
(dp793
g275
F0.3163404514189803
sg276
(dp794
g2
(g278
g4
Ntp795
Rp796
(dp797
g275
F0.003578603251069786
sg282
g2
(g283
g284
F0.00022312707382148272
tp798
Rp799
sg287
Nsg276
(dp800
g796
F1.0
ssbF88.39774326042253
sg2
(g278
g4
Ntp801
Rp802
(dp803
g275
F0.011312505988461364
sg282
g2
(g283
g284
F0.000883071727266158
tp804
Rp805
sg287
Nsg276
(dp806
g802
F1.0
ssbF-27.96378200742119
ssbag2
(g271
g4
Ntp807
Rp808
(dp809
g275
F0.2947023582151905
sg276
(dp810
g2
(g278
g4
Ntp811
Rp812
(dp813
g275
F0.000946955068808216
sg282
g2
(g283
g284
F0.0001642341861776276
tp814
Rp815
sg287
Nsg276
(dp816
g812
F1.0
ssbF311.2104976491505
sg2
(g278
g4
Ntp817
Rp818
(dp819
g275
F0.0032132592170054956
sg282
g2
(g283
g284
F0.00055742522163932
tp820
Rp821
sg287
Nsg276
(dp822
g818
F1.0
ssbF-91.71446755852766
ssbag2
(g271
g4
Ntp823
Rp824
(dp825
g275
F0.31712942731037275
sg276
(dp826
g2
(g278
g4
Ntp827
Rp828
(dp829
g275
F0.0036052515451539535
sg282
g2
(g283
g284
F0.00022098251252866796
tp830
Rp831
sg287
Nsg276
(dp832
g828
F1.0
ssbF87.96319017923906
sg2
(g278
g4
Ntp833
Rp834
(dp835
g275
F0.011368391687049322
sg282
g2
(g283
g284
F0.00047464232969544065
tp836
Rp837
sg287
Nsg276
(dp838
g834
F1.0
ssbF-27.895716125935486
ssbag2
(g271
g4
Ntp839
Rp840
(dp841
g275
F0.29481454780211525
sg276
(dp842
g2
(g278
g4
Ntp843
Rp844
(dp845
g275
F0.0009396044277194509
sg282
g2
(g283
g284
F4.407518372079735e-05
tp846
Rp847
sg287
Nsg276
(dp848
g844
F1.0
ssbF313.7645365482905
sg2
(g278
g4
Ntp849
Rp850
(dp851
g275
F0.0031871033323298895
sg282
g2
(g283
g284
F0.000149067658771938
tp852
Rp853
sg287
Nsg276
(dp854
g850
F1.0
ssbF-92.50234995882451
ssbag2
(g271
g4
Ntp855
Rp856
(dp857
g275
F0.30698049790033743
sg276
(dp858
g2
(g278
g4
Ntp859
Rp860
(dp861
g275
F0.00360612745027009
sg282
g2
(g283
g284
F0.0002695101796387843
tp862
Rp863
sg287
Nsg276
(dp864
g860
F1.0
ssbF85.12746765989797
sg2
(g278
g4
Ntp865
Rp866
(dp867
g275
F0.011747089717213357
sg282
g2
(g283
g284
F0.000837041690708608
tp868
Rp869
sg287
Nsg276
(dp870
g866
F1.0
ssbF-26.132472407230352
ssbag2
(g271
g4
Ntp871
Rp872
(dp873
g275
F0.2947463028331993
sg276
(dp874
g2
(g278
g4
Ntp875
Rp876
(dp877
g275
F0.0008623813187354362
sg282
g2
(g283
g284
F0.00019318756199846672
tp878
Rp879
sg287
Nsg276
(dp880
g876
F1.0
ssbF341.7818735514868
sg2
(g278
g4
Ntp881
Rp882
(dp883
g275
F0.002925842700810632
sg282
g2
(g283
g284
F0.0006568124000996409
tp884
Rp885
sg287
Nsg276
(dp886
g882
F1.0
ssbF-100.73894360470476
ssbag2
(g271
g4
Ntp887
Rp888
(dp889
g275
F0.31440584048986353
sg276
(dp890
g2
(g278
g4
Ntp891
Rp892
(dp893
g275
F0.0037199314521228614
sg282
g2
(g283
g284
F0.0001811351155796462
tp894
Rp895
sg287
Nsg276
(dp896
g892
F1.0
ssbF84.51925647996575
sg2
(g278
g4
Ntp897
Rp898
(dp899
g275
F0.011831623249514006
sg282
g2
(g283
g284
F0.0009198943245525031
tp900
Rp901
sg287
Nsg276
(dp902
g898
F1.0
ssbF-26.57334787116197
ssbag2
(g271
g4
Ntp903
Rp904
(dp905
g275
F0.29471699463678613
sg276
(dp906
g2
(g278
g4
Ntp907
Rp908
(dp909
g275
F0.0008803936096356164
sg282
g2
(g283
g284
F0.00014733698389319974
tp910
Rp911
sg287
Nsg276
(dp912
g908
F1.0
ssbF334.75594485376337
sg2
(g278
g4
Ntp913
Rp914
(dp915
g275
F0.0029872509073344327
sg282
g2
(g283
g284
F0.0004984387899674494
tp916
Rp917
sg287
Nsg276
(dp918
g914
F1.0
ssbF-98.65826600409885
ssbag2
(g271
g4
Ntp919
Rp920
(dp921
g275
F0.31926285085936174
sg276
(dp922
g2
(g278
g4
Ntp923
Rp924
(dp925
g275
F0.003604670213700158
sg282
g2
(g283
g284
F0.0001826821070606893
tp926
Rp927
sg287
Nsg276
(dp928
g924
F1.0
ssbF88.569226012951
sg2
(g278
g4
Ntp929
Rp930
(dp931
g275
F0.011290603350804661
sg282
g2
(g283
g284
F0.00011024771896133647
tp932
Rp933
sg287
Nsg276
(dp934
g930
F1.0
ssbF-28.276863595301876
ssbag2
(g271
g4
Ntp935
Rp936
(dp937
g275
F0.29481004919500203
sg276
(dp938
g2
(g278
g4
Ntp939
Rp940
(dp941
g275
F0.0009757970563700573
sg282
g2
(g283
g284
F9.055714329944992e-05
tp942
Rp943
sg287
Nsg276
(dp944
g940
F1.0
ssbF302.12229814638783
sg2
(g278
g4
Ntp945
Rp946
(dp947
g275
F0.0033099178913152194
sg282
g2
(g283
g284
F0.000306083468562666
tp948
Rp949
sg287
Nsg276
(dp950
g946
F1.0
ssbF-89.06868957944367
ssbag2
(g271
g4
Ntp951
Rp952
(dp953
g275
F0.31907703399233794
sg276
(dp954
g2
(g278
g4
Ntp955
Rp956
(dp957
g275
F0.0037211565842055925
sg282
g2
(g283
g284
F0.00019768790846192276
tp958
Rp959
sg287
Nsg276
(dp960
g956
F1.0
ssbF85.74673673950106
sg2
(g278
g4
Ntp961
Rp962
(dp963
g275
F0.01166225139316968
sg282
g2
(g283
g284
F0.0003930450018718698
tp964
Rp965
sg287
Nsg276
(dp966
g962
F1.0
ssbF-27.359814433361834
ssbag2
(g271
g4
Ntp967
Rp968
(dp969
g275
F0.29476127009321446
sg276
(dp970
g2
(g278
g4
Ntp971
Rp972
(dp973
g275
F0.0009224016335794467
sg282
g2
(g283
g284
F0.00010729620873128551
tp974
Rp975
sg287
Nsg276
(dp976
g972
F1.0
ssbF319.55848663165506
sg2
(g278
g4
Ntp977
Rp978
(dp979
g275
F0.0031293176111222114
sg282
g2
(g283
g284
F0.0003641067689323705
tp980
Rp981
sg287
Nsg276
(dp982
g978
F1.0
ssbF-94.19346538861214
ssbag2
(g271
g4
Ntp983
Rp984
(dp985
g275
F0.3155363998086177
sg276
(dp986
g2
(g278
g4
Ntp987
Rp988
(dp989
g275
F0.0037275497569784904
sg282
g2
(g283
g284
F0.0002048392701002169
tp990
Rp991
sg287
Nsg276
(dp992
g988
F1.0
ssbF84.64981566453667
sg2
(g278
g4
Ntp993
Rp994
(dp995
g275
F0.011813374809496974
sg282
g2
(g283
g284
F0.0004769702387405825
tp996
Rp997
sg287
Nsg276
(dp998
g994
F1.0
ssbF-26.710098079251036
ssbag2
(g271
g4
Ntp999
Rp1000
(dp1001
g275
F0.294737641699919
sg276
(dp1002
g2
(g278
g4
Ntp1003
Rp1004
(dp1005
g275
F0.0008985969238533298
sg282
g2
(g283
g284
F0.00014084260852616673
tp1006
Rp1007
sg287
Nsg276
(dp1008
g1004
F1.0
ssbF327.9976081333954
sg2
(g278
g4
Ntp1009
Rp1010
(dp1011
g275
F0.003048802720516498
sg282
g2
(g283
g284
F0.00047779457580377784
tp1012
Rp1013
sg287
Nsg276
(dp1014
g1010
F1.0
ssbF-96.67324150445111
ssbag2
(g271
g4
Ntp1015
Rp1016
(dp1017
g275
F0.31599734013843167
sg276
(dp1018
g2
(g278
g4
Ntp1019
Rp1020
(dp1021
g275
F0.0035328313314233243
sg282
g2
(g283
g284
F0.00028682247112108794
tp1022
Rp1023
sg287
Nsg276
(dp1024
g1020
F1.0
ssbF89.4459175924261
sg2
(g278
g4
Ntp1025
Rp1026
(dp1027
g275
F0.011179940090241477
sg282
g2
(g283
g284
F0.0006894118941738624
tp1028
Rp1029
sg287
Nsg276
(dp1030
g1026
F1.0
ssbF-28.264672045448002
ssbag2
(g271
g4
Ntp1031
Rp1032
(dp1033
g275
F0.2948121514554177
sg276
(dp1034
g2
(g278
g4
Ntp1035
Rp1036
(dp1037
g275
F0.0009919580725583693
sg282
g2
(g283
g284
F0.0001247028224933957
tp1038
Rp1039
sg287
Nsg276
(dp1040
g1036
F1.0
ssbF297.2022302263892
sg2
(g278
g4
Ntp1041
Rp1042
(dp1043
g275
F0.0033647123012443938
sg282
g2
(g283
g284
F0.0004221743989990893
tp1044
Rp1045
sg287
Nsg276
(dp1046
g1042
F1.0
ssbF-87.61882891039016
ssbatp1047
bsS'# groups'
p1048
I2
sS'xs type'
p1049
g144
s.