(dp0
S'domain'
p1
ccopy_reg
_reconstructor
p2
(copenmc.universe
Cell
p3
c__builtin__
object
p4
Ntp5
Rp6
(dp7
S'_type'
p8
S'normal'
p9
sS'_rotation'
p10
NsS'_fill'
p11
g2
(copenmc.material
Material
p12
g4
Ntp13
Rp14
(dp15
S'_density_units'
p16
S'g/cm3'
p17
sS'_density'
p18
F0.07425478275227912
sS'_sab'
p19
NsS'_name'
p20
S''
p21
sS'_nuclides'
p22
(dp23
sS'_elements'
p24
(dp25
sS'_id'
p26
I10003
sbsg20
g21
sS'_translation'
p27
NsS'_offset'
p28
Nsg26
I10017
sS'_surfaces'
p29
(dp30
I10006
(g2
(copenmc.surface
ZCylinder
p31
g4
Ntp32
Rp33
(dp34
g8
S'z-cylinder'
p35
sS'_R'
p36
NsS'_coeffs'
p37
(dp38
S'y0'
p39
F0.0
sS'x0'
p40
F0.0
sS'R'
p41
F0.48387
ssg20
g21
sS'_bc_type'
p42
S'transmission'
p43
sg26
I10006
sS'_x0'
p44
NsS'_coeff_keys'
p45
(lp46
g40
ag39
ag41
asS'_y0'
p47
Nsbcnumpy.core.multiarray
scalar
p48
(cnumpy
dtype
p49
(S'i8'
p50
I0
I1
tp51
Rp52
(I3
S'<'
p53
NNNI-1
I-1
I0
tp54
bS'\x01\x00\x00\x00\x00\x00\x00\x00'
p55
tp56
Rp57
tp58
ssbsS'group bounds'
p59
cnumpy.core.multiarray
_reconstruct
p60
(cnumpy
ndarray
p61
(I0
tp62
S'b'
p63
tp64
Rp65
(I1
(I3
tp66
g49
(S'f8'
p67
I0
I1
tp68
Rp69
(I3
S'<'
p70
NNNI-1
I-1
I0
tp71
bI00
S'\x00\x00\x00\x00\x00\x00\x00\x00\xf1h\xe3\x88\xb5\xf8\xa4>\x00\x00\x00\x00\x00\x00$@'
p72
tp73
bsS'tallies'
p74
(dp75
S'nu-scatter'
p76
g2
(copenmc.tallies
Tally
p77
g4
Ntp78
Rp79
(dp80
S'_num_tot_score_bins'
p81
I1
sS'_label'
p82
S'2 groups'
p83
sS'_filters'
p84
(lp85
g2
(copenmc.tallies
Filter
p86
g4
Ntp87
Rp88
(dp89
S'_mesh'
p90
Nsg8
S'distribcell'
p91
sg28
I10
sS'_stride'
p92
I1
sS'_bin_edges'
p93
(lp94
I10017
asbag2
(g86
g4
Ntp95
Rp96
(dp97
g90
Nsg8
S'energy'
p98
sg28
I0
sg92
I1
sg93
(lp99
F0.0
aF6.25e-07
aF10.0
asbag2
(g86
g4
Ntp100
Rp101
(dp102
g90
Nsg8
S'energyout'
p103
sg28
I0
sg92
I2
sg93
(lp104
F0.0
aF6.25e-07
aF10.0
asbasS'_sum_sq'
p105
g60
(g61
(I0
tp106
g63
tp107
Rp108
(I1
(I4
I1
tp109
g69
I00
S'M\x8euP\r$m?\x00\x00\x00\x00\x00\x00\x00\x00\x88\xbb\xd5\xce\x8bn\xf8>FU\xe1\t\x9c\xf0\x83?'
p110
tp111
bsS'_std_dev'
p112
g60
(g61
(I0
tp113
g63
tp114
Rp115
(I1
(I4
I1
tp116
g69
I00
S'q[I\x0f\n\xe6R?\x00\x00\x00\x00\x00\x00\x00\x00\xc1\x969\xeb\xea\x82B?\x85\x888\xf5\x9e\xc9k?'
p117
tp118
bsS'_num_tot_filter_bins'
p119
I4
sS'_mean'
p120
g60
(g61
(I0
tp121
g63
tp122
Rp123
(I1
(I4
I1
tp124
g69
I00
S'[\x08rP\xc2L\x9b?\x00\x00\x00\x00\x00\x00\x00\x00\xe6R\\U\xf6]a?\x02\x9f\x1fF\x08\x8f\xa6?'
p125
tp126
bsS'_num_realizations'
p127
I5
sg22
(lp128
sS'_sum'
p129
g60
(g61
(I0
tp130
g63
tp131
Rp132
(I1
(I4
I1
tp133
g69
I00
S'9EGr\xf9\x0f\xc1?\x00\x00\x00\x00\x00\x00\x00\x00\xa0g\xb3\xeas\xb5\x85?\xc2\x86\xa7W\xca2\xcc?'
p134
tp135
bsS'_estimator'
p136
S'analog'
p137
sS'_scores'
p138
(lp139
S'nu-scatter'
p140
asg26
I10012
sbsS'flux'
p141
g2
(g77
g4
Ntp142
Rp143
(dp144
g81
I1
sg82
S'2 groups'
p145
sg84
(lp146
g2
(g86
g4
Ntp147
Rp148
(dp149
g90
Nsg8
g91
sg28
I10
sg92
I1
sg93
(lp150
I10017
asbag2
(g86
g4
Ntp151
Rp152
(dp153
g90
Nsg8
g98
sg28
I0
sg92
I1
sg93
(lp154
F0.0
aF6.25e-07
aF10.0
asbasg105
g60
(g61
(I0
tp155
g63
tp156
Rp157
(I1
(I2
I1
tp158
g69
I00
S'\xd3\x0cV\x8d\xb0\x9d\\?\xa2X\xce\x8e\xf3C\x98?'
p159
tp160
bsg112
g60
(g61
(I0
tp161
g63
tp162
Rp163
(I1
(I2
I1
tp164
g69
I00
S'\xc9\t9Ft\x8fJ?)\xad\xc9JZ\x7f\x80?'
p165
tp166
bsg119
I2
sg120
g60
(g61
(I0
tp167
g63
tp168
Rp169
(I1
(I2
I1
tp170
g69
I00
S'\xd1E]x\x14!\x93?\x92\xc6\xe4\xc4\xa1\x8f\xb1?'
p171
tp172
bsg127
I5
sg22
(lp173
sg129
g60
(g61
(I0
tp174
g63
tp175
Rp176
(I1
(I2
I1
tp177
g69
I00
S'E\x97t\x96Y\xe9\xb7?6\xf8\x1d6\x8a\xf3\xd5?'
p178
tp179
bsg136
g137
sg138
(lp180
g141
asg26
I10002
sbssS'subdomain offsets'
p181
(dp182
I565
g48
(g52
S'\x00\x00\x00\x00\x00\x00\x00\x00'
p183
tp184
Rp185
ssS'offset'
p186
I10
sS'domain type'
p187
g91
sS'xs'
p188
g60
(g61
(I0
tp189
g63
tp190
Rp191
(I1
(I1
I2
I2
tp192
g49
(S'O8'
p193
I0
I1
tp194
Rp195
(I3
S'|'
p196
NNNI-1
I-1
I63
tp197
bI00
(lp198
g2
(cuncertainties
AffineScalarFunc
p199
g4
Ntp200
Rp201
(dp202
S'_nominal_value'
p203
F0.6422937236445153
sS'derivatives'
p204
(dp205
g2
(cuncertainties
Variable
p206
g4
Ntp207
Rp208
(dp209
g203
F0.04406
sS'_std_dev'
p210
g2
(cuncertainties
CallableStdDev
p211
c__builtin__
float
p212
F0.0033920387884487945
tp213
Rp214
sS'tag'
p215
Nsg204
(dp216
g208
F1.0
ssbF14.577705938368483
sg2
(g206
g4
Ntp217
Rp218
(dp219
g203
F0.06859789902662275
sg210
g2
(g211
g212
F0.008055406005232317
tp220
Rp221
sg215
Nsg204
(dp222
g218
F1.0
ssbF-9.363169029349455
ssbag2
(g199
g4
Ntp223
Rp224
(dp225
g203
F0.030904736589341175
sg204
(dp226
g2
(g206
g4
Ntp227
Rp228
(dp229
g203
F0.0021199999999999995
sg210
g2
(g211
g212
F0.000564923006504535
tp230
Rp231
sg215
Nsg204
(dp232
g228
F1.0
ssbF14.577705938368483
sg218
F-0.45052016210215257
ssbag2
(g199
g4
Ntp233
Rp234
(dp235
g203
F0.0
sg204
(dp236
g2
(g206
g4
Ntp237
Rp238
(dp239
g203
F0.0
sg210
g2
(g211
g212
F0.0
tp240
Rp241
sg215
Nsg204
(dp242
g238
F1.0
ssbF53.53067584250598
sg2
(g206
g4
Ntp243
Rp244
(dp245
g203
F0.018680877539116573
sg210
g2
(g211
g212
F0.0008105581040996286
tp246
Rp247
sg215
Nsg204
(dp248
g244
F1.0
ssbF0.0
ssbag2
(g199
g4
Ntp249
Rp250
(dp251
g203
F1.4271278179612092
sg204
(dp252
g2
(g206
g4
Ntp253
Rp254
(dp255
g203
F0.02666
sg210
g2
(g211
g212
F0.001153478454531256
tp256
Rp257
sg215
Nsg204
(dp258
g254
F1.0
ssbF53.53067584250598
sg244
F-76.39511660910438
ssbatp259
bsS'# groups'
p260
I2
sS'xs type'
p261
S'scatter matrix'
p262
s.