(dp0
S'domain'
p1
ccopy_reg
_reconstructor
p2
(copenmc.universe
Cell
p3
c__builtin__
object
p4
Ntp5
Rp6
(dp7
S'_type'
p8
S'normal'
p9
sS'_rotation'
p10
NsS'_fill'
p11
g2
(copenmc.material
Material
p12
g4
Ntp13
Rp14
(dp15
S'_density_units'
p16
S'g/cm3'
p17
sS'_density'
p18
F0.07425478275227912
sS'_sab'
p19
NsS'_name'
p20
S''
p21
sS'_nuclides'
p22
(dp23
sS'_elements'
p24
(dp25
sS'_id'
p26
I10003
sbsg20
g21
sS'_translation'
p27
NsS'_offset'
p28
Nsg26
I10012
sS'_surfaces'
p29
(dp30
I10003
(g2
(copenmc.surface
ZCylinder
p31
g4
Ntp32
Rp33
(dp34
g8
S'z-cylinder'
p35
sS'_R'
p36
NsS'_coeffs'
p37
(dp38
S'y0'
p39
F0.0
sS'x0'
p40
F0.0
sS'R'
p41
F0.56134
ssg20
g21
sS'_bc_type'
p42
S'transmission'
p43
sg26
I10003
sS'_x0'
p44
NsS'_coeff_keys'
p45
(lp46
g40
ag39
ag41
asS'_y0'
p47
Nsbcnumpy.core.multiarray
scalar
p48
(cnumpy
dtype
p49
(S'i8'
p50
I0
I1
tp51
Rp52
(I3
S'<'
p53
NNNI-1
I-1
I0
tp54
bS'\xff\xff\xff\xff\xff\xff\xff\xff'
p55
tp56
Rp57
tp58
ssbsS'group bounds'
p59
cnumpy.core.multiarray
_reconstruct
p60
(cnumpy
ndarray
p61
(I0
tp62
S'b'
p63
tp64
Rp65
(I1
(I3
tp66
g49
(S'f8'
p67
I0
I1
tp68
Rp69
(I3
S'<'
p70
NNNI-1
I-1
I0
tp71
bI00
S'\x00\x00\x00\x00\x00\x00\x00\x00\xf1h\xe3\x88\xb5\xf8\xa4>\x00\x00\x00\x00\x00\x00$@'
p72
tp73
bsS'tallies'
p74
(dp75
S'flux'
p76
g2
(copenmc.tallies
Tally
p77
g4
Ntp78
Rp79
(dp80
S'_num_tot_score_bins'
p81
I1
sS'_label'
p82
S'2 groups'
p83
sS'_filters'
p84
(lp85
g2
(copenmc.tallies
Filter
p86
g4
Ntp87
Rp88
(dp89
S'_mesh'
p90
Nsg8
S'distribcell'
p91
sg28
I5
sS'_stride'
p92
I1
sS'_bin_edges'
p93
(lp94
I10012
asbag2
(g86
g4
Ntp95
Rp96
(dp97
g90
Nsg8
S'energy'
p98
sg28
I0
sg92
I24
sg93
(lp99
F0.0
aF6.25e-07
aF10.0
asbasS'_sum_sq'
p100
g60
(g61
(I0
tp101
g63
tp102
Rp103
(I1
(I48
I1
tp104
g69
I00
S'\x9a^\x8a\x18\xa6|c?\xf1n\xd4\n h\x9f?\xe9{\x03\xbe@\x89g?SAUak\r\x9f?Q}w.A\xc0a?p\xc0&e\x00\xb2\x9d?\x83\xdf\x9a\xe3\xac4e?\xc0\xe6\xe3\xd4Z\x14\xa0?\x06\x93\xdfL\xa9\x98b?\n&\xf1J\x05 \x9f?D\xa5\xad"\x8b\x82e?\x85\xeb\x08q\x91\xf6\x9d?&n\xfa\xcf\xd2\xf7e?\x7f`\xf1\xe3=\xd1\x9d?\xb3V\xe8\xe3\x9f\xe5c?b\xd2\xfe\x98\xc1\xa8\x9c?\xf0\xb8\xb5\x972\x8bf?\x04\xa3\xb3\xa7\xcd\x0b\x9b?\x05\xf9[\xbbV\x15b??\xac\xd23\xc0\xb1\x9d?\xe4Z\xa1\xa9<\xb6d?\x10(\xff\xbb\xa2\xda\x9c?\xb8\xd2\x84\x05X\xdfd?\xa2\x02\xf0\xb0\xf3\xaf\x9d?\xf6\xbbCk5]f?\xf4CG\\\xb6\xce\x9b?\xc7?]\xech\xa6a?\xa8\x85\x8f\xeam\xad\x9c?\xa6\x13\xf8\x94\x1c\x05a? 9?\xd1C\xb5\x9d?\x97>\x94\xfb\xb1\'e?NF\xb00\xe6k\x9f?\xfc4\x81\xb7Okc?\t\x02<\xa30\xaa\x9c?1\xd1\xd5d\x99Rb?}\xd6\xb1a\xae\x0b\x9f?\x1c\xee\x83\xe0\r\x95`?\nQ\x82q\xdbE\x9e?o\xe6\xc0>\xa0\xa9a?\x971\x16\xa9\x1c9\x9e?\xa0e\xae\x9c\xdf\xd7d?)Wx\xad\xcbh\x9d?ndN\x99\xe7Rb?z\x93\xdeq6t\x9e?2\xd66\xf5Gm_?/\x80/\x11\xbe\x1a\x9d?z\xdd\xd3\x08\xc3\x1ae?DC\xe3\x890c\x9c?'
p105
tp106
bsS'_std_dev'
p107
g60
(g61
(I0
tp108
g63
tp109
Rp110
(I1
(I48
I1
tp111
g69
I00
S"\x10\x08\xc0\x86\xd1\xcal?pZ\xa8&JZd?(\xee\xdcr#8P?\xf4\xda\x91t_\x8a\x81?\x8ck\xd3\x87l\x06e?\xe5qF7\xe5,r?\x10\xddi\xdf\xb1\xcfd?xO\x88#\x88\x8eq?\xec\x82\xe8\xdd\xc6]n?\x81\xc0\xc6\x97\xfe\xd6n?\xaauEA\xf8\x11l?\x0b\xea\xca\x8c\xe2\x9fu?\x17\x94]k\xa7\xcdj?ni\x7fA\x11\x8fr?\x0c\xbf3\x1c\xe9 b?\xb2\xbe VV8x?\x1e`AM\xfb\x8ci?3\xf4\xa9\xf0~%o?\xb2d\xceB\x11\x97j?Df\x95\xdd\xee\x82r?/\xb8\x18\x137\x11e?IMo(\x0b\x1el?\x9cm\xf0<dJ\\?\xd9~\x9b\xf7\x90\xffe?\xf4s\xb5\xdb\xd8\xa6`?\x1fnJ\xb4\x1e2u?&\xa2\xec~\x99\xd3f?A\xa0\xa1>\xcbDx?\x17\xcf\x99\xc8\x17\xd5]?rk3\xd8\x8d\xb8L?K\xac\xe9\x86/\xbdR?V\x93\xf7\x8b&\x07{?\xd0[H\xfc\xc5\xd6f?\xcc\x9c\xbe\xe5aNh?\xc0\xfd#\xe0\xfe_e?\x8d\xa5\xa3\xe5\x0f\xb8u?\xab\xa7\x9c\x0e\xc57l?\x83\xcd4\x86\xe9\xedy?B\x91\xa5\xc0\x08\xb5d?]\xbb\x94\x10@\xb5j?\x19K\xc5\x04\xe6o`?h\x13\x7f,<\xcfq?\xa7\xca4\x8f\xf4\xe2g?d\x8c\x9d\xab\xef\xfbf?1\xe2nW\xf6Ld?\xb7\x92\xdf\xa9\x9b\xd6s?\x90'A\xae\xa1\xeeT?\xd5\xc7p\xe5\x15\x82s?"
p112
tp113
bsS'_num_tot_filter_bins'
p114
I48
sS'_mean'
p115
g60
(g61
(I0
tp116
g63
tp117
Rp118
(I1
(I48
I1
tp119
g69
I00
S'P\xf2g\xe5./\x96?{i\x92\xd8{\x0b\xb4?<\x94NG\x18\x89\x98?S4\xdej\xbf\xdf\xb3?N\xc1\xe9\x92\xa7;\x95?y)\x03$\x9ez\xb3?\xd7\xd7\xaf\x98Z9\x97?L\xd2ku\xfdE\xb4?V\xbb\x7f\x9b\x9d\xa5\x95?\xd3\x99\xad,\xaa\xf2\xb3?U\xf7\x1d\xa2ZT\x97?\x05\xf1bRF\x8f\xb3?\xeb\xe2\xb0\xbbj\x97\x97?\xc6\x1ex(\xaf\x84\xb3?{\xeb\xd3 \x8c\x82\x96?\xae\xba\x92\xca7\x1f\xb3?\xecv\x14\xaf\xb3\xe9\x97?\xef\xe3B\xf7\xcc\x97\xb2?F\xa9hY\xdca\x95?f>\x81\x01_z\xb3?c\xae\xd7\xde\xc4\xf2\x96?\x8d,Q\x06$5\xb3?\x06;$_\x9f\x14\x97?\xca\x8aj\x82\xbb|\xb3?\xf5ck\xd7`\xe1\x97?:\x99=P\x94\xd7\xb2?\x9e#F\xb0-(\x95?\xbeRq\xef\xbf \xb3?\x1b\xc5\xa9\xbb\x97\xd4\x94?-\x88][\xea\x7f\xb3?\xfb\xc8+\x14\xa0A\x97?e\xfb\xc1\xb7\x91\x04\xb4?\xca\x91,\xad\x8e3\x96?\xbep\xe9\x18\xa6%\xb3?z\xa7]<u\x92\x95?EE\xf4`\x16\xe9\xb3?\xe6\xbb\x858>r\x94?}pl\x0bs\xa6\xb3?N\xe9\x8ak\xa5.\x95?*\xd50\xfb\xd1\xa8\xb3?\xefr\xc8\xdaR\r\x97?\x88\xa6\x89\xe3\xaeb\xb3?\x08z\x1d\xfa*\x8d\x95?\xcd\x0c\xd7\xb0\xa1\xbc\xb3?\xc2\xdd\xcd\xc7\x19\xf9\x93?-\x98\xbd\xc5\xd1G\xb3?r\n\x9a\xe2\x879\x97?\xee\t\x89\xdd\xaf\n\xb3?'
p120
tp121
bsS'_num_realizations'
p122
I5
sg22
(lp123
sS'_sum'
p124
g60
(g61
(I0
tp125
g63
tp126
Rp127
(I1
(I48
I1
tp128
g69
I00
S'\xe4\xee\xc1\x9e\xfa\xba\xbb?\xda\x03\xb7\xceZ\x0e\xd9?K9"Y^\xab\xbe?h\xc1\x95E\xaf\xd7\xd8?\xa21\xa4w\x91\x8a\xba?\xd7\xf3\x03\xadEY\xd8?\xcd\xcd\xdb>\xb1\x07\xbd?\xdf\xc6\xc6\xd2|W\xd9?,\xaa_\x02\x05\x0f\xbb?H\x00\xd9\xb7T\xef\xd8?*u\xa5Jq)\xbd?F\xad\xfb\xe6\x17s\xd8?\xa6\x1b\x9djE}\xbd?w&\x96\xf2\xdae\xd8?Z\xe6\x08)/#\xbc?Zi7\xbd\x05\xe7\xd7?\xa7\x94\xd9\x9a \xe4\xbd?\xeb\x9c\x135\xc0=\xd7?\x98\xd3\xc2oS\xba\xba?\xff\x8d\xe1\xc1\xf6X\xd8?\xfc\x99\x8d\x16v\xaf\xbc?\xb0w\xe5\x07m\x02\xd8?\xc7I\xed6\xc7\xd9\xbc?|-\x05c\xea[\xd8?\xf2<F\r\xb9\xd9\xbd?\x88\xffLdy\x8d\xd7?\x85\xacW\x1c9r\xba?n\xa7M\xeb\xef\xe8\xd7?b6\x94\xaa\xbd\t\xba?8\xea4\xf2\xe4_\xd8?:\xbb6\x19\x08\x12\xbd?>z\xb2%\xb6\x05\xd9?<\xb6wXr\xc0\xbb?\xed\xcc#\x9f\x0f\xef\xd7?Y\x11u\x8b\x12\xf7\xba?\x96V1\xf9[\xe3\xd8?\xdf*\xa7\xc6\xcd\x8e\xb9?\x9c\x8cG\xce\x0f\x90\xd8?\xa1\xa3m\xc6Nz\xba?t\n\xfdy\x06\x93\xd8?\xab\x8fz\x91\xa7\xd0\xbc?*\x10l\x9cZ;\xd8?\x8a\xd8\xa4\xb8u\xf0\xba?\x00\xd0\x0c\x1d\xca\xab\xd8?2U\xc19`\xf7\xb8?8\xfe,7\xc6\x19\xd8?\x0e\x8d@\xdb\xe9\x07\xbd?jL\xeb\xd4[\xcd\xd7?'
p129
tp130
bsS'_estimator'
p131
S'tracklength'
p132
sS'_scores'
p133
(lp134
g76
asg26
I10171
sbsS'absorption'
p135
g2
(g77
g4
Ntp136
Rp137
(dp138
g81
I1
sg82
S'2 groups'
p139
sg84
(lp140
g2
(g86
g4
Ntp141
Rp142
(dp143
g90
Nsg8
g91
sg28
I5
sg92
I1
sg93
(lp144
I10012
asbag2
(g86
g4
Ntp145
Rp146
(dp147
g90
Nsg8
g98
sg28
I0
sg92
I24
sg93
(lp148
F0.0
aF6.25e-07
aF10.0
asbasg100
g60
(g61
(I0
tp149
g63
tp150
Rp151
(I1
(I48
I1
tp152
g69
I00
S"bOg\xe9\xb0a\xc8>\x91\xe0\x99\x81\xe4\xadM>\x9fS\x881\n\x83\xcf>^\x18q\xb2\xd7\xdcO>\xb6\xbc\xae\xc7\xb1I\xc6>\xb5\xd1\xbc\x90\xe2\xb9M>\x10\xb9>^I\x17\xcc>\x06towQ\xb4N>*\xa5+m\xb2t\xc7>\x96\xa5s\xfc5\x06S>\xa0\xf9ExU\x9d\xca>\x7f\xc7\xc8\x97A\xacQ>\xf8\xea8\x07v\xb5\xcb>\x1d\\Z\x88\x93PM>\x00\x89[\xdd\x8a\x10\xc8>\x1a^\xc6H4\xe2O>7D\x97\xc9\xbc\xeb\xcc>\xd0N\x11Y\xae\x17N>\xca\x89V]\x05c\xc6>\xae\x01\x93\x07\xe0\xbaP>40-\x9e\x8b\xe5\xc9>\xc6\xfb\n0\xdbXP>j\x9c\xd0\xc0\xd5\xa2\xca>\x85\x84\xaf\xef#1P>3\x93b<\xc0\x80\xcd>\x8d\xe7\xd06r\xc0P>\xc6<\xb8Ku/\xc8>\xc0\xff,\xdd\x9bgP>>\xb6\xaa\x95\x11\xb1\xc6>=\xf7@:]\\O>c\x1c&\xc4\xe0A\xcb>\x03ED\r\xcaDP>3\xf0 \xa9\xa0\x1d\xc7>\xc86U1Y\x91Q>\xbe%\xf1\x8a5g\xc8>\xf7_\xcb\xbe\x95\x0bQ>\xe0\xdbZG\x8b\xdc\xc5>Ui\xc4\xe6\xf5\xaaM>,\xa5\xe7\xe3\x92`\xc6>\xf9\x1e|\xe1qRO>\xbd\x02\xb0U\x12\x1e\xcc>\x88\xec\x8c\x02\xf43K>bW'\x1e\xa6X\xc7>\tmN\xc70eR>\xf4\xba\t!\x9dk\xc4>\x01$\x1fj\x08\xcbL>\xf6A\xb1\x85\xa5\xac\xcb>\x0e\xd6Y\xfc\xabDP>"
p153
tp154
bsg107
g60
(g61
(I0
tp155
g63
tp156
Rp157
(I1
(I48
I1
tp158
g69
I00
S'\xa6t\xac\x11~|!?\xe86\x0f\x02\xc4\xac\xd6><\x82Q"\xbeY\x07?>\x1d\x9cC\x14I\xcf>\xf9TX\xe6\xfc\xa9\x15?e\\\xf5\x00\xfb\xe8\xd3>\x10-\xd0\x95\xb5.\x1e?\x93\x14\xdfB\x9b@\xd6>\x83\xeat\xa0G\x85"?\xba\x02~{\x90\xe0\xd6>\x9d\xda\xb8\xdd9K"?\xcanTk\xa5\xcf\xd1>\xfe\xd5\xdfQ\x14\xa9"?m]9o\r\xa7\xde>\xd6;\xfe|\x989\x11?\xc6<:"\xa3O\xc2>\x01e\xc3\xaf\xc7\x9f\x1e?A\xdb@O\xdfP\xc6>\xb8pY4\xc8\x9f\x1c?a\xe4\xc9E\x97\xcc\xd3>\xed-cC\x88\x08 ?\xe4\x08\xb2]a\xdd\xd3>\xc96\xaek\xd9%\x14?\xe3\x1c\xc5\xb3h\x9f\xdf>}\xda3\xdd"\xc1\x18?7.\x00\xe3\x96V\xe3>\xe8Q\xf9\xd2\xaa/!?\xba\x17\xb6\x1b\x7f;\xd7>\xa6\x8d\x15\xb4A\xb0\x12?\xae\x80\x93\xd9\x97\x90\xe4>-\xcbK\xc7}T\x07?\x8b?\x89B\xb3\x12\xe2>0t\x1cD\'G\x13?\xd7\xb8v[\xa5\xc9\xe2>\xe2,\x99#\xd5\xd5 ?\x87\xb6\xe1\x88\xb7[\xd6><j\xe5\xdc\xd7\xe5 ?\xa9\xae\x918t\xf9\xd2>\x14\x8e\xfa\xe2\x11\xd4 ? \xb5\xb7\xb3\x16\x13\xd6>#\xc6\x00\xabO\xdd!?_2D\x7fQ\xc3\xd6>\x1by\x1eE\xa7\xb7\x15?\xe3\xd0\xf1(c\xc2\xf0>M\xed\x92\x02b\xad\x19?\x9d\xc8{\x97S{\xd4>Z\x9c\x06\xff\xc7\r\x18?7\x89\x06\xb0\x90\xf5\xda>'
p159
tp160
bsg114
I48
sg115
g60
(g61
(I0
tp161
g63
tp162
Rp163
(I1
(I48
I1
tp164
g69
I00
S'8y\x82\x1d\xbc\xc8H?]\\\xf3\xee\x11}\x0b?\xc5\xba\xc4\x06\x11bL?\xf6\xa9\x97\xc5\x82\x86\x0c?F\x1e\xd3!\x8b\xceG?\xea\xfe\xfc\x9b\x17\x87\x0b?\xf2\x19%\x81\xb2\xadJ?\x13i\x0e\xfc\xed\xf6\x0b?d\xea|\x91\xc4FH?\xce\xaa\x83v?$\x0f?\xc8q\xd4\x9f\xc4\xe4I?2\x8a\x13\xe2\xb7\t\x0e?r\xa8y\xb9\xb2kJ?\xd8m\x84WMA\x0b?Ea-g\x9d\xc5H?\x96\xfb\xd5\xc8\xc3\x8e\x0c?\xf2l[p\xd9\x11K?\x8d\xe2)\xba\xc0\xbc\x0b?\xce\xfap\x08\xe7\xccG?jD\x160\x846\r?\xa9\xf7F\xfe\xe2\x95I?\x12\xa8!\r\x07\xe0\x0c?0>N\xeb\xbf\x0cJ?~\xef\x0eM\xd6\xa6\x0c?\xb2\xc0\xa3QHdK?\xe5JZ\xb3\x1a\x14\r?\x81\xa4\xf0\xef|\xb0H?\x08R\xf6\xeb\xe2\xe7\x0c?,$\xd4\xb7\x0e\x0bH?\xfd\x87\xa1/_\x17\x0c?\xf2\x17\xfdy\x10eJ?\xc6\xe2\x15uI\xad\x0c?\xa7\'}*\xa0CH?JT\xe3G\xb9\xcc\r?\x16\x11\x0b\xe0R\xcfH?\x1e,\x82x\x1dy\r?\xc4s\xf5\n\xe2uG?s\x92\x95\x9f\x85\x81\x0b?\xdb\xf70\x95\xe6\xbdG?\xd8\xa5\x07*<?\x0c?\x03\x95q\x05\xb9\xa2J?}\x94\xc7\xf2@O\n?\x18\xe7X\x03m^H?\xea\x1f\xd0T\x03\x17\x0e?>\x96\x92\x98,\xbfF?=\xbf\xd4bA\x16\x0b?J\xb64\xf5Z\x87J?\x93S!\x02"\xc2\x0c?'
p165
tp166
bsg122
I5
sg22
(lp167
sg124
g60
(g61
(I0
tp168
g63
tp169
Rp170
(I1
(I48
I1
tp171
g69
I00
S'\x86\x17\xe3$\xeb\xfan?\xba\x19X5+.1?\xbb\xf4:\xa4J\xbdq?:\xca~\xbb\x11\xd41?\xd8\xe5G\xea-\xc2m?R\x1f~\xc1n41?70\xb7\x90\x8f\xacp?\xac\x01\x89\xbdTz1?\xfd$\xdc\xb5uXn?\xc1J\x12\xaa\xa7v3?\x1d\xc7\xe4\xe3\xfa.p?_6L\xed\x12\xc62?G\t\xec\xb3O\x83p?\xa7\xc4\xb2V\xd0\x081?\x96\xb9\xf8\xc0\x04\xf7n?>\xbd\x85]:\xd91?\x17$9\xe6\'\xebp?\x98-Zt\xf8U1?\x819\x8d\xca \xc0m?\xc2\xea\r\x9e\x12B2?\x93\xb5\xd8\xbd[\xfbo?\x0b\t5h\x04\x0c2?\xde\xe6\x10\xf3\xf7Gp?\xafU)\xf0E\xe81?oX\x063\xad\x1eq?\xcfn\x18\xb0\x90,2?\xa1\xcd\xec+\x9c\xdcn?E\xf3y\xd3\xed\x102?7-\xc9e\xd2\rn?\xfe\xf4\xc4}\x9b\x8e1?\xf7.>L*\x7fp?\xbc\xad-\xe9M\xec1?\x91q\x1c5\x88Tn?\xae\x14\xee\xcc\xf3\x9f2?[\xd5\r\x98\'\x03o?\x93[Qk\xb2k2?\xb5\xd0\xb2\x8dZSm?\x88{\xbd\x83\xf301?\xd25}:`\xadm?\xa7\xc7D\x9a\x85\xa71?"\xfdf\xa3\xb3\xa5p?\xce\xbc\xbc\x97\x88q0?\xde /D\x08vn?\xf2\x13\x02\x15b\xce2?\xce;\xb7\xbe\xf7nl?\x86\xf7\xc4\xdd\xe8\xed0?\xee\xf1@\xd9\x98\x94p?<\xd4TAU\xf91?'
p172
tp173
bsg131
g132
sg133
(lp174
g135
asg26
I10177
sbssS'subdomain offsets'
p175
(dp176
I387
g48
(g52
S'\t\x00\x00\x00\x00\x00\x00\x00'
p177
tp178
Rp179
sI774
g48
(g52
S'\x11\x00\x00\x00\x00\x00\x00\x00'
p180
tp181
Rp182
sI785
g48
(g52
S'\x12\x00\x00\x00\x00\x00\x00\x00'
p183
tp184
Rp185
sI915
g48
(g52
S'\x14\x00\x00\x00\x00\x00\x00\x00'
p186
tp187
Rp188
sI156
g48
(g52
S'\x00\x00\x00\x00\x00\x00\x00\x00'
p189
tp190
Rp191
sI542
g48
(g52
S'\n\x00\x00\x00\x00\x00\x00\x00'
p192
tp193
Rp194
sI167
g48
(g52
S'\x01\x00\x00\x00\x00\x00\x00\x00'
p195
tp196
Rp197
sI553
g48
(g52
S'\x0b\x00\x00\x00\x00\x00\x00\x00'
p198
tp199
Rp200
sI178
g48
(g52
S'\x02\x00\x00\x00\x00\x00\x00\x00'
p201
tp202
Rp203
sI950
g48
(g52
S'\x15\x00\x00\x00\x00\x00\x00\x00'
p204
tp205
Rp206
sI575
g48
(g52
S'\x0c\x00\x00\x00\x00\x00\x00\x00'
p207
tp208
Rp209
sI961
g48
(g52
S'\x16\x00\x00\x00\x00\x00\x00\x00'
p210
tp211
Rp212
sI586
g48
(g52
S'\r\x00\x00\x00\x00\x00\x00\x00'
p213
tp214
Rp215
sI972
g48
(g52
S'\x17\x00\x00\x00\x00\x00\x00\x00'
p216
tp217
Rp218
sI213
g48
(g52
S'\x03\x00\x00\x00\x00\x00\x00\x00'
p219
tp220
Rp221
sI343
g48
(g52
S'\x05\x00\x00\x00\x00\x00\x00\x00'
p222
tp223
Rp224
sI354
g48
(g52
S'\x06\x00\x00\x00\x00\x00\x00\x00'
p225
tp226
Rp227
sI741
g48
(g52
S'\x0e\x00\x00\x00\x00\x00\x00\x00'
p228
tp229
Rp230
sI876
g48
(g52
S'\x13\x00\x00\x00\x00\x00\x00\x00'
p231
tp232
Rp233
sI365
g48
(g52
S'\x07\x00\x00\x00\x00\x00\x00\x00'
p234
tp235
Rp236
sI752
g48
(g52
S'\x0f\x00\x00\x00\x00\x00\x00\x00'
p237
tp238
Rp239
sI376
g48
(g52
S'\x08\x00\x00\x00\x00\x00\x00\x00'
p240
tp241
Rp242
sI763
g48
(g52
S'\x10\x00\x00\x00\x00\x00\x00\x00'
p243
tp244
Rp245
sI252
g48
(g52
S'\x04\x00\x00\x00\x00\x00\x00\x00'
p246
tp247
Rp248
ssS'offset'
p249
I5
sS'domain type'
p250
g91
sS'xs'
p251
g60
(g61
(I0
tp252
g63
tp253
Rp254
(I1
(I24
I2
tp255
g49
(S'O8'
p256
I0
I1
tp257
Rp258
(I3
S'|'
p259
NNNI-1
I-1
I63
tp260
bI00
(lp261
g2
(cuncertainties
AffineScalarFunc
p262
g4
Ntp263
Rp264
(dp265
S'_nominal_value'
p266
F0.0006696054227679198
sS'derivatives'
p267
(dp268
g2
(cuncertainties
Variable
p269
g4
Ntp270
Rp271
(dp272
g266
F5.2430257591212023e-05
sS'_std_dev'
p273
g2
(cuncertainties
CallableStdDev
p274
c__builtin__
float
p275
F5.40610929618071e-06
tp276
Rp277
sS'tag'
p278
Nsg267
(dp279
g271
F1.0
ssbF12.771354815547467
sg2
(g269
g4
Ntp280
Rp281
(dp282
g266
F0.07830022847557487
sg273
g2
(g274
g275
F0.0024844597112506014
tp283
Rp284
sg278
Nsg267
(dp285
g281
F1.0
ssbF-0.00855176844058377
ssbag2
(g262
g4
Ntp286
Rp287
(dp288
g266
F0.03491223239821756
sg267
(dp289
g2
(g269
g4
Ntp290
Rp291
(dp292
g266
F0.0007563513309099329
sg273
g2
(g274
g275
F0.00013340987137492217
tp293
Rp294
sg278
Nsg267
(dp295
g291
F1.0
ssbF46.15875053226415
sg2
(g269
g4
Ntp296
Rp297
(dp298
g266
F0.021664364578088346
sg273
g2
(g274
g275
F0.003514680129229404
tp299
Rp300
sg278
Nsg267
(dp301
g297
F1.0
ssbF-1.6115050257937544
ssbag2
(g262
g4
Ntp302
Rp303
(dp304
g266
F0.0007008364620521521
sg267
(dp305
g2
(g269
g4
Ntp306
Rp307
(dp308
g266
F5.4407945480356505e-05
sg273
g2
(g274
g275
F3.729518110232428e-06
tp309
Rp310
sg278
Nsg267
(dp311
g307
F1.0
ssbF12.881141823397519
sg2
(g269
g4
Ntp312
Rp313
(dp314
g266
F0.07763286933023154
sg273
g2
(g274
g275
F0.008564706559110992
tp315
Rp316
sg278
Nsg267
(dp317
g313
F1.0
ssbF-0.009027573862701924
ssbag2
(g262
g4
Ntp318
Rp319
(dp320
g266
F0.0361504776280353
sg267
(dp321
g2
(g269
g4
Ntp322
Rp323
(dp324
g266
F0.0008661826264296449
sg273
g2
(g274
g275
F4.453765385715013e-05
tp325
Rp326
sg278
Nsg267
(dp327
g323
F1.0
ssbF41.73539912367614
sg2
(g269
g4
Ntp328
Rp329
(dp330
g266
F0.023960475303870007
sg273
g2
(g274
g275
F0.0009899469545889914
tp331
Rp332
sg278
Nsg267
(dp333
g329
F1.0
ssbF-1.508754612317578
ssbag2
(g262
g4
Ntp334
Rp335
(dp336
g266
F0.0006900394578948509
sg267
(dp337
g2
(g269
g4
Ntp338
Rp339
(dp340
g266
F5.2504928588435255e-05
sg273
g2
(g274
g275
F4.7469329865413255e-06
tp341
Rp342
sg278
Nsg267
(dp343
g339
F1.0
ssbF13.142374943575089
sg2
(g269
g4
Ntp344
Rp345
(dp346
g266
F0.07608974818427851
sg273
g2
(g274
g275
F0.004437346815759889
tp347
Rp348
sg278
Nsg267
(dp349
g345
F1.0
ssbF-0.009068757281515426
ssbag2
(g262
g4
Ntp350
Rp351
(dp352
g266
F0.03503800341021323
sg267
(dp353
g2
(g269
g4
Ntp354
Rp355
(dp356
g266
F0.0007265261989681325
sg273
g2
(g274
g275
F8.264165952483531e-05
tp357
Rp358
sg278
Nsg267
(dp359
g355
F1.0
ssbF48.226758319213886
sg2
(g269
g4
Ntp360
Rp361
(dp362
g266
F0.020735376684059496
sg273
g2
(g274
g275
F0.0025665397393885344
tp363
Rp364
sg278
Nsg267
(dp365
g361
F1.0
ssbF-1.6897693224521453
ssbag2
(g262
g4
Ntp366
Rp367
(dp368
g266
F0.0006735217327884873
sg267
(dp369
g2
(g269
g4
Ntp370
Rp371
(dp372
g266
F5.333818217608164e-05
sg273
g2
(g274
g275
F5.305378222024724e-06
tp373
Rp374
sg278
Nsg267
(dp375
g371
F1.0
ssbF12.627384461004628
sg2
(g269
g4
Ntp376
Rp377
(dp378
g266
F0.07919296375968904
sg273
g2
(g274
g275
F0.004286319534475662
tp379
Rp380
sg278
Nsg267
(dp381
g377
F1.0
ssbF-0.008504817862762255
ssbag2
(g262
g4
Ntp382
Rp383
(dp384
g266
F0.03589829032255447
sg267
(dp385
g2
(g269
g4
Ntp386
Rp387
(dp388
g266
F0.0008141633609646799
sg273
g2
(g274
g275
F0.00011513694103386742
tp389
Rp390
sg278
Nsg267
(dp391
g387
F1.0
ssbF44.09224492738112
sg2
(g269
g4
Ntp392
Rp393
(dp394
g266
F0.022679725236194628
sg273
g2
(g274
g275
F0.002540442855486831
tp395
Rp396
sg278
Nsg267
(dp397
g393
F1.0
ssbF-1.5828362093763066
ssbag2
(g262
g4
Ntp398
Rp399
(dp400
g266
F0.0007622781925051158
sg267
(dp401
g2
(g269
g4
Ntp402
Rp403
(dp404
g266
F5.939787553351437e-05
sg273
g2
(g274
g275
F5.45435062082659e-06
tp405
Rp406
sg278
Nsg267
(dp407
g403
F1.0
ssbF12.833425196748184
sg2
(g269
g4
Ntp408
Rp409
(dp410
g266
F0.07792152014517421
sg273
g2
(g274
g275
F0.003764626743041844
tp411
Rp412
sg278
Nsg267
(dp413
g409
F1.0
ssbF-0.009782640162626817
ssbag2
(g262
g4
Ntp414
Rp415
(dp416
g266
F0.03504600594521176
sg267
(dp417
g2
(g269
g4
Ntp418
Rp419
(dp420
g266
F0.0007408580595219092
sg273
g2
(g274
g275
F0.00014130114889517398
tp421
Rp422
sg278
Nsg267
(dp423
g419
F1.0
ssbF47.30461590419582
sg2
(g269
g4
Ntp424
Rp425
(dp426
g266
F0.021139586082365845
sg273
g2
(g274
g275
F0.003706825649047443
tp427
Rp428
sg278
Nsg267
(dp429
g425
F1.0
ssbF-1.6578378502144053
ssbag2
(g262
g4
Ntp430
Rp431
(dp432
g266
F0.0007498580544193796
sg267
(dp433
g2
(g269
g4
Ntp434
Rp435
(dp436
g266
F5.729286591262365e-05
sg273
g2
(g274
g275
F4.2465014094235515e-06
tp437
Rp438
sg278
Nsg267
(dp439
g435
F1.0
ssbF13.08815753017095
sg2
(g269
g4
Ntp440
Rp441
(dp442
g266
F0.07640494834317131
sg273
g2
(g274
g275
F0.005279431305718517
tp443
Rp444
sg278
Nsg267
(dp445
g441
F1.0
ssbF-0.009814260341508342
ssbag2
(g262
g4
Ntp446
Rp447
(dp448
g266
F0.03468464875627557
sg267
(dp449
g2
(g269
g4
Ntp450
Rp451
(dp452
g266
F0.0007902107314837143
sg273
g2
(g274
g275
F0.00013957101224245242
tp453
Rp454
sg278
Nsg267
(dp455
g451
F1.0
ssbF43.892910301472405
sg2
(g269
g4
Ntp456
Rp457
(dp458
g266
F0.022782722611274526
sg273
g2
(g274
g275
F0.0034265373925978686
tp459
Rp460
sg278
Nsg267
(dp461
g457
F1.0
ssbF-1.52241017669728
ssbag2
(g262
g4
Ntp462
Rp463
(dp464
g266
F0.0006818293202262328
sg267
(dp465
g2
(g269
g4
Ntp466
Rp467
(dp468
g266
F5.198495176924792e-05
sg273
g2
(g274
g275
F7.30813711732142e-06
tp469
Rp470
sg278
Nsg267
(dp471
g467
F1.0
ssbF13.11589790931717
sg2
(g269
g4
Ntp472
Rp473
(dp474
g266
F0.07624335039156013
sg273
g2
(g274
g275
F0.004530970960298182
tp475
Rp476
sg278
Nsg267
(dp477
g473
F1.0
ssbF-0.008942803755666393
ssbag2
(g262
g4
Ntp478
Rp479
(dp480
g266
F0.03499767767843252
sg267
(dp481
g2
(g269
g4
Ntp482
Rp483
(dp484
g266
F0.000806295650318546
sg273
g2
(g274
g275
F0.0001423680595846049
tp485
Rp486
sg278
Nsg267
(dp487
g483
F1.0
ssbF43.4055146702154
sg2
(g269
g4
Ntp488
Rp489
(dp490
g266
F0.023038547235247824
sg273
g2
(g274
g275
F0.003271891585358687
tp491
Rp492
sg278
Nsg267
(dp493
g489
F1.0
ssbF-1.519092211894673
ssbag2
(g262
g4
Ntp494
Rp495
(dp496
g266
F0.0007292237882753488
sg267
(dp497
g2
(g269
g4
Ntp498
Rp499
(dp500
g266
F5.4469442242847225e-05
sg273
g2
(g274
g275
F2.1828511920850945e-06
tp501
Rp502
sg278
Nsg267
(dp503
g499
F1.0
ssbF13.387759416080831
sg2
(g269
g4
Ntp504
Rp505
(dp506
g266
F0.07469509788163961
sg273
g2
(g274
g275
F0.00591310239001046
tp507
Rp508
sg278
Nsg267
(dp509
g505
F1.0
ssbF-0.009762672637913436
ssbag2
(g262
g4
Ntp510
Rp511
(dp512
g266
F0.03439025335673358
sg267
(dp513
g2
(g269
g4
Ntp514
Rp515
(dp516
g266
F0.0007559794015419638
sg273
g2
(g274
g275
F6.570809568827383e-05
tp517
Rp518
sg278
Nsg267
(dp519
g515
F1.0
ssbF45.490992593962375
sg2
(g269
g4
Ntp520
Rp521
(dp522
g266
F0.021982373717928532
sg273
g2
(g274
g275
F0.0022129586155798017
tp523
Rp524
sg278
Nsg267
(dp525
g521
F1.0
ssbF-1.5644467607556571
ssbag2
(g262
g4
Ntp526
Rp527
(dp528
g266
F0.000728426404683243
sg267
(dp529
g2
(g269
g4
Ntp530
Rp531
(dp532
g266
F5.290473133795935e-05
sg273
g2
(g274
g275
F2.660263470867687e-06
tp533
Rp534
sg278
Nsg267
(dp535
g531
F1.0
ssbF13.768643867218625
sg2
(g269
g4
Ntp536
Rp537
(dp538
g266
F0.0726287940659771
sg273
g2
(g274
g275
F0.0038020591067025266
tp539
Rp540
sg278
Nsg267
(dp541
g537
F1.0
ssbF-0.010029443749562045
ssbag2
(g262
g4
Ntp542
Rp543
(dp544
g266
F0.03537542283437546
sg267
(dp545
g2
(g269
g4
Ntp546
Rp547
(dp548
g266
F0.00082610242017314
sg273
g2
(g274
g275
F0.00011682182588703198
tp549
Rp550
sg278
Nsg267
(dp551
g547
F1.0
ssbF42.822078679979235
sg2
(g269
g4
Ntp552
Rp553
(dp554
g266
F0.02335243946173808
sg273
g2
(g274
g275
F0.003118983100687713
tp555
Rp556
sg278
Nsg267
(dp557
g553
F1.0
ssbF-1.51484913995116
ssbag2
(g262
g4
Ntp558
Rp559
(dp560
g266
F0.0007323200039316565
sg267
(dp561
g2
(g269
g4
Ntp562
Rp563
(dp564
g266
F5.571928887627353e-05
sg273
g2
(g274
g275
F4.7204931347073545e-06
tp565
Rp566
sg278
Nsg267
(dp567
g563
F1.0
ssbF13.143024950619822
sg2
(g269
g4
Ntp568
Rp569
(dp570
g266
F0.0760859850572558
sg273
g2
(g274
g275
F0.004519398754689489
tp571
Rp572
sg278
Nsg267
(dp573
g569
F1.0
ssbF-0.009624900083511767
ssbag2
(g262
g4
Ntp574
Rp575
(dp576
g266
F0.03478407861225569
sg267
(dp577
g2
(g269
g4
Ntp578
Rp579
(dp580
g266
F0.0007263305750554118
sg273
g2
(g274
g275
F0.00010919246150237454
tp581
Rp582
sg278
Nsg267
(dp583
g579
F1.0
ssbF47.89014782917821
sg2
(g269
g4
Ntp584
Rp585
(dp586
g266
F0.0208811215945073
sg273
g2
(g274
g275
F0.003245862686935463
tp587
Rp588
sg278
Nsg267
(dp589
g585
F1.0
ssbF-1.665814666842681
ssbag2
(g262
g4
Ntp590
Rp591
(dp592
g266
F0.0007340421301297225
sg267
(dp593
g2
(g269
g4
Ntp594
Rp595
(dp596
g266
F5.5074896992149524e-05
sg273
g2
(g274
g275
F4.7361295073563974e-06
tp597
Rp598
sg278
Nsg267
(dp599
g595
F1.0
ssbF13.328070867465339
sg2
(g269
g4
Ntp600
Rp601
(dp602
g266
F0.07502961305833562
sg273
g2
(g274
g275
F0.00343229464804443
tp603
Rp604
sg278
Nsg267
(dp605
g601
F1.0
ssbF-0.009783365530074155
ssbag2
(g262
g4
Ntp606
Rp607
(dp608
g266
F0.03484119260820845
sg267
(dp609
g2
(g269
g4
Ntp610
Rp611
(dp612
g266
F0.0007808073392465603
sg273
g2
(g274
g275
F0.00012232459420712054
tp613
Rp614
sg278
Nsg267
(dp615
g611
F1.0
ssbF44.62200962638036
sg2
(g269
g4
Ntp616
Rp617
(dp618
g266
F0.022410465337016194
sg273
g2
(g274
g275
F0.002571685378618425
tp619
Rp620
sg278
Nsg267
(dp621
g617
F1.0
ssbF-1.5546840319580497
ssbag2
(g262
g4
Ntp622
Rp623
(dp624
g266
F0.0007179105040921021
sg267
(dp625
g2
(g269
g4
Ntp626
Rp627
(dp628
g266
F5.46487950780763e-05
sg273
g2
(g274
g275
F7.539437145993191e-06
tp629
Rp630
sg278
Nsg267
(dp631
g627
F1.0
ssbF13.136803895976646
sg2
(g269
g4
Ntp632
Rp633
(dp634
g266
F0.07612201627720619
sg273
g2
(g274
g275
F0.0026853400603242647
tp635
Rp636
sg278
Nsg267
(dp637
g633
F1.0
ssbF-0.009431049507119687
ssbag2
(g262
g4
Ntp638
Rp639
(dp640
g266
F0.03527022178647534
sg267
(dp641
g2
(g269
g4
Ntp642
Rp643
(dp644
g266
F0.0007949769120489444
sg273
g2
(g274
g275
F7.685794382280698e-05
tp645
Rp646
sg278
Nsg267
(dp647
g643
F1.0
ssbF44.366347313875025
sg2
(g269
g4
Ntp648
Rp649
(dp650
g266
F0.022539606267907984
sg273
g2
(g274
g275
F0.0017267207038063953
tp651
Rp652
sg278
Nsg267
(dp653
g649
F1.0
ssbF-1.5648109096161666
ssbag2
(g262
g4
Ntp654
Rp655
(dp656
g266
F0.0007535517276848462
sg267
(dp657
g2
(g269
g4
Ntp658
Rp659
(dp660
g266
F5.5462899053134754e-05
sg273
g2
(g274
g275
F9.221191334083448e-06
tp661
Rp662
sg278
Nsg267
(dp663
g659
F1.0
ssbF13.586591046438556
sg2
(g269
g4
Ntp664
Rp665
(dp666
g266
F0.0736019798183393
sg273
g2
(g274
g275
F0.005174751223104872
tp667
Rp668
sg278
Nsg267
(dp669
g665
F1.0
ssbF-0.010238199156391237
ssbag2
(g262
g4
Ntp670
Rp671
(dp672
g266
F0.03584496455189949
sg267
(dp673
g2
(g269
g4
Ntp674
Rp675
(dp676
g266
F0.000835929214444439
sg273
g2
(g274
g275
F9.443068784152106e-05
tp677
Rp678
sg278
Nsg267
(dp679
g675
F1.0
ssbF42.88038261196812
sg2
(g269
g4
Ntp680
Rp681
(dp682
g266
F0.023320687435305094
sg273
g2
(g274
g275
F0.002032683898205873
tp683
Rp684
sg278
Nsg267
(dp685
g681
F1.0
ssbF-1.5370457946978848
ssbag2
(g262
g4
Ntp686
Rp687
(dp688
g266
F0.0007378824677630083
sg267
(dp689
g2
(g269
g4
Ntp690
Rp691
(dp692
g266
F5.513345012811774e-05
sg273
g2
(g274
g275
F5.539037768348003e-06
tp693
Rp694
sg278
Nsg267
(dp695
g691
F1.0
ssbF13.383571426209231
sg2
(g269
g4
Ntp696
Rp697
(dp698
g266
F0.0747184714867428
sg273
g2
(g274
g275
F0.005924981998852331
tp699
Rp700
sg278
Nsg267
(dp701
g697
F1.0
ssbF-0.009875502711453751
ssbag2
(g262
g4
Ntp702
Rp703
(dp704
g266
F0.03646764082635846
sg267
(dp705
g2
(g269
g4
Ntp706
Rp707
(dp708
g266
F0.0007534608884088996
sg273
g2
(g274
g275
F0.00013112030272800714
tp709
Rp710
sg278
Nsg267
(dp711
g707
F1.0
ssbF48.40017761687405
sg2
(g269
g4
Ntp712
Rp713
(dp714
g266
F0.020661081203374836
sg273
g2
(g274
g275
F0.0027864454235848766
tp715
Rp716
sg278
Nsg267
(dp717
g713
F1.0
ssbF-1.7650402932641174
ssbag2
(g262
g4
Ntp718
Rp719
(dp720
g266
F0.0007034197698778346
sg267
(dp721
g2
(g269
g4
Ntp722
Rp723
(dp724
g266
F5.3579895351388276e-05
sg273
g2
(g274
g275
F9.80606891903853e-06
tp725
Rp726
sg278
Nsg267
(dp727
g723
F1.0
ssbF13.128427468263219
sg2
(g269
g4
Ntp728
Rp729
(dp730
g266
F0.07617058497047031
sg273
g2
(g274
g275
F0.0008764927482859243
tp731
Rp732
sg278
Nsg267
(dp733
g729
F1.0
ssbF-0.009234795428583556
ssbag2
(g262
g4
Ntp734
Rp735
(dp736
g266
F0.03606979891390491
sg267
(dp737
g2
(g269
g4
Ntp738
Rp739
(dp740
g266
F0.0007337400308254963
sg273
g2
(g274
g275
F7.129097959573133e-05
tp741
Rp742
sg278
Nsg267
(dp743
g739
F1.0
ssbF49.15882655785384
sg2
(g269
g4
Ntp744
Rp745
(dp746
g266
F0.020342226819086578
sg273
g2
(g274
g275
F0.001820824838799367
tp747
Rp748
sg278
Nsg267
(dp749
g745
F1.0
ssbF-1.7731489887853165
ssbag2
(g262
g4
Ntp750
Rp751
(dp752
g266
F0.0006994954342583137
sg267
(dp753
g2
(g269
g4
Ntp754
Rp755
(dp756
g266
F5.469685005272044e-05
sg273
g2
(g274
g275
F8.617900747825781e-06
tp757
Rp758
sg278
Nsg267
(dp759
g755
F1.0
ssbF12.788587159664475
sg2
(g269
g4
Ntp760
Rp761
(dp762
g266
F0.07819472061417583
sg273
g2
(g274
g275
F0.006598616193035442
tp763
Rp764
sg278
Nsg267
(dp765
g761
F1.0
ssbF-0.008945558328799796
ssbag2
(g262
g4
Ntp766
Rp767
(dp768
g266
F0.035467173424163466
sg267
(dp769
g2
(g269
g4
Ntp770
Rp771
(dp772
g266
F0.0008055048419712814
sg273
g2
(g274
g275
F4.4498527960976044e-05
tp773
Rp774
sg278
Nsg267
(dp775
g771
F1.0
ssbF44.03098724691213
sg2
(g269
g4
Ntp776
Rp777
(dp778
g266
F0.022711278182165433
sg273
g2
(g274
g275
F0.0011437381869210557
tp779
Rp780
sg278
Nsg267
(dp781
g777
F1.0
ssbF-1.5616546607233626
ssbag2
(g262
g4
Ntp782
Rp783
(dp784
g266
F0.0007599407686471613
sg267
(dp785
g2
(g269
g4
Ntp786
Rp787
(dp788
g266
F5.6838421174689404e-05
sg273
g2
(g274
g275
F8.958663655214364e-06
tp789
Rp790
sg278
Nsg267
(dp791
g787
F1.0
ssbF13.370194895307348
sg2
(g269
g4
Ntp792
Rp793
(dp794
g266
F0.07479322536659347
sg273
g2
(g274
g275
F0.0029670631465311455
tp795
Rp796
sg278
Nsg267
(dp797
g793
F1.0
ssbF-0.010160556185702219
ssbag2
(g262
g4
Ntp798
Rp799
(dp800
g266
F0.03415348702267266
sg267
(dp801
g2
(g269
g4
Ntp802
Rp803
(dp804
g266
F0.0007404834804927055
sg273
g2
(g274
g275
F7.353951607709584e-05
tp805
Rp806
sg278
Nsg267
(dp807
g803
F1.0
ssbF46.12322613861351
sg2
(g269
g4
Ntp808
Rp809
(dp810
g266
F0.021681050605495668
sg273
g2
(g274
g275
F0.0027879588035477423
tp811
Rp812
sg278
Nsg267
(dp813
g809
F1.0
ssbF-1.5752690053689329
ssbag2
(g262
g4
Ntp814
Rp815
(dp816
g266
F0.0007227928306665631
sg267
(dp817
g2
(g269
g4
Ntp818
Rp819
(dp820
g266
F5.6215488315102183e-05
sg273
g2
(g274
g275
F5.330626789851911e-06
tp821
Rp822
sg278
Nsg267
(dp823
g819
F1.0
ssbF12.85753895110053
sg2
(g269
g4
Ntp824
Rp825
(dp826
g266
F0.07777538172765215
sg273
g2
(g274
g275
F0.005302488420264051
tp827
Rp828
sg278
Nsg267
(dp829
g825
F1.0
ssbF-0.009293336973871543
ssbag2
(g262
g4
Ntp830
Rp831
(dp832
g266
F0.03594031286611393
sg267
(dp833
g2
(g269
g4
Ntp834
Rp835
(dp836
g266
F0.0007571367896948313
sg273
g2
(g274
g275
F0.00012844301982037955
tp837
Rp838
sg278
Nsg267
(dp839
g835
F1.0
ssbF47.46871814352054
sg2
(g269
g4
Ntp840
Rp841
(dp842
g266
F0.021066505250395086
sg273
g2
(g274
g275
F0.002609250835234639
tp843
Rp844
sg278
Nsg267
(dp845
g841
F1.0
ssbF-1.7060405814315074
ssbag2
(g262
g4
Ntp846
Rp847
(dp848
g266
F0.0006834862810382063
sg267
(dp849
g2
(g269
g4
Ntp850
Rp851
(dp852
g266
F5.246342693502196e-05
sg273
g2
(g274
g275
F4.523856554343856e-06
tp853
Rp854
sg278
Nsg267
(dp855
g851
F1.0
ssbF13.027861902439794
sg2
(g269
g4
Ntp856
Rp857
(dp858
g266
F0.07675856617828632
sg273
g2
(g274
g275
F0.006330406383585954
tp859
Rp860
sg278
Nsg267
(dp861
g857
F1.0
ssbF-0.008904364881577906
ssbag2
(g262
g4
Ntp862
Rp863
(dp864
g266
F0.0358569216837382
sg267
(dp865
g2
(g269
g4
Ntp866
Rp867
(dp868
g266
F0.0007159570431373098
sg273
g2
(g274
g275
F0.00012892017407291508
tp869
Rp870
sg278
Nsg267
(dp871
g867
F1.0
ssbF50.082504289103525
sg2
(g269
g4
Ntp872
Rp873
(dp874
g266
F0.019967052650311866
sg273
g2
(g274
g275
F0.0034445618411113785
tp875
Rp876
sg278
Nsg267
(dp877
g873
F1.0
ssbF-1.7958044340198676
ssbag2
(g262
g4
Ntp878
Rp879
(dp880
g266
F0.0007015701545173062
sg267
(dp881
g2
(g269
g4
Ntp882
Rp883
(dp884
g266
F5.387689930442711e-05
sg273
g2
(g274
g275
F5.262986458626635e-06
tp885
Rp886
sg278
Nsg267
(dp887
g883
F1.0
ssbF13.021724775829064
sg2
(g269
g4
Ntp888
Rp889
(dp890
g266
F0.07679474241816267
sg273
g2
(g274
g275
F0.0032602549805668527
tp891
Rp892
sg278
Nsg267
(dp893
g889
F1.0
ssbF-0.00913565346306023
ssbag2
(g262
g4
Ntp894
Rp895
(dp896
g266
F0.03502614614334263
sg267
(dp897
g2
(g269
g4
Ntp898
Rp899
(dp900
g266
F0.0007245422260735394
sg273
g2
(g274
g275
F0.00012839048712463884
tp901
Rp902
sg278
Nsg267
(dp903
g899
F1.0
ssbF48.34244973292633
sg2
(g269
g4
Ntp904
Rp905
(dp906
g266
F0.020685753525620236
sg273
g2
(g274
g275
F0.0025277300784855303
tp907
Rp908
sg278
Nsg267
(dp909
g905
F1.0
ssbF-1.6932497092726728
ssbag2
(g262
g4
Ntp910
Rp911
(dp912
g266
F0.0006626854853002958
sg267
(dp913
g2
(g269
g4
Ntp914
Rp915
(dp916
g266
F5.018155056627728e-05
sg273
g2
(g274
g275
F5.427113127131997e-06
tp917
Rp918
sg278
Nsg267
(dp919
g915
F1.0
ssbF13.205759443902675
sg2
(g269
g4
Ntp920
Rp921
(dp922
g266
F0.07572453551406444
sg273
g2
(g274
g275
F0.004348025373421695
tp923
Rp924
sg278
Nsg267
(dp925
g921
F1.0
ssbF-0.00875126510584161
ssbag2
(g262
g4
Ntp926
Rp927
(dp928
g266
F0.03610801545723979
sg267
(dp929
g2
(g269
g4
Ntp930
Rp931
(dp932
g266
F0.0008128550933973747
sg273
g2
(g274
g275
F0.00013629529485252684
tp933
Rp934
sg278
Nsg267
(dp935
g931
F1.0
ssbF44.42122064625843
sg2
(g269
g4
Ntp936
Rp937
(dp938
g266
F0.022511763194517916
sg273
g2
(g274
g275
F0.0020064823676561147
tp939
Rp940
sg278
Nsg267
(dp941
g937
F1.0
ssbF-1.6039621217245588
ssbag2
(g262
g4
Ntp942
Rp943
(dp944
g266
F0.0007444114507114556
sg267
(dp945
g2
(g269
g4
Ntp946
Rp947
(dp948
g266
F5.7391919291715905e-05
sg273
g2
(g274
g275
F1.5982938347439904e-05
tp949
Rp950
sg278
Nsg267
(dp951
g947
F1.0
ssbF12.97066660077538
sg2
(g269
g4
Ntp952
Rp953
(dp954
g266
F0.07709703986533896
sg273
g2
(g274
g275
F0.0028056794225661975
tp955
Rp956
sg278
Nsg267
(dp957
g953
F1.0
ssbF-0.009655512740977826
ssbag2
(g262
g4
Ntp958
Rp959
(dp960
g266
F0.035335304550696646
sg267
(dp961
g2
(g269
g4
Ntp962
Rp963
(dp964
g266
F0.0007436783113867499
sg273
g2
(g274
g275
F8.28452914718208e-05
tp965
Rp966
sg278
Nsg267
(dp967
g963
F1.0
ssbF47.5142329817395
sg2
(g269
g4
Ntp968
Rp969
(dp970
g266
F0.021046325221840717
sg273
g2
(g274
g275
F0.0029158379126326853
tp971
Rp972
sg278
Nsg267
(dp973
g969
F1.0
ssbF-1.6789298929025205
ssbag2
(g262
g4
Ntp974
Rp975
(dp976
g266
F0.0006859786817498283
sg267
(dp977
g2
(g269
g4
Ntp978
Rp979
(dp980
g266
F5.166422884383827e-05
sg273
g2
(g274
g275
F4.883228363660377e-06
tp981
Rp982
sg278
Nsg267
(dp983
g979
F1.0
ssbF13.277633230978566
sg2
(g269
g4
Ntp984
Rp985
(dp986
g266
F0.07531462743426749
sg273
g2
(g274
g275
F0.004843338070689532
tp987
Rp988
sg278
Nsg267
(dp989
g985
F1.0
ssbF-0.00910817334054439
ssbag2
(g262
g4
Ntp990
Rp991
(dp992
g266
F0.0355897926413596
sg267
(dp993
g2
(g269
g4
Ntp994
Rp995
(dp996
g266
F0.0006941764596787926
sg273
g2
(g274
g275
F9.795103746317487e-05
tp997
Rp998
sg278
Nsg267
(dp999
g995
F1.0
ssbF51.26908604453053
sg2
(g269
g4
Ntp1000
Rp1001
(dp1002
g266
F0.019504931278303557
sg273
g2
(g274
g275
F0.002478104720889961
tp1003
Rp1004
sg278
Nsg267
(dp1005
g1001
F1.0
ssbF-1.824656141236865
ssbag2
(g262
g4
Ntp1006
Rp1007
(dp1008
g266
F0.0007374404648578558
sg267
(dp1009
g2
(g269
g4
Ntp1010
Rp1011
(dp1012
g266
F5.485216412696235e-05
sg273
g2
(g274
g275
F6.427583457842889e-06
tp1013
Rp1014
sg278
Nsg267
(dp1015
g1011
F1.0
ssbF13.444145305752304
sg2
(g269
g4
Ntp1016
Rp1017
(dp1018
g266
F0.07438182028366899
sg273
g2
(g274
g275
F0.004762731106028502
tp1019
Rp1020
sg278
Nsg267
(dp1021
g1017
F1.0
ssbF-0.009914256763890539
ssbag2
(g262
g4
Ntp1022
Rp1023
(dp1024
g266
F0.03569569485718593
sg267
(dp1025
g2
(g269
g4
Ntp1026
Rp1027
(dp1028
g266
F0.0008095926408821588
sg273
g2
(g274
g275
F9.175809078120056e-05
tp1029
Rp1030
sg278
Nsg267
(dp1031
g1027
F1.0
ssbF44.09093296388012
sg2
(g269
g4
Ntp1032
Rp1033
(dp1034
g266
F0.022680400090857984
sg273
g2
(g274
g275
F0.0012775973236948991
tp1035
Rp1036
sg278
Nsg267
(dp1037
g1033
F1.0
ssbF-1.5738564890473057
ssbatp1038
bsS'# groups'
p1039
I2
sS'xs type'
p1040
g135
s.