(dp0
S'domain'
p1
ccopy_reg
_reconstructor
p2
(copenmc.universe
Cell
p3
c__builtin__
object
p4
Ntp5
Rp6
(dp7
S'_type'
p8
S'normal'
p9
sS'_rotation'
p10
NsS'_fill'
p11
g2
(copenmc.material
Material
p12
g4
Ntp13
Rp14
(dp15
S'_density_units'
p16
S'g/cm3'
p17
sS'_density'
p18
F0.043439030625154515
sS'_sab'
p19
NsS'_name'
p20
S''
p21
sS'_nuclides'
p22
(dp23
sS'_elements'
p24
(dp25
sS'_id'
p26
I10005
sbsg20
g21
sS'_translation'
p27
NsS'_offset'
p28
Nsg26
I10016
sS'_surfaces'
p29
(dp30
I10005
(g2
(copenmc.surface
ZCylinder
p31
g4
Ntp32
Rp33
(dp34
g8
S'z-cylinder'
p35
sS'_R'
p36
NsS'_coeffs'
p37
(dp38
S'y0'
p39
F0.0
sS'x0'
p40
F0.0
sS'R'
p41
F0.43688
ssg20
g21
sS'_bc_type'
p42
S'transmission'
p43
sg26
I10005
sS'_x0'
p44
NsS'_coeff_keys'
p45
(lp46
g40
ag39
ag41
asS'_y0'
p47
Nsbcnumpy.core.multiarray
scalar
p48
(cnumpy
dtype
p49
(S'i8'
p50
I0
I1
tp51
Rp52
(I3
S'<'
p53
NNNI-1
I-1
I0
tp54
bS'\x01\x00\x00\x00\x00\x00\x00\x00'
p55
tp56
Rp57
tp58
sI10006
(g2
(g31
g4
Ntp59
Rp60
(dp61
g8
g35
sg36
Nsg37
(dp62
g39
F0.0
sg40
F0.0
sg41
F0.48387
ssg20
g21
sg42
g43
sg26
I10006
sg44
Nsg45
(lp63
g40
ag39
ag41
asg47
Nsbg48
(g52
S'\xff\xff\xff\xff\xff\xff\xff\xff'
p64
tp65
Rp66
tp67
ssbsS'group bounds'
p68
cnumpy.core.multiarray
_reconstruct
p69
(cnumpy
ndarray
p70
(I0
tp71
S'b'
p72
tp73
Rp74
(I1
(I3
tp75
g49
(S'f8'
p76
I0
I1
tp77
Rp78
(I3
S'<'
p79
NNNI-1
I-1
I0
tp80
bI00
S'\x00\x00\x00\x00\x00\x00\x00\x00\xf1h\xe3\x88\xb5\xf8\xa4>\x00\x00\x00\x00\x00\x00$@'
p81
tp82
bsS'tallies'
p83
(dp84
S'nu-scatter'
p85
g2
(copenmc.tallies
Tally
p86
g4
Ntp87
Rp88
(dp89
S'_num_tot_score_bins'
p90
I1
sS'_label'
p91
S'2 groups'
p92
sS'_filters'
p93
(lp94
g2
(copenmc.tallies
Filter
p95
g4
Ntp96
Rp97
(dp98
S'_mesh'
p99
Nsg8
S'distribcell'
p100
sg28
I9
sS'_stride'
p101
I1
sS'_bin_edges'
p102
(lp103
I10016
asbag2
(g95
g4
Ntp104
Rp105
(dp106
g99
Nsg8
S'energy'
p107
sg28
I0
sg101
I1
sg102
(lp108
F0.0
aF6.25e-07
aF10.0
asbag2
(g95
g4
Ntp109
Rp110
(dp111
g99
Nsg8
S'energyout'
p112
sg28
I0
sg101
I2
sg102
(lp113
F0.0
aF6.25e-07
aF10.0
asbasS'_sum_sq'
p114
g69
(g70
(I0
tp115
g72
tp116
Rp117
(I1
(I4
I1
tp118
g78
I00
S"\x05\xa2'eRC\xcb>\x00\x00\x00\x00\x00\x00\x00\x00\x00\x00\x00\x00\x00\x00\x00\x00\xc2\x8a2\x9f\x9c6\r?"
p119
tp120
bsS'_std_dev'
p121
g69
(g70
(I0
tp122
g72
tp123
Rp124
(I1
(I4
I1
tp125
g78
I00
S'\x9c\xd5S\x8c\xf6\x1c=?\x00\x00\x00\x00\x00\x00\x00\x00\x00\x00\x00\x00\x00\x00\x00\x00\xc5\xd9\xfd\x9f\xad\xb9??'
p126
tp127
bsS'_num_tot_filter_bins'
p128
I4
sS'_mean'
p129
g69
(g70
(I0
tp130
g72
tp131
Rp132
(I1
(I4
I1
tp133
g78
I00
S'V\xf1F\xe6\x91?H?\x00\x00\x00\x00\x00\x00\x00\x00\x00\x00\x00\x00\x00\x00\x00\x00\x18\xec\x86m\x8b2k?'
p134
tp135
bsS'_num_realizations'
p136
I5
sg22
(lp137
sS'_sum'
p138
g69
(g70
(I0
tp139
g72
tp140
Rp141
(I1
(I4
I1
tp142
g78
I00
S'\xac\xad\xd8_vOn?\x00\x00\x00\x00\x00\x00\x00\x00\x00\x00\x00\x00\x00\x00\x00\x00\x8fSt$\x97\xff\x90?'
p143
tp144
bsS'_estimator'
p145
S'analog'
p146
sS'_scores'
p147
(lp148
S'nu-scatter'
p149
asg26
I10164
sbsS'flux'
p150
g2
(g86
g4
Ntp151
Rp152
(dp153
g90
I1
sg91
S'2 groups'
p154
sg93
(lp155
g2
(g95
g4
Ntp156
Rp157
(dp158
g99
Nsg8
g100
sg28
I9
sg101
I1
sg102
(lp159
I10016
asbag2
(g95
g4
Ntp160
Rp161
(dp162
g99
Nsg8
g107
sg28
I0
sg101
I1
sg102
(lp163
F0.0
aF6.25e-07
aF10.0
asbasg114
g69
(g70
(I0
tp164
g72
tp165
Rp166
(I1
(I2
I1
tp167
g78
I00
S'\x0c\xf0\x1cq\xd1\xda\x03?\x86\x8f;szWA?'
p168
tp169
bsg121
g69
(g70
(I0
tp170
g72
tp171
Rp172
(I1
(I2
I1
tp173
g78
I00
S'\x0b\x8e\x11\xea\xc6\x97X?X\x0b\x0c\x1f\xc4d\\?'
p174
tp175
bsg128
I2
sg129
g69
(g70
(I0
tp176
g72
tp177
Rp178
(I1
(I2
I1
tp179
g78
I00
S'\xbc\xf8h\x07p\xbbd?\x1a\x01>\xeb\x14\xea\x84?'
p180
tp181
bsg136
I5
sg22
(lp182
sg138
g69
(g70
(I0
tp183
g72
tp184
Rp185
(I1
(I2
I1
tp186
g78
I00
S'\xeb6C\tL\xea\x89?`\x81\r&\x9a$\xaa?'
p187
tp188
bsg145
g146
sg147
(lp189
g150
asg26
I10154
sbssS'subdomain offsets'
p190
(dp191
I564
g48
(g52
S'\x00\x00\x00\x00\x00\x00\x00\x00'
p192
tp193
Rp194
ssS'offset'
p195
I9
sS'domain type'
p196
g100
sS'xs'
p197
g69
(g70
(I0
tp198
g72
tp199
Rp200
(I1
(I1
I2
I2
tp201
g49
(S'O8'
p202
I0
I1
tp203
Rp204
(I3
S'|'
p205
NNNI-1
I-1
I63
tp206
bI00
(lp207
g2
(cuncertainties
AffineScalarFunc
p208
g4
Ntp209
Rp210
(dp211
S'_nominal_value'
p212
F0.32510451890981634
sS'derivatives'
p213
(dp214
g2
(cuncertainties
Variable
p215
g4
Ntp216
Rp217
(dp218
g212
F0.00332
sS'_std_dev'
p219
g2
(cuncertainties
CallableStdDev
p220
c__builtin__
float
p221
F0.0004840897454338157
tp222
Rp223
sS'tag'
p224
Nsg213
(dp225
g217
F1.0
ssbF97.92304786440252
sg2
(g215
g4
Ntp226
Rp227
(dp228
g212
F0.010212100438139294
sg219
g2
(g220
g221
F0.0017330088850832839
tp229
Rp230
sg224
Nsg213
(dp231
g227
F1.0
ssbF-31.8352253661395
ssbag2
(g208
g4
Ntp232
Rp233
(dp234
g212
F0.0
sg213
(dp235
g2
(g215
g4
Ntp236
Rp237
(dp238
g212
F0.0
sg219
g2
(g220
g221
F0.0
tp239
Rp240
sg224
Nsg213
(dp241
g237
F1.0
ssbF97.92304786440252
sg227
F0.0
ssbag2
(g208
g4
Ntp242
Rp243
(dp244
g212
F0.0
sg213
(dp245
g2
(g215
g4
Ntp246
Rp247
(dp248
g212
F0.0
sg219
g2
(g220
g221
F0.0
tp249
Rp250
sg224
Nsg213
(dp251
g247
F1.0
ssbF395.1345551073941
sg2
(g215
g4
Ntp252
Rp253
(dp254
g212
F0.0025307834687558744
sg219
g2
(g220
g221
F0.0015010302088506202
tp255
Rp256
sg224
Nsg213
(dp257
g253
F1.0
ssbF0.0
ssbag2
(g208
g4
Ntp258
Rp259
(dp260
g212
F0.2923995707794716
sg213
(dp261
g2
(g215
g4
Ntp262
Rp263
(dp264
g212
F0.00074
sg219
g2
(g220
g221
F0.0004442312168316477
tp265
Rp266
sg224
Nsg213
(dp267
g263
F1.0
ssbF395.1345551073941
sg253
F-115.53717431353951
ssbatp268
bsS'# groups'
p269
I2
sS'xs type'
p270
S'scatter matrix'
p271
s.