(dp0
S'domain'
p1
ccopy_reg
_reconstructor
p2
(copenmc.universe
Cell
p3
c__builtin__
object
p4
Ntp5
Rp6
(dp7
S'_type'
p8
S'normal'
p9
sS'_rotation'
p10
NsS'_fill'
p11
g2
(copenmc.material
Material
p12
g4
Ntp13
Rp14
(dp15
S'_density_units'
p16
S'g/cm3'
p17
sS'_density'
p18
F0.043439030625154515
sS'_sab'
p19
NsS'_name'
p20
S''
p21
sS'_nuclides'
p22
(dp23
sS'_elements'
p24
(dp25
sS'_id'
p26
I10005
sbsg20
g21
sS'_translation'
p27
NsS'_offset'
p28
Nsg26
I10016
sS'_surfaces'
p29
(dp30
I10005
(g2
(copenmc.surface
ZCylinder
p31
g4
Ntp32
Rp33
(dp34
g8
S'z-cylinder'
p35
sS'_R'
p36
NsS'_coeffs'
p37
(dp38
S'y0'
p39
F0.0
sS'x0'
p40
F0.0
sS'R'
p41
F0.43688
ssg20
g21
sS'_bc_type'
p42
S'transmission'
p43
sg26
I10005
sS'_x0'
p44
NsS'_coeff_keys'
p45
(lp46
g40
ag39
ag41
asS'_y0'
p47
Nsbcnumpy.core.multiarray
scalar
p48
(cnumpy
dtype
p49
(S'i8'
p50
I0
I1
tp51
Rp52
(I3
S'<'
p53
NNNI-1
I-1
I0
tp54
bS'\x01\x00\x00\x00\x00\x00\x00\x00'
p55
tp56
Rp57
tp58
sI10006
(g2
(g31
g4
Ntp59
Rp60
(dp61
g8
g35
sg36
Nsg37
(dp62
g39
F0.0
sg40
F0.0
sg41
F0.48387
ssg20
g21
sg42
g43
sg26
I10006
sg44
Nsg45
(lp63
g40
ag39
ag41
asg47
Nsbg48
(g52
S'\xff\xff\xff\xff\xff\xff\xff\xff'
p64
tp65
Rp66
tp67
ssbsS'group bounds'
p68
cnumpy.core.multiarray
_reconstruct
p69
(cnumpy
ndarray
p70
(I0
tp71
S'b'
p72
tp73
Rp74
(I1
(I3
tp75
g49
(S'f8'
p76
I0
I1
tp77
Rp78
(I3
S'<'
p79
NNNI-1
I-1
I0
tp80
bI00
S'\x00\x00\x00\x00\x00\x00\x00\x00\xf1h\xe3\x88\xb5\xf8\xa4>\x00\x00\x00\x00\x00\x00$@'
p81
tp82
bsS'tallies'
p83
(dp84
S'flux'
p85
g2
(copenmc.tallies
Tally
p86
g4
Ntp87
Rp88
(dp89
S'_num_tot_score_bins'
p90
I1
sS'_label'
p91
S'2 groups'
p92
sS'_filters'
p93
(lp94
g2
(copenmc.tallies
Filter
p95
g4
Ntp96
Rp97
(dp98
S'_mesh'
p99
Nsg8
S'distribcell'
p100
sg28
I9
sS'_stride'
p101
I1
sS'_bin_edges'
p102
(lp103
I10016
asbag2
(g95
g4
Ntp104
Rp105
(dp106
g99
Nsg8
S'energy'
p107
sg28
I0
sg101
I1
sg102
(lp108
F0.0
aF6.25e-07
aF10.0
asbasS'_sum_sq'
p109
g69
(g70
(I0
tp110
g72
tp111
Rp112
(I1
(I2
I1
tp113
g78
I00
S'\x0c\xf0\x1cq\xd1\xda\x03?\x86\x8f;szWA?'
p114
tp115
bsS'_std_dev'
p116
g69
(g70
(I0
tp117
g72
tp118
Rp119
(I1
(I2
I1
tp120
g78
I00
S'\x0b\x8e\x11\xea\xc6\x97X?X\x0b\x0c\x1f\xc4d\\?'
p121
tp122
bsS'_num_tot_filter_bins'
p123
I2
sS'_mean'
p124
g69
(g70
(I0
tp125
g72
tp126
Rp127
(I1
(I2
I1
tp128
g78
I00
S'\xbc\xf8h\x07p\xbbd?\x1a\x01>\xeb\x14\xea\x84?'
p129
tp130
bsS'_num_realizations'
p131
I5
sg22
(lp132
sS'_sum'
p133
g69
(g70
(I0
tp134
g72
tp135
Rp136
(I1
(I2
I1
tp137
g78
I00
S'\xeb6C\tL\xea\x89?`\x81\r&\x9a$\xaa?'
p138
tp139
bsS'_estimator'
p140
S'analog'
p141
sS'_scores'
p142
(lp143
g85
asg26
I10154
sbsS'total'
p144
g2
(g86
g4
Ntp145
Rp146
(dp147
g90
I1
sg91
S'2 groups'
p148
sg93
(lp149
g2
(g95
g4
Ntp150
Rp151
(dp152
g99
Nsg8
g100
sg28
I9
sg101
I1
sg102
(lp153
I10016
asbag2
(g95
g4
Ntp154
Rp155
(dp156
g99
Nsg8
g107
sg28
I0
sg101
I1
sg102
(lp157
F0.0
aF6.25e-07
aF10.0
asbasg109
g69
(g70
(I0
tp158
g72
tp159
Rp160
(I1
(I2
I1
tp161
g78
I00
S'<zh\xc4q\x85\xcc>\xb0?&\xa5\xe2\xf7\r?'
p162
tp163
bsg116
g69
(g70
(I0
tp164
g72
tp165
Rp166
(I1
(I2
I1
tp167
g78
I00
S'\x98\xd5S\x8c\xf6\x1c=?q\xc2\x1a\xcfq*A?'
p168
tp169
bsg123
I2
sg124
g69
(g70
(I0
tp170
g72
tp171
Rp172
(I1
(I2
I1
tp173
g78
I00
S'\x9e\x0c\x8e\x92W\xe7H?\xbby\xaaCn\x86k?'
p174
tp175
bsg131
I5
sg22
(lp176
sg133
g69
(g70
(I0
tp177
g72
tp178
Rp179
(I1
(I2
I1
tp180
g78
I00
S'\xc5\x8f1w-!o?\x15\x8cJ\xea\x044\x91?'
p181
tp182
bsg140
g141
sg142
(lp183
g144
asg26
I10155
sbsS'scatter-1'
p184
g2
(g86
g4
Ntp185
Rp186
(dp187
g90
I1
sg91
S'2 groups'
p188
sg93
(lp189
g2
(g95
g4
Ntp190
Rp191
(dp192
g99
Nsg8
g100
sg28
I9
sg101
I1
sg102
(lp193
I10016
asbag2
(g95
g4
Ntp194
Rp195
(dp196
g99
Nsg8
g107
sg28
I0
sg101
I1
sg102
(lp197
F0.0
aF6.25e-07
aF10.0
asbasg109
g69
(g70
(I0
tp198
g72
tp199
Rp200
(I1
(I2
I1
tp201
g78
I00
S'A4\xc0q=\xbdv>\xa9\xb9\xb7_\xd7\x95\xa6>'
p202
tp203
bsg116
g69
(g70
(I0
tp204
g72
tp205
Rp206
(I1
(I2
I1
tp207
g78
I00
S'k\x1bZP\x05G$?\xeb\xd5\xf2\xbf\x89Z6?'
p208
tp209
bsg123
I2
sg124
g69
(g70
(I0
tp210
g72
tp211
Rp212
(I1
(I2
I1
tp213
g78
I00
S'\xb0\xc2\xe2\x92K\xa1\x11?\xca5\xc4C\x93\xdb1?'
p214
tp215
bsg131
I5
sg22
(lp216
sg133
g69
(g70
(I0
tp217
g72
tp218
Rp219
(I1
(I2
I1
tp220
g78
I00
S'\\s\x9bw\x9e\t6?<C\xb5\x14xRV?'
p221
tp222
bsg140
g141
sg142
(lp223
S'scatter-1'
p224
asg26
I10156
sbssS'subdomain offsets'
p225
(dp226
I564
g48
(g52
S'\x00\x00\x00\x00\x00\x00\x00\x00'
p227
tp228
Rp229
ssS'offset'
p230
I9
sS'domain type'
p231
g100
sS'xs'
p232
g69
(g70
(I0
tp233
g72
tp234
Rp235
(I1
(I1
I2
tp236
g49
(S'O8'
p237
I0
I1
tp238
Rp239
(I3
S'|'
p240
NNNI-1
I-1
I63
tp241
bI00
(lp242
g2
(cuncertainties
AffineScalarFunc
p243
g4
Ntp244
Rp245
(dp246
S'_nominal_value'
p247
F0.30233867162752
sS'derivatives'
p248
(dp249
g2
(cuncertainties
Variable
p250
g4
Ntp251
Rp252
(dp253
g247
F0.0033599999999999997
sS'_std_dev'
p254
g2
(cuncertainties
CallableStdDev
p255
c__builtin__
float
p256
F0.0005238586147325431
tp257
Rp258
sS'tag'
p259
Nsg248
(dp260
g252
F1.0
ssbF97.92304786440252
sg2
(g250
g4
Ntp261
Rp262
(dp263
g247
F0.00027248711900615104
sg254
g2
(g255
g256
F0.0003410898497791792
tp264
Rp265
sg259
Nsg248
(dp266
g262
F1.0
ssbF-97.92304786440252
sg2
(g250
g4
Ntp267
Rp268
(dp269
g247
F0.010212100438139294
sg254
g2
(g255
g256
F0.0017330088850832839
tp270
Rp271
sg259
Nsg248
(dp272
g268
F1.0
ssbF-29.60592421304151
ssbag2
(g243
g4
Ntp273
Rp274
(dp275
g247
F0.27372814352236496
sg248
(dp276
g2
(g250
g4
Ntp277
Rp278
(dp279
g247
F0.00076
sg254
g2
(g255
g256
F0.0004442312168316475
tp280
Rp281
sg259
Nsg248
(dp282
g278
F1.0
ssbF395.1345551073941
sg2
(g250
g4
Ntp283
Rp284
(dp285
g247
F6.725333944036338e-05
sg254
g2
(g255
g256
F0.00015470447413098594
tp286
Rp287
sg259
Nsg248
(dp288
g284
F1.0
ssbF-395.1345551073941
sg2
(g250
g4
Ntp289
Rp290
(dp291
g247
F0.0025307834687558744
sg254
g2
(g255
g256
F0.0015010302088506202
tp292
Rp293
sg259
Nsg248
(dp294
g290
F1.0
ssbF-108.1594482110826
ssbatp295
bsS'# groups'
p296
I2
sS'xs type'
p297
S'transport'
p298
s.