(dp0
S'domain'
p1
ccopy_reg
_reconstructor
p2
(copenmc.universe
Cell
p3
c__builtin__
object
p4
Ntp5
Rp6
(dp7
S'_type'
p8
S'normal'
p9
sS'_rotation'
p10
NsS'_fill'
p11
g2
(copenmc.material
Material
p12
g4
Ntp13
Rp14
(dp15
S'_density_units'
p16
S'g/cm3'
p17
sS'_density'
p18
F0.07425478275227912
sS'_sab'
p19
NsS'_name'
p20
S''
p21
sS'_nuclides'
p22
(dp23
sS'_elements'
p24
(dp25
sS'_id'
p26
I10003
sbsg20
g21
sS'_translation'
p27
NsS'_offset'
p28
Nsg26
I10012
sS'_surfaces'
p29
(dp30
I10003
(g2
(copenmc.surface
ZCylinder
p31
g4
Ntp32
Rp33
(dp34
g8
S'z-cylinder'
p35
sS'_R'
p36
NsS'_coeffs'
p37
(dp38
S'y0'
p39
F0.0
sS'x0'
p40
F0.0
sS'R'
p41
F0.56134
ssg20
g21
sS'_bc_type'
p42
S'transmission'
p43
sg26
I10003
sS'_x0'
p44
NsS'_coeff_keys'
p45
(lp46
g40
ag39
ag41
asS'_y0'
p47
Nsbcnumpy.core.multiarray
scalar
p48
(cnumpy
dtype
p49
(S'i8'
p50
I0
I1
tp51
Rp52
(I3
S'<'
p53
NNNI-1
I-1
I0
tp54
bS'\xff\xff\xff\xff\xff\xff\xff\xff'
p55
tp56
Rp57
tp58
ssbsS'group bounds'
p59
cnumpy.core.multiarray
_reconstruct
p60
(cnumpy
ndarray
p61
(I0
tp62
S'b'
p63
tp64
Rp65
(I1
(I3
tp66
g49
(S'f8'
p67
I0
I1
tp68
Rp69
(I3
S'<'
p70
NNNI-1
I-1
I0
tp71
bI00
S'\x00\x00\x00\x00\x00\x00\x00\x00\xf1h\xe3\x88\xb5\xf8\xa4>\x00\x00\x00\x00\x00\x00$@'
p72
tp73
bsS'tallies'
p74
(dp75
S'nu-scatter'
p76
g2
(copenmc.tallies
Tally
p77
g4
Ntp78
Rp79
(dp80
S'_num_tot_score_bins'
p81
I1
sS'_label'
p82
S'2 groups'
p83
sS'_filters'
p84
(lp85
g2
(copenmc.tallies
Filter
p86
g4
Ntp87
Rp88
(dp89
S'_mesh'
p90
Nsg8
S'distribcell'
p91
sg28
I5
sS'_stride'
p92
I1
sS'_bin_edges'
p93
(lp94
I10012
asbag2
(g86
g4
Ntp95
Rp96
(dp97
g90
Nsg8
S'energy'
p98
sg28
I0
sg92
I24
sg93
(lp99
F0.0
aF6.25e-07
aF10.0
asbag2
(g86
g4
Ntp100
Rp101
(dp102
g90
Nsg8
S'energyout'
p103
sg28
I0
sg92
I48
sg93
(lp104
F0.0
aF6.25e-07
aF10.0
asbasS'_sum_sq'
p105
g60
(g61
(I0
tp106
g63
tp107
Rp108
(I1
(I96
I1
tp109
g69
I00
S'b\xe92\xeb{\xc3s?:\x8c0\xe2\x8eyE>\xed2O\xf0Eb\xff>\x84\n\xf5\x91\xe7<\x8b?\x81\xa1\xfd\xfe\x83\xfex?\x00\x00\x00\x00\x00\x00\x00\x00T\x01\xb5 \xad\x94\x02?40\xd1\xa4=\xf3\x8c?\x88\xf1?\x9e\x02\x05s?\x00\x00\x00\x00\x00\x00\x00\x00N\xf0,\xc5~\xe4\x00?\xddyEd\x16\xa9\x89?\x04\x11\x98=\xbf\xdes?\x00\x00\x00\x00\x00\x00\x00\x00\xbb\x9d\xd8\x9e\xb4\xcb\x02?\x1ecY\xf6E\xbe\x8a?\xdf\xf4W]\xc1\x15t?\x00\x00\x00\x00\x00\x00\x00\x00\r\xd8Y\x1d\xce6\x06?\xbaF\xb2\xe4}^\x89?\'\xd4x\x8em\xbev?\x00\x00\x00\x00\x00\x00\x00\x00\xa06h\xb7\xaff\x01?\xd6\xf7\xe9\x91i\xe1\x88?\x8b\x96\xf2\x10|\xc2x?\x00\x00\x00\x00\x00\x00\x00\x00>\xb2V@\xe3\xba\x00?\xee\x00\xdb\x03\xa5O\x88?J\x9cWm\xe5\xc2t?\x00\x00\x00\x00\x00\x00\x00\x002\x84\x8c\x15oC\x00?\xb4\x0b\xc4\xba\n\x8c\x89?\xf2\xeb\x03\xa0\xbcUx?\x00\x00\x00\x00\x00\x00\x00\x00N\xbb\x14.\x16L\xfd>\xeaaGg\x89c\x87?\xa8\xcb\xde)O\xe6p?\x00\x00\x00\x00\x00\x00\x00\x00\n\xcf\xd7n\xb3_\x04?1\xb4[G,\x94\x8a?E1\x16\xd9\x10\x14v?\x00\x00\x00\x00\x00\x00\x00\x00\xf7\x8f\x85\xe8\x108\x02?l\x98\xc2\xff-3\x8a?;\x8e@8v\xbbt?\x00\x00\x00\x00\x00\x00\x00\x00Z\xe2T\xad}\xe8\xff>t=\xfa\xf4\x12B\x8b?\x9b&\x85\xdc\xb9\xeeu?\x00\x00\x00\x00\x00\x00\x00\x00\xa1\x04&\x05Pk\xfe>%\xaf\xef?\t\x9e\x88?\xaf\x16L\xba5\x02t?\x00\x00\x00\x00\x00\x00\x00\x00U\xffZ=\xab\xf5\x03?`\xdb\xcbK8\xd3\x88?N\xa6]\x8eO\xafq?:\x8c0\xe2\x8eyE>\xd9\x16\xaf\xc3\xe2\x81\x02?\xc0\xf6\xe5/\xa1@\x87?\x1e2\xcc\xa6\xaf)x?\x00\x00\x00\x00\x00\x00\x00\x00\x82\xb6\x07\xe7t\xd5\x03?bs\x1f\xcaaA\x8b?\x9b\xcfoN\xdbuu?:\x8c0\xe2\x8eyU>\xa6Nz\xbe\xea\xf1\x00?\xeb\xbc\xd7Z\xa9\xb1\x86?r\x987\xa0\x08Vs?:\x8c0\xe2\x8eyE>B\x86\xc0W\x95\xf9\xfe>\x00\xcd9\xdbP\xef\x89?\\\x1eJ8\x1d\x96p?\x00\x00\x00\x00\x00\x00\x00\x00\xb6w\xb2@`\x8a\xf7>gP\x86\r\xc3\x05\x88?,\x02\xef&\xf05q?\x00\x00\x00\x00\x00\x00\x00\x00{\xa4\x03\x8a?\'\x00?q\x7f\xaa\xe1\x8d\x92\x88?\xac\xe7\xff\xb0\x00\x01v?\x00\x00\x00\x00\x00\x00\x00\x00@\x8at\x1e\x997\xfc>n\x101N\x11\x1a\x88?\xab\xd1\xed\x1d\x1c\x89s?:\x8c0\xe2\x8eyU>\x93\xf9\r4\x1b;\x03?~\xfb|\x8c\xa0\xce\x88?\x14/&hY\x18n?:\x8c0\xe2\x8eyE>qQ-"\x8a\xc9\xfb>X\x8e\xb1\x8f%\xde\x87?RV\x1d\x83_4u?:\x8c0\xe2\x8eyU>"\x18(\xa5w\\\xfa>\xec$\xae\xa5xC\x87?'
p110
tp111
bsS'_std_dev'
p112
g60
(g61
(I0
tp113
g63
tp114
Rp115
(I1
(I96
I1
tp116
g69
I00
S'\x84\xc3\xb0T\x82\xfdl?\x9f\xd5S\x8c\xf6\x1c\r?\x03(\xef\xaeJ`@?:\x8f\x0f\x85\xd6\x06\\?\xdb\xdbWj\x16\xe6V?\x00\x00\x00\x00\x00\x00\x00\x00\xe5I\xdf\x00\x1aN??+\xc7\xcb\x15t7u?\x89\xfa\xcc\xf5\x8c\xb3d?\x00\x00\x00\x00\x00\x00\x00\x00\x83\x01\xac\x99\x86\xd5;?&\xdcJ\\Y\xa4k?<\xb5]\xbb\x05Dq?\x00\x00\x00\x00\x00\x00\x00\x00\xa1\\\xff\xfb\x9f%I?\x01A\x86L./h?\xaa\xaa\xf7h\x10\x9f}?\x00\x00\x00\x00\x00\x00\x00\x00\x1b\xef_\xac\x15\x047?\\o\xf0\\\xb9\\j?4B\xb5\x15\xa9q}?\x00\x00\x00\x00\x00\x00\x00\x00\xef[X\xe3\xba\xa3C?\x13\x92o\xd6\x96]n?\x91\x19\xb2\xc8\xfb3\x80?\x00\x00\x00\x00\x00\x00\x00\x00\xd1\xf7*"\xbe%J?]\x07\xe9\x8a\x8d\xd6s?gD;pC\x15r?\x00\x00\x00\x00\x00\x00\x00\x00F\x9e\xfc\x9cH\xc3F?\xd0\xaf=\xc3\xc0\xddu?\xa1t$\xfc\xaaAz?\x00\x00\x00\x00\x00\x00\x00\x00\x19\xb06\xe1R\xa0D?\xe3\xa1t\xa8c\xd9c?X\x04\x1dR?\xc6w?\x00\x00\x00\x00\x00\x00\x00\x00\xe9cD\xb2\xe8\xcdK?q\xf6\xbd g\xdah?\xbe3\xe5%\xfdBu?\x00\x00\x00\x00\x00\x00\x00\x00"{\x0b57\x9e:?\x12\x15\\\xa1\xaf\x08w?\xe2\xde\x80\xdb4\x19t?\x00\x00\x00\x00\x00\x00\x00\x00=\xf0\x07n\x02\xccE?\x0c\xfe11\x18?e?\x88\x0f\r\xec4?p?\x00\x00\x00\x00\x00\x00\x00\x00\x92\x90\xe4\xfa\xbe\xdf@?\x9e\xf0\x1e\x88{\xfdm?\xe4} u\xba\xdfr?\x00\x00\x00\x00\x00\x00\x00\x00\x0b\xed\xeba\x98\xe4I?QE#\xd2\xa5co?\xae\x1a\xc8\x9f\xb5Ol?\x9f\xd5S\x8c\xf6\x1c\r?\x1cY>f^\xeaH?\xe5GuG\xcd\xdcp?\xcb\x06\xf8\xf6\xf5yQ?\x00\x00\x00\x00\x00\x00\x00\x00T\x11\xf9\x97\xea\xe5G?1\xea\x84\x90\xe0rv?\xc9z\xb2#T\xbfq?.\xcc,9\xfd\xd3\x11?\xd7\xb9\x9b\x0f\xf9\xa9>?\'\x91\x1e\x8f\xa7$q?\xb4\xbb\xa4W\x83\xbao?\x9f\xd5S\x8c\xf6\x1c\r?Gx\x94\xdb\x04\x80A?\xfe\xff\xc7\xbbY\x8er?\xedM\x8bN`\x13s?\x00\x00\x00\x00\x00\x00\x00\x00^\xd9\xd6\x08\x8d\xbb9?x\xfdN#Z\xf7r??\xcc\x1d:\xd2\xc2s?\x00\x00\x00\x00\x00\x00\x00\x00\xbe\\\xff\xfb\x9f%I?Y!\x0e9/?b?\x85\xd9\xd6\x08\x8d\xbbi?\x00\x00\x00\x00\x00\x00\x00\x00\x83\xf6\xbc\x80\\\x98;?Fl\xdc\xf1y\x8et?\xfe\x83\xdc\xdc?\xf5v?.\xcc,9\xfd\xd3\x11?.\xf4\xe3\xbf\xfc\x88K?\x91o\x18d^\xccq?FQ\xdc\xee\r\xf8o?\x9f\xd5S\x8c\xf6\x1c\r?\x9ft\xab\xf8\xca\xff<?\xfd\xc7\xd0\\\xd3Wo?A*GNapl?.\xcc,9\xfd\xd3\x11?\xf9=5\x1dC\xb9C?\xa9\x814>\x1e\xdfq?'
p117
tp118
bsS'_num_tot_filter_bins'
p119
I96
sS'_mean'
p120
g60
(g61
(I0
tp121
g63
tp122
Rp123
(I1
(I96
I1
tp124
g69
I00
S"\xa5\xc7\xefm\xfa\xb3\x9f?\xf1h\xe3\x88\xb5\xf8\xf4>4\xf9f\x9b\x1b\xd3c?\xd8B\x90\x83\x12f\xaa?7\xe0\xf3\xc3\x08\xe1\xa1?\x00\x00\x00\x00\x00\x00\x00\x008\x84*5{\xa0e?cz\xc2\x12\x0f(\xab?\xa0\xc8\x93\xa4k&\x9f?\x00\x00\x00\x00\x00\x00\x00\x00L\xdb\xbf\xb2\xd2\xa4d?\x9a\x99\x99\x99\x99\x99\xa9?Z9\xb4\xc8v\xbe\x9f?\x00\x00\x00\x00\x00\x00\x00\x00f\xbd\x18\xca\x89ve?2|DL\x89$\xaa?:\xe4f\xb8\x01\x9f\x9f?\x00\x00\x00\x00\x00\x00\x00\x00\xe0\x9c\x11\xa5\xbd\xc1g?\xa2\x0b\xea[\xe6t\xa9?\x98\xc5\xc4\xe6\xe3\xda\xa0?\x00\x00\x00\x00\x00\x00\x00\x00\x1e\xa2\xd1\x1d\xc4\xced?\xfaD\x9e$]3\xa9?\x01o\x81\x04\xc5\x8f\xa1?\x00\x00\x00\x00\x00\x00\x00\x00\xd8\x86\x8aq\xfe&d?\xc3\xd3+e\x19\xe2\xa8?*\xe3\xdfg\\8\xa0?\x00\x00\x00\x00\x00\x00\x00\x00\x05\xc0x\x06\r\xfdc?V}\xae\xb6b\x7f\xa9?\x05\xa8\xa9ek}\xa1?\x00\x00\x00\x00\x00\x00\x00\x00\x1a\x17\x0e\x84d\x01c?\xdc)\x1d\xac\xffs\xa8?`\x935\xea!\x1a\x9d?\x00\x00\x00\x00\x00\x00\x00\x00\x7f\x9fq\xe1@Hf?\xc8\x98\xbb\x96\x90\x0f\xaa?2\x1bd\x92\x91\xb3\xa0?\x00\x00\x00\x00\x00\x00\x00\x00f\xbd\x18\xca\x89ve?\x8d\xee v\xa6\xd0\xa9?\xe2\x8d\xcc#\x7f0\xa0?\x00\x00\x00\x00\x00\x00\x00\x003\xf9f\x9b\x1b\xd3c?\xdaB\x90\x83\x12f\xaa?\xc6\xfe\xb2{\xf2\xb0\xa0?\x00\x00\x00\x00\x00\x00\x00\x00\x90kC\xc58\x7fc?o\xd3\x9f\xfdH\x11\xa9?\xc2\x1c=~o\xd3\x9f?\x00\x00\x00\x00\x00\x00\x00\x00\xae\xd8_vO\x1ef?\xb2\xef\x8a\xe0\x7f+\xa9?\x06 \xb5\x89\x93\xfb\x9d?\xf1h\xe3\x88\xb5\xf8\xf4>\x94\xf6\x06_\x98Le?\x9a\r2\xc9\xc8Y\xa8?\xdb\xa7\xe31\x03\x95\xa1?\x00\x00\x00\x00\x00\x00\x00\x00\xae\xd8_vO\x1ef?J\x98i\xfbWV\xaa?\xac\xe2\x8d\xcc#\x7f\xa0?\xf1h\xe3\x88\xb5\xf8\x04?M\xdb\xbf\xb2\xd2\xa4d?=\xd5!7\xc3\r\xa8?K\xc8\x07=\x9bU\x9f?\xf1h\xe3\x88\xb5\xf8\xf4>b2U0*\xa9c?K\xd25\x93o\xb6\xa9?\x8e\xcc#\x7f0\xf0\x9c?\x00\x00\x00\x00\x00\x00\x00\x00\x16\x8cJ\xea\x044a?\xcdE|'f\xbd\xa8?\xb8\x92\x1d\x1b\x81x\x9d?\x00\x00\x00\x00\x00\x00\x00\x003\xf9f\x9b\x1b\xd3c?p\xd3\x9f\xfdH\x11\xa9?\xe7\x8c(\xed\r\xbe\xa0?\x00\x00\x00\x00\x00\x00\x00\x00HP\xfc\x18s\xd7b?\x13\x9b\x8fkC\xc5\xa8?&\x01jj\xd9Z\x9f?\xf1h\xe3\x88\xb5\xf8\x04?9\x84*5{\xa0e?\xd9\xb6(\xb3A&\xa9?%]3\xf9f\x9b\x9b?\xf1h\xe3\x88\xb5\xf8\xf4>v\x89\xea\xad\x81\xadb?=\x9bU\x9f\xab\xad\xa8?\xb1\x1b\xb6-\xcal\xa0?\xf1h\xe3\x88\xb5\xf8\x04?.n\xa3\x01\xbc\x05b?\x9a\r2\xc9\xc8Y\xa8?"
p125
tp126
bsS'_num_realizations'
p127
I5
sg22
(lp128
sS'_sum'
p129
g60
(g61
(I0
tp130
g63
tp131
Rp132
(I1
(I96
I1
tp133
g69
I00
S'\xc7\xdc\xb5\x84|\xd0\xc3?-C\x1c\xeb\xe26\x1a?\x81\xb7@\x82\xe2\xc7\x88?\xc7):\x92\xcb\x7f\xd0?E\xd8\xf0\xf4JY\xc6?\x00\x00\x00\x00\x00\x00\x00\x00F%u\x02\x9a\x08\x8b?~\x8c\xb9k\t\xf9\xd0?d]\xdcF\x03x\xc3?\x00\x00\x00\x00\x00\x00\x00\x00\x1f\xd2o_\x07\xce\x89?\x00\x00\x00\x00\x00\x00\xd0?\xd8\xa3p=\n\xd7\xc3?\x00\x00\x00\x00\x00\x00\x00\x00\xbf\xec\x9e<,\xd4\x8a?\x9f\xcd\xaa\xcf\xd5V\xd0?\xa4N@\x13a\xc3\xc3?\x00\x00\x00\x00\x00\x00\x00\x00\x18\x04V\x0e-\xb2\x8d?\x8a\x8e\xe4\xf2\x1f\xd2\xcf?\xfe\xf6u\xe0\x9c\x11\xc5?\x00\x00\x00\x00\x00\x00\x00\x00\xa6\nF%u\x02\x8a?8\xd6\xc5m4\x80\xcf?\xc1\xca\xa1E\xb6\xf3\xc5?\x00\x00\x00\x00\x00\x00\x00\x00\x8e(\xed\r\xbe0\x89?\xb4\xc8v\xbe\x9f\x1a\xcf?\xf4\xdb\xd7\x81sF\xc4?\x00\x00\x00\x00\x00\x00\x00\x00\x06\xf0\x16HP\xfc\x88?\xac\x1cZd;\xdf\xcf?\x06\x12\x14?\xc6\xdc\xc5?\x00\x00\x00\x00\x00\x00\x00\x00\xe1\x9c\x11\xa5\xbd\xc1\x87?St$\x97\xff\x90\xce?\x1c|a2U0\xc2?\x00\x00\x00\x00\x00\x00\x00\x00_\x07\xce\x19Q\xda\x8b?}?5^\xbaI\xd0?\xff!\xfd\xf6u\xe0\xc4?\x00\x00\x00\x00\x00\x00\x00\x00\xc0\xec\x9e<,\xd4\x8a?\x18\x95\xd4\th"\xd0?[\xb1\xbf\xec\x9e<\xc4?\x00\x00\x00\x00\x00\x00\x00\x00\x80\xb7@\x82\xe2\xc7\x88?\xc8):\x92\xcb\x7f\xd0?w\xbe\x9f\x1a/\xdd\xc4?\x00\x00\x00\x00\x00\x00\x00\x00tF\x94\xf6\x06_\x88?K\xc8\x07=\x9bU\xcf?\xf91\xe6\xae%\xe4\xc3?\x00\x00\x00\x00\x00\x00\x00\x00\xd9\xce\xf7S\xe3\xa5\x8b?\x9e\xab\xad\xd8_v\xcf?\x044\x116<\xbd\xc2?-C\x1c\xeb\xe26\x1a?9\xb4\xc8v\xbe\x9f\x8a?\x00\x91~\xfb:p\xce?\xd2\x91\\\xfeC\xfa\xc5?\x00\x00\x00\x00\x00\x00\x00\x00\xd9\xce\xf7S\xe3\xa5\x8b?.\xff!\xfd\xf6u\xd0?W[\xb1\xbf\xec\x9e\xc4?-C\x1c\xeb\xe26*? \xd2o_\x07\xce\x89?\x8cJ\xea\x044\x11\xce?/\xdd$\x06\x81\x95\xc3?-C\x1c\xeb\xe26\x1a?\xfa~j\xbct\x93\x88?o\xa3\x01\xbc\x05\x12\xd0?\xd9_vO\x1e\x16\xc2?\x00\x00\x00\x00\x00\x00\x00\x00\x1b/\xdd$\x06\x81\x85?@W[\xb1\xbf\xec\xce?\xb3{\xf2\xb0Pk\xc2?\x00\x00\x00\x00\x00\x00\x00\x00\x80\xb7@\x82\xe2\xc7\x88?L\xc8\x07=\x9bU\xcf?!\xb0rh\x91\xed\xc4?\x00\x00\x00\x00\x00\x00\x00\x00Zd;\xdfO\x8d\x87?\xd8\x81sF\x94\xf6\xce?\xb8@\x82\xe2\xc7\x98\xc3?-C\x1c\xeb\xe26*?G%u\x02\x9a\x08\x8b?\x8f\xe4\xf2\x1f\xd2o\xcf?7\x1a\xc0[ A\xc1?-C\x1c\xeb\xe26\x1a?\xd4+e\x19\xe2X\x87?\x0c\x02+\x87\x16\xd9\xce?\x9d\xa2#\xb9\xfc\x87\xc4?-C\x1c\xeb\xe26*?\xbaI\x0c\x02+\x87\x86?\x00\x91~\xfb:p\xce?'
p134
tp135
bsS'_estimator'
p136
S'analog'
p137
sS'_scores'
p138
(lp139
S'nu-scatter'
p140
asg26
I10183
sbsS'flux'
p141
g2
(g77
g4
Ntp142
Rp143
(dp144
g81
I1
sg82
S'2 groups'
p145
sg84
(lp146
g2
(g86
g4
Ntp147
Rp148
(dp149
g90
Nsg8
g91
sg28
I5
sg92
I1
sg93
(lp150
I10012
asbag2
(g86
g4
Ntp151
Rp152
(dp153
g90
Nsg8
g98
sg28
I0
sg92
I24
sg93
(lp154
F0.0
aF6.25e-07
aF10.0
asbasg105
g60
(g61
(I0
tp155
g63
tp156
Rp157
(I1
(I48
I1
tp158
g69
I00
S'\x08\x86\xfeT,\xabc?>\xf2\x19\xf1Oc\xa0?j\x1f\xe4{\xac\xaag?\x12\xdeNQP[\xa0?\xfa@\x12O9\x0fb?0\x11\x89\x94\xa4\xae\x9e?\x85\xb4\xbf+\x7f1c?\xd4\x90\x16\xe3\x9c\xfb\x9d?4\xd5\x9c=\xc2mc?\xd0-\xfe0\xc2\x0b\x9d?\x01\x8d\xe7\xc7\xdf\xdbe?\x91Q\xefu\xd2\x9a\x9f?\xea\x97\xfe\x1a[\xf5g?\xbf\xa2\xa4U$#\x9e?tT\xa3\x01\xf1wd?}\x1b]\x03d\xca\x9c?\xf8i2\xb8\xb5qg?6\xd5\xce\xca\xee\x0b\x9c?\xe2W\x9c\x14\xcb\x0ea?\xf0\xef\xe5\x8ep\x15\x9f?_\x81\xd5\xffEWe?\x85\xce\xe8[\x18"\x9d?\t\xaf\xd2]c\x10d?\tG\x1e\xa3\xfch\x9f?n\xd1Scy\x02e?\xc7$\xc8\xae\xfdD\x9d?\xc1\x05f\xc7I\xf7b?n\n\x01F\xd1\xb4\xa0?\x1f\xc9\x02h\x9c;a?0\x9a\xaf1\x12\xe8\x9c?\xc5\xf4\xad\x86\xfcRg?N\xfa\x1e\xca?\xe9\x9e?InuM)\xb6e?\xfd\x05J\xc9\xe36\x99?6sJ\x82\xd2\x95b?e\x89\xbeJ\x93U\x9d?\xccw\xc1\x8a.\xa5_?I\x8e\xae\x85\xb4\xb2\x9b?T0\xd4b\xfer`?\x18\x08[\xe0\x92b\x9b?\x1e\xb6\xafDjSe?\xa0\x98\tN\x14r\x9c?\x16mo\xbff\xe4b?z8\x9aR\xc3Q\x9e?\x0f\t\x8a\x9a.?]?\x83(q7\x14\x9b\x9c?JW\xc84\xe3\x80d?\x90\xce\xe6\xeb\xe7\xb2\x9c?'
p159
tp160
bsg112
g60
(g61
(I0
tp161
g63
tp162
Rp163
(I1
(I48
I1
tp164
g69
I00
S'\x7f\x07\xdbz\\\xef`?\xb5\xa0\xa5G\x94Nz?(\xb8\xb8dK\xc9V?J9\xb2\xf4\x1a\xb4|?\n\xbe\x82\xc8I|`?\xc3\xbeh\xbc\xb2:\x80?\xde%\x16\x1a\x82ie? \xa2\x8e\x99\x1a\xa5u?L\xfc\r\xa0y\x06t?\xef\xe3\xd5\xe2\n\xb4f?>.1\xbe\xd1\xfer?e\xab\xb6\xa1\x07\x97s?\x80h\x04\x88\xdbHt?\xf6\x81\xf3\xf8u~j?p\xd7Ws\xb3\x92i?P\x1ed\x16Q\x94\x81?*\x0c\xe7\xfb1\x80r?\xf2/\xae<\xeb\x11d?B\xfc_\xb6\xf9Ap?mU\xb2\x1b\x0f\ns?\xd2 \x96T\xa4?k?\x1a\xc8\xc3\xf1\xd1\xb0z?\xcb\xa066\x1b~k? \x14\xa8\xb4-\xa4q?\xd5I\xef\x0b\x89\xdec?\xa4\x06\xa7\x07F\xda\x80?\xd7\x1bMM\x1c\x8fh?F\xa1\x0e\x18\x93dy?6\x81\x8d\xb2O+d?\x83\t\xec\x11\x90\x9d}?\xbbE\x9c\xea\x1e\x05Q?\xda\xa5\x01\xe2\x92\x0c\x83?\xaeim\ne\x8dj?\xcayg\xf7\x94\xfd\x80?\xc3\x07\x8b\x0f\n<d?;\xb8\xe0\x96\xfb\xe9\x83?\x8dm\x97\xd8\xbeVj?\xed\x13\xe4\x15\xc6/\x84?\x82\xf8e\xefU\x10g?\x18n\xe6o\xe1xU?\xd3\xd3;\x02\xf1\tZ?R5V\xa5r\x12\x7f?d\x96\xdb\xecd\x90p?\x83\x00XPa\xf9\x81?"\x12\xff+\xcd\xc1c?\x8a\x14}\xed+^\x84?:\xc51\xabM)a?\x82`\xa1\xbe\xc8\xfct?'
p165
tp166
bsg119
I48
sg120
g60
(g61
(I0
tp167
g63
tp168
Rp169
(I1
(I48
I1
tp170
g69
I00
S'\x1e\xeb\x86V\'c\x96?s\x92C\x92\xbcr\xb4?\xca\xe4_\xec\xcd\x97\x98?V\x8b\x9d~\rl\xb4?8\xdc0ILs\x95?R\xd9\x11\xe8u\xc3\xb3?\xdb\xa6\x877\x18\x15\x96?~\'\xe7\xd2\xe9\x90\xb3?>\x15J\xe2\'\x02\x96?\x0e\x19\x04JhF\xb3?\x9d\x98\xbe\x18.h\x97?J\x83\xdd>\x07\x18\xb4?FM\xeb\xfc\xa5~\x98?\xd409Y\xb3\xa1\xb3?\xde\xbf\x06\xb8Y\xc6\x96?K\xbf\x07h\xa9!\xb3?\xa3\xf1f\x83QE\x98?^g\x0c\x14\x1b\xf1\xb2?\x1c\x12\x08V\xd5\xb0\x94?s\x97\x0c6\xa5\xed\xb3?\xf0.\xbew\x98>\x97?F\x97"&\xf8E\xb3?\xed\xc1\xe3\xbf*\x87\x96?\xcf\xa8\x02\x0e\x12\t\xb4?\xb2=dGW\x1f\x97?9\xbb\xca\xba\xd9K\xb3?\xdfsM\xb2h\xec\x95?\xa6\xaa\xe1\xab\x1a\xa6\xb4?\x95\xbf\x0c+\xd8\xec\x94?\xa3t\x94\x0bp0\xb3?*\x83\x95\x07pl\x98?.@\x84V2\xd1\xb3?\xdb\xc6\x07\x12Gt\x97?x\x18\xb9P[\xe6\xb1?\x12\x05<\xf0w\xbc\x95?}\x0e\x85*LK\xb3?n\x95{\x0fa\xfc\x93?\x85H\xfb\x1f\xbd\xbd\xb2?Z\xc4\xc7cTj\x94?\x07\xfc?\xb8\x89\xb8\xb2?\xf8c\x12\xb7\x01V\x97?\xc1\xf3\xe0\x97\xb8\x07\xb3?je\xb31\xe0\xc9\x95?R\x80\x99\xca#\xa2\xb3?\xa5>\xf7\x063D\x93?6\x0e\xb2\x07\x0c\x0c\xb3?"\xd6\xae+\xb8\xdb\x96?3\x97\xb4H\x98$\xb3?'
p171
tp172
bsg127
I5
sg22
(lp173
sg129
g60
(g61
(I0
tp174
g63
tp175
Rp176
(I1
(I48
I1
tp177
g69
I00
S'\xe6\xa5(,\xf1\xfb\xbb?\x10w\xd4\xb6k\x8f\xd9?\xfc\xddwg\xc1\xbd\xbe?,\xeeD\xde\x10\x87\xd9?F\x13}[\x1f\xd0\xba?\xa7O\x16bS\xb4\xd8?\x92\x90iE^\x9a\xbb?]\xf1\xa0G$u\xd8?\x8d\x9a\xdc\xda\xb1\x82\xbb?R\x1f\x85\\\x02\x18\xd8?\xc4>\xee\x9e9B\xbd?\x1c\xe4\x94\x0e\t\x1e\xd9?\x97 &|O\x9e\xbe?\t}\x87/ \x8a\xd8?\xd5o\x08&\xf0w\xbc?\x1e\xaf\t\xc2\x13\xea\xd7?\x0c\xae@\xe4\xa5V\xbe?5\x81\x0f\xd9a\xad\xd7?\xa3\x16\x8a\xab\n\xdd\xb9?P\xbd\x8f\x83\x0e\xe9\xd8?\xac\xba\xad\x95>\x0e\xbd?\x17=\xab/v\x17\xd8?h\xb2\xdco\xf5(\xbc?\x03S\x83\x91V\x0b\xd9?\x1eM=\x19-\xe7\xbc?\x07j})\xd0\x1e\xd8?\xd7\xd0\xe0\xde\x82g\xbb?P\x15\xdaV\xa1\xcf\xd9?z\xef\xcf5\x0e(\xba?\xcc\x91y\x0e\x8c\xfc\xd7?\xf5\xe3z\t\x8c\x87\xbe?:P%\xec~\xc5\xd8?\x92\xb8\x89\xd6XQ\xbd?\x96^\xe7$\xf2_\xd6?V\x06K\xec\x95+\xbb?\x1cR&5\x1f\x1e\xd8?\xc9zZSy\xfb\xb8?\xa6\x1a\xfag,m\xd7?p\xb5\xb9|\xe9\x84\xb9?\t\xfbO&\xacf\xd7?\xf6\xfc\xd6$\x82+\xbd?\xb10\xd9\xbd\xa6\xc9\xd7?\xc4> >X<\xbb?f\xe0?\xbd\xac\x8a\xd8?N\x0e\xb5\xc8?\x15\xb8?\xc3\x91\x9e\t\x0f\xcf\xd7?\xaa\x8b\x9a6\xa6\x92\xbc?\x00\xbd\xe1Z\xbe\xed\xd7?'
p178
tp179
bsg136
g137
sg138
(lp180
g141
asg26
I10173
sbssS'subdomain offsets'
p181
(dp182
I387
g48
(g52
S'\t\x00\x00\x00\x00\x00\x00\x00'
p183
tp184
Rp185
sI774
g48
(g52
S'\x11\x00\x00\x00\x00\x00\x00\x00'
p186
tp187
Rp188
sI785
g48
(g52
S'\x12\x00\x00\x00\x00\x00\x00\x00'
p189
tp190
Rp191
sI915
g48
(g52
S'\x14\x00\x00\x00\x00\x00\x00\x00'
p192
tp193
Rp194
sI156
g48
(g52
S'\x00\x00\x00\x00\x00\x00\x00\x00'
p195
tp196
Rp197
sI542
g48
(g52
S'\n\x00\x00\x00\x00\x00\x00\x00'
p198
tp199
Rp200
sI167
g48
(g52
S'\x01\x00\x00\x00\x00\x00\x00\x00'
p201
tp202
Rp203
sI553
g48
(g52
S'\x0b\x00\x00\x00\x00\x00\x00\x00'
p204
tp205
Rp206
sI178
g48
(g52
S'\x02\x00\x00\x00\x00\x00\x00\x00'
p207
tp208
Rp209
sI950
g48
(g52
S'\x15\x00\x00\x00\x00\x00\x00\x00'
p210
tp211
Rp212
sI575
g48
(g52
S'\x0c\x00\x00\x00\x00\x00\x00\x00'
p213
tp214
Rp215
sI961
g48
(g52
S'\x16\x00\x00\x00\x00\x00\x00\x00'
p216
tp217
Rp218
sI586
g48
(g52
S'\r\x00\x00\x00\x00\x00\x00\x00'
p219
tp220
Rp221
sI972
g48
(g52
S'\x17\x00\x00\x00\x00\x00\x00\x00'
p222
tp223
Rp224
sI213
g48
(g52
S'\x03\x00\x00\x00\x00\x00\x00\x00'
p225
tp226
Rp227
sI343
g48
(g52
S'\x05\x00\x00\x00\x00\x00\x00\x00'
p228
tp229
Rp230
sI354
g48
(g52
S'\x06\x00\x00\x00\x00\x00\x00\x00'
p231
tp232
Rp233
sI741
g48
(g52
S'\x0e\x00\x00\x00\x00\x00\x00\x00'
p234
tp235
Rp236
sI876
g48
(g52
S'\x13\x00\x00\x00\x00\x00\x00\x00'
p237
tp238
Rp239
sI365
g48
(g52
S'\x07\x00\x00\x00\x00\x00\x00\x00'
p240
tp241
Rp242
sI752
g48
(g52
S'\x0f\x00\x00\x00\x00\x00\x00\x00'
p243
tp244
Rp245
sI376
g48
(g52
S'\x08\x00\x00\x00\x00\x00\x00\x00'
p246
tp247
Rp248
sI763
g48
(g52
S'\x10\x00\x00\x00\x00\x00\x00\x00'
p249
tp250
Rp251
sI252
g48
(g52
S'\x04\x00\x00\x00\x00\x00\x00\x00'
p252
tp253
Rp254
ssS'offset'
p255
I5
sS'domain type'
p256
g91
sS'xs'
p257
g60
(g61
(I0
tp258
g63
tp259
Rp260
(I1
(I24
I2
I2
tp261
g49
(S'O8'
p262
I0
I1
tp263
Rp264
(I3
S'|'
p265
NNNI-1
I-1
I63
tp266
bI00
(lp267
g2
(cuncertainties
AffineScalarFunc
p268
g4
Ntp269
Rp270
(dp271
S'_nominal_value'
p272
F0.6455026133700027
sS'derivatives'
p273
(dp274
g2
(cuncertainties
Variable
p275
g4
Ntp276
Rp277
(dp278
g272
F0.051559999999999995
sS'_std_dev'
p279
g2
(cuncertainties
CallableStdDev
p280
c__builtin__
float
p281
F0.001710614673577872
tp282
Rp283
sS'tag'
p284
Nsg273
(dp285
g277
F1.0
ssbF12.519445565748697
sg2
(g275
g4
Ntp286
Rp287
(dp288
g272
F0.07987574168107318
sg279
g2
(g280
g281
F0.006422595232244689
tp289
Rp290
sg284
Nsg273
(dp291
g287
F1.0
ssbF-8.081334830634276
ssbag2
(g268
g4
Ntp292
Rp293
(dp294
g272
F0.03029705826911185
sg273
(dp295
g2
(g275
g4
Ntp296
Rp297
(dp298
g272
F0.0024200000000000003
sg279
g2
(g280
g281
F0.0004997601189355997
tp299
Rp300
sg284
Nsg273
(dp301
g297
F1.0
ssbF12.519445565748697
sg287
F-0.37930237180246223
ssbag2
(g268
g4
Ntp302
Rp303
(dp304
g272
F0.0009148035992978802
sg273
(dp305
g2
(g275
g4
Ntp306
Rp307
(dp308
g272
F2e-05
sg279
g2
(g280
g281
F5.552890210395598e-05
tp309
Rp310
sg284
Nsg273
(dp311
g307
F1.0
ssbF45.740179964894004
sg2
(g275
g4
Ntp312
Rp313
(dp314
g272
F0.021862616211119172
sg279
g2
(g280
g281
F0.0020672613380562917
tp315
Rp316
sg284
Nsg273
(dp317
g313
F1.0
ssbF-0.04184328126441782
ssbag2
(g268
g4
Ntp318
Rp319
(dp320
g272
F1.4161159717131186
sg273
(dp321
g2
(g275
g4
Ntp322
Rp323
(dp324
g272
F0.030960000000000005
sg279
g2
(g280
g281
F0.0035388513110991577
tp325
Rp326
sg284
Nsg273
(dp327
g323
F1.0
ssbF45.740179964894004
sg313
F-64.77339939731878
ssbag2
(g268
g4
Ntp328
Rp329
(dp330
g272
F0.6648803351182369
sg273
(dp331
g2
(g275
g4
Ntp332
Rp333
(dp334
g272
F0.05304
sg279
g2
(g280
g281
F0.005179837663250623
tp335
Rp336
sg284
Nsg273
(dp337
g333
F1.0
ssbF12.535451265426788
sg2
(g275
g4
Ntp338
Rp339
(dp340
g272
F0.07977375355907887
sg279
g2
(g280
g281
F0.00700769929529905
tp341
Rp342
sg284
Nsg273
(dp343
g339
F1.0
ssbF-8.33457503821529
ssbag2
(g268
g4
Ntp344
Rp345
(dp346
g272
F0.03309359134072672
sg273
(dp347
g2
(g275
g4
Ntp348
Rp349
(dp350
g272
F0.00264
sg279
g2
(g280
g281
F0.0004776776776199961
tp351
Rp352
sg284
Nsg273
(dp353
g349
F1.0
ssbF12.535451265426788
sg339
F-0.4148431014496298
ssbag2
(g268
g4
Ntp354
Rp355
(dp356
g272
F0.0
sg273
(dp357
g2
(g275
g4
Ntp358
Rp359
(dp360
g272
F0.0
sg279
g2
(g280
g281
F0.0
tp361
Rp362
sg284
Nsg273
(dp363
g359
F1.0
ssbF41.63788832098915
sg2
(g275
g4
Ntp364
Rp365
(dp366
g272
F0.024016587783965794
sg279
g2
(g280
g281
F0.001390765787515411
tp367
Rp368
sg284
Nsg273
(dp369
g365
F1.0
ssbF0.0
ssbag2
(g268
g4
Ntp370
Rp371
(dp372
g272
F1.453995060168941
sg273
(dp373
g2
(g275
g4
Ntp374
Rp375
(dp376
g272
F0.03492
sg279
g2
(g280
g281
F0.0013976305866643033
tp377
Rp378
sg284
Nsg273
(dp379
g375
F1.0
ssbF41.63788832098915
sg365
F-60.541283934584264
ssbag2
(g268
g4
Ntp380
Rp381
(dp382
g272
F0.6476579771973793
sg273
(dp383
g2
(g275
g4
Ntp384
Rp385
(dp386
g272
F0.05
sg279
g2
(g280
g281
F0.0033742661783793424
tp387
Rp388
sg284
Nsg273
(dp389
g385
F1.0
ssbF12.953159543947585
sg2
(g275
g4
Ntp390
Rp391
(dp392
g272
F0.07720124164356904
sg279
g2
(g280
g281
F0.00792445790747765
tp393
Rp394
sg284
Nsg273
(dp395
g391
F1.0
ssbF-8.38921710854802
ssbag2
(g268
g4
Ntp396
Rp397
(dp398
g272
F0.03264196205074791
sg273
(dp399
g2
(g275
g4
Ntp400
Rp401
(dp402
g272
F0.0025199999999999997
sg279
g2
(g280
g281
F0.0004247144330946849
tp403
Rp404
sg284
Nsg273
(dp405
g401
F1.0
ssbF12.953159543947585
sg391
F-0.42281654227082016
ssbag2
(g268
g4
Ntp406
Rp407
(dp408
g272
F0.0
sg273
(dp409
g2
(g275
g4
Ntp410
Rp411
(dp412
g272
F0.0
sg279
g2
(g280
g281
F0.0
tp413
Rp414
sg284
Nsg273
(dp415
g411
F1.0
ssbF47.73807584131587
sg2
(g275
g4
Ntp416
Rp417
(dp418
g272
F0.020947639434066384
sg279
g2
(g280
g281
F0.002012390239620525
tp419
Rp420
sg284
Nsg273
(dp421
g417
F1.0
ssbF0.0
ssbag2
(g268
g4
Ntp422
Rp423
(dp424
g272
F1.4521922670928287
sg273
(dp425
g2
(g275
g4
Ntp426
Rp427
(dp428
g272
F0.030420000000000003
sg279
g2
(g280
g281
F0.002527022660074711
tp429
Rp430
sg284
Nsg273
(dp431
g427
F1.0
ssbF47.73807584131587
sg417
F-69.32486458264988
ssbag2
(g268
g4
Ntp432
Rp433
(dp434
g272
F0.6680626934217033
sg273
(dp435
g2
(g275
g4
Ntp436
Rp437
(dp438
g272
F0.05106000000000001
sg279
g2
(g280
g281
F0.002952185084900916
tp439
Rp440
sg284
Nsg273
(dp441
g437
F1.0
ssbF13.083875703519452
sg2
(g275
g4
Ntp442
Rp443
(dp444
g272
F0.07642995261190141
sg279
g2
(g280
g281
F0.005284408479305586
tp445
Rp446
sg284
Nsg273
(dp447
g443
F1.0
ssbF-8.74084924288799
ssbag2
(g268
g4
Ntp448
Rp449
(dp450
g272
F0.03427975434322096
sg273
(dp451
g2
(g275
g4
Ntp452
Rp453
(dp454
g272
F0.00262
sg279
g2
(g280
g281
F0.0007674246953638561
tp455
Rp456
sg284
Nsg273
(dp457
g453
F1.0
ssbF13.083875703519452
sg443
F-0.4485120449738842
ssbag2
(g268
g4
Ntp458
Rp459
(dp460
g272
F0.0
sg273
(dp461
g2
(g275
g4
Ntp462
Rp463
(dp464
g272
F0.0
sg279
g2
(g280
g281
F0.0
tp465
Rp466
sg284
Nsg273
(dp467
g463
F1.0
ssbF46.37176956570451
sg2
(g275
g4
Ntp468
Rp469
(dp470
g272
F0.02156484450271177
sg279
g2
(g280
g281
F0.002613786797785108
tp471
Rp472
sg284
Nsg273
(dp473
g469
F1.0
ssbF0.0
ssbag2
(g268
g4
Ntp474
Rp475
(dp476
g272
F1.4375248565368401
sg273
(dp477
g2
(g275
g4
Ntp478
Rp479
(dp480
g272
F0.031000000000000007
sg279
g2
(g280
g281
F0.004215261831501945
tp481
Rp482
sg284
Nsg273
(dp483
g479
F1.0
ssbF46.37176956570451
sg469
F-66.66057139229879
ssbag2
(g268
g4
Ntp484
Rp485
(dp486
g272
F0.660352838642145
sg273
(dp487
g2
(g275
g4
Ntp488
Rp489
(dp490
g272
F0.04972
sg279
g2
(g280
g281
F0.0032180424091289694
tp491
Rp492
sg284
Nsg273
(dp493
g489
F1.0
ssbF13.281432796503319
sg2
(g275
g4
Ntp494
Rp495
(dp496
g272
F0.07529308135062626
sg279
g2
(g280
g281
F0.0027713978403736054
tp497
Rp498
sg284
Nsg273
(dp499
g495
F1.0
ssbF-8.770431848405849
ssbag2
(g268
g4
Ntp500
Rp501
(dp502
g272
F0.03851615510985962
sg273
(dp503
g2
(g275
g4
Ntp504
Rp505
(dp506
g272
F0.0029
sg279
g2
(g280
g281
F0.00035119561323403305
tp507
Rp508
sg284
Nsg273
(dp509
g505
F1.0
ssbF13.281432796503319
sg495
F-0.5115497256712984
ssbag2
(g268
g4
Ntp510
Rp511
(dp512
g272
F0.0
sg273
(dp513
g2
(g275
g4
Ntp514
Rp515
(dp516
g272
F0.0
sg279
g2
(g280
g281
F0.0
tp517
Rp518
sg284
Nsg273
(dp519
g515
F1.0
ssbF46.52764486132487
sg2
(g275
g4
Ntp520
Rp521
(dp522
g272
F0.021492598711593695
sg279
g2
(g280
g281
F0.0048889876351259735
tp523
Rp524
sg284
Nsg273
(dp525
g521
F1.0
ssbF0.0
ssbag2
(g268
g4
Ntp526
Rp527
(dp528
g272
F1.4367736733177119
sg273
(dp529
g2
(g275
g4
Ntp530
Rp531
(dp532
g272
F0.030879999999999998
sg279
g2
(g280
g281
F0.007231773473430772
tp533
Rp534
sg284
Nsg273
(dp535
g531
F1.0
ssbF46.52764486132487
sg521
F-66.84969521822771
ssbag2
(g268
g4
Ntp536
Rp537
(dp538
g272
F0.6270731282951849
sg273
(dp539
g2
(g275
g4
Ntp540
Rp541
(dp542
g272
F0.04922
sg279
g2
(g280
g281
F0.003706736187711232
tp543
Rp544
sg284
Nsg273
(dp545
g541
F1.0
ssbF12.740209839398311
sg2
(g275
g4
Ntp546
Rp547
(dp548
g272
F0.0784916428069781
sg279
g2
(g280
g281
F0.004782705127051344
tp549
Rp550
sg284
Nsg273
(dp551
g547
F1.0
ssbF-7.989043239128593
ssbag2
(g268
g4
Ntp552
Rp553
(dp554
g272
F0.03236013299207171
sg273
(dp555
g2
(g275
g4
Ntp556
Rp557
(dp558
g272
F0.0025399999999999997
sg279
g2
(g280
g281
F0.0005993521251096405
tp559
Rp560
sg284
Nsg273
(dp561
g557
F1.0
ssbF12.740209839398311
sg547
F-0.4122748847498298
ssbag2
(g268
g4
Ntp562
Rp563
(dp564
g272
F0.0
sg273
(dp565
g2
(g275
g4
Ntp566
Rp567
(dp568
g272
F0.0
sg279
g2
(g280
g281
F0.0
tp569
Rp570
sg284
Nsg273
(dp571
g567
F1.0
ssbF43.74768400703567
sg2
(g275
g4
Ntp572
Rp573
(dp574
g272
F0.022858352909360325
sg279
g2
(g280
g281
F0.004637545879699055
tp575
Rp576
sg284
Nsg273
(dp577
g573
F1.0
ssbF0.0
ssbag2
(g268
g4
Ntp578
Rp579
(dp580
g272
F1.4401737575116145
sg273
(dp581
g2
(g275
g4
Ntp582
Rp583
(dp584
g272
F0.032920000000000005
sg279
g2
(g280
g281
F0.007188473212707925
tp585
Rp586
sg284
Nsg273
(dp587
g583
F1.0
ssbF43.74768400703567
sg573
F-63.004266458843325
ssbag2
(g268
g4
Ntp588
Rp589
(dp590
g272
F0.633752359333535
sg273
(dp591
g2
(g275
g4
Ntp592
Rp593
(dp594
g272
F0.0486
sg279
g2
(g280
g281
F0.004843285466053474
tp595
Rp596
sg284
Nsg273
(dp597
g593
F1.0
ssbF13.040172002747633
sg2
(g275
g4
Ntp598
Rp599
(dp600
g272
F0.07668610504441925
sg279
g2
(g280
g281
F0.003234129347774446
tp601
Rp602
sg284
Nsg273
(dp603
g599
F1.0
ssbF-8.26423977285642
ssbag2
(g268
g4
Ntp604
Rp605
(dp606
g272
F0.032078823126759186
sg273
(dp607
g2
(g275
g4
Ntp608
Rp609
(dp610
g272
F0.0024600000000000004
sg279
g2
(g280
g281
F0.0007979563127589133
tp611
Rp612
sg284
Nsg273
(dp613
g609
F1.0
ssbF13.040172002747633
sg599
F-0.41831337121865847
ssbag2
(g268
g4
Ntp614
Rp615
(dp616
g272
F0.0
sg273
(dp617
g2
(g275
g4
Ntp618
Rp619
(dp620
g272
F0.0
sg279
g2
(g280
g281
F0.0
tp621
Rp622
sg284
Nsg273
(dp623
g619
F1.0
ssbF41.804927285919575
sg2
(g275
g4
Ntp624
Rp625
(dp626
g272
F0.02392062526889773
sg279
g2
(g280
g281
F0.0049522948686676616
tp627
Rp628
sg284
Nsg273
(dp629
g625
F1.0
ssbF0.0
ssbag2
(g268
g4
Ntp630
Rp631
(dp632
g272
F1.4339090059070416
sg273
(dp633
g2
(g275
g4
Ntp634
Rp635
(dp636
g272
F0.034300000000000004
sg279
g2
(g280
g281
F0.007911650717016968
tp637
Rp638
sg284
Nsg273
(dp639
g635
F1.0
ssbF41.804927285919575
sg625
F-59.944461726569095
ssbag2
(g268
g4
Ntp640
Rp641
(dp642
g272
F0.6663777473500702
sg273
(dp643
g2
(g275
g4
Ntp644
Rp645
(dp646
g272
F0.0498
sg279
g2
(g280
g281
F0.005338433245793042
tp647
Rp648
sg284
Nsg273
(dp649
g645
F1.0
ssbF13.381079264057634
sg2
(g275
g4
Ntp650
Rp651
(dp652
g272
F0.07473238744546255
sg279
g2
(g280
g281
F0.008583672996351016
tp653
Rp654
sg284
Nsg273
(dp655
g651
F1.0
ssbF-8.91685345709546
ssbag2
(g268
g4
Ntp656
Rp657
(dp658
g272
F0.032649833404300624
sg273
(dp659
g2
(g275
g4
Ntp660
Rp661
(dp662
g272
F0.00244
sg279
g2
(g280
g281
F0.0006946663433823961
tp663
Rp664
sg284
Nsg273
(dp665
g661
F1.0
ssbF13.381079264057634
sg651
F-0.43689000874122336
ssbag2
(g268
g4
Ntp666
Rp667
(dp668
g272
F0.0
sg273
(dp669
g2
(g275
g4
Ntp670
Rp671
(dp672
g272
F0.0
sg279
g2
(g280
g281
F0.0
tp673
Rp674
sg284
Nsg273
(dp675
g671
F1.0
ssbF44.96196268243461
sg2
(g275
g4
Ntp676
Rp677
(dp678
g272
F0.022241021973684265
sg279
g2
(g280
g281
F0.0031217102903111013
tp679
Rp680
sg284
Nsg273
(dp681
g677
F1.0
ssbF0.0
ssbag2
(g268
g4
Ntp682
Rp683
(dp684
g272
F1.4243949777795284
sg273
(dp685
g2
(g275
g4
Ntp686
Rp687
(dp688
g272
F0.03168
sg279
g2
(g280
g281
F0.004414809638277984
tp689
Rp690
sg284
Nsg273
(dp691
g687
F1.0
ssbF44.96196268243461
sg677
F-64.04359383597043
ssbag2
(g268
g4
Ntp692
Rp693
(dp694
g272
F0.6454797039803011
sg273
(dp695
g2
(g275
g4
Ntp696
Rp697
(dp698
g272
F0.04776
sg279
g2
(g280
g281
F0.0024229952283756225
tp699
Rp700
sg284
Nsg273
(dp701
g697
F1.0
ssbF13.515069178817024
sg2
(g275
g4
Ntp702
Rp703
(dp704
g272
F0.07399148215736548
sg279
g2
(g280
g281
F0.0024499506448076797
tp705
Rp706
sg284
Nsg273
(dp707
g703
F1.0
ssbF-8.723702852816103
ssbag2
(g268
g4
Ntp708
Rp709
(dp710
g272
F0.0313549604948555
sg273
(dp711
g2
(g275
g4
Ntp712
Rp713
(dp714
g272
F0.00232
sg279
g2
(g280
g281
F0.0006294636427148808
tp715
Rp716
sg284
Nsg273
(dp717
g713
F1.0
ssbF13.515069178817024
sg703
F-0.42376446018704694
ssbag2
(g268
g4
Ntp718
Rp719
(dp720
g272
F0.0
sg273
(dp721
g2
(g275
g4
Ntp722
Rp723
(dp724
g272
F0.0
sg279
g2
(g280
g281
F0.0
tp725
Rp726
sg284
Nsg273
(dp727
g723
F1.0
ssbF42.1906592657124
sg2
(g275
g4
Ntp728
Rp729
(dp730
g272
F0.023701928753995138
sg279
g2
(g280
g281
F0.004516787767388878
tp731
Rp732
sg284
Nsg273
(dp733
g729
F1.0
ssbF0.0
ssbag2
(g268
g4
Ntp734
Rp735
(dp736
g272
F1.4412329205167356
sg273
(dp737
g2
(g275
g4
Ntp738
Rp739
(dp740
g272
F0.03416
sg279
g2
(g280
g281
F0.006410282049072042
tp741
Rp742
sg284
Nsg273
(dp743
g739
F1.0
ssbF42.1906592657124
sg729
F-60.80656707204915
ssbag2
(g268
g4
Ntp744
Rp745
(dp746
g272
F0.6538640315507387
sg273
(dp747
g2
(g275
g4
Ntp748
Rp749
(dp750
g272
F0.0509
sg279
g2
(g280
g281
F0.0030338300911683593
tp751
Rp752
sg284
Nsg273
(dp753
g749
F1.0
ssbF12.84605170040744
sg2
(g275
g4
Ntp754
Rp755
(dp756
g272
F0.07784493035850719
sg279
g2
(g280
g281
F0.0046482649005573475
tp757
Rp758
sg284
Nsg273
(dp759
g755
F1.0
ssbF-8.39957115433763
ssbag2
(g268
g4
Ntp760
Rp761
(dp762
g272
F0.03494126062510823
sg273
(dp763
g2
(g275
g4
Ntp764
Rp765
(dp766
g272
F0.0027199999999999998
sg279
g2
(g280
g281
F0.0008485208714176215
tp767
Rp768
sg284
Nsg273
(dp769
g765
F1.0
ssbF12.84605170040744
sg755
F-0.44885724046755116
ssbag2
(g268
g4
Ntp770
Rp771
(dp772
g272
F0.0
sg273
(dp773
g2
(g275
g4
Ntp774
Rp775
(dp776
g272
F0.0
sg279
g2
(g280
g281
F0.0
tp777
Rp778
sg284
Nsg273
(dp779
g775
F1.0
ssbF49.49070189221489
sg2
(g275
g4
Ntp780
Rp781
(dp782
g272
F0.020205815673778202
sg279
g2
(g280
g281
F0.003969169081755432
tp783
Rp784
sg284
Nsg273
(dp785
g781
F1.0
ssbF0.0
ssbag2
(g268
g4
Ntp786
Rp787
(dp788
g272
F1.406525747776747
sg273
(dp789
g2
(g275
g4
Ntp790
Rp791
(dp792
g272
F0.02842
sg279
g2
(g280
g281
F0.005804297777843713
tp793
Rp794
sg284
Nsg273
(dp795
g791
F1.0
ssbF49.49070189221489
sg781
F-69.6099464869436
ssbag2
(g268
g4
Ntp796
Rp797
(dp798
g272
F0.6697092944293574
sg273
(dp799
g2
(g275
g4
Ntp800
Rp801
(dp802
g272
F0.05042
sg279
g2
(g280
g281
F0.005623518043426106
tp803
Rp804
sg284
Nsg273
(dp805
g801
F1.0
ssbF13.282611948222083
sg2
(g275
g4
Ntp806
Rp807
(dp808
g272
F0.0752863972762415
sg279
g2
(g280
g281
F0.006516285033500347
tp809
Rp810
sg284
Nsg273
(dp811
g807
F1.0
ssbF-8.895488676022765
ssbag2
(g268
g4
Ntp812
Rp813
(dp814
g272
F0.03480044330434186
sg273
(dp815
g2
(g275
g4
Ntp816
Rp817
(dp818
g272
F0.00262
sg279
g2
(g280
g281
F0.00040615890342892054
tp819
Rp820
sg284
Nsg273
(dp821
g817
F1.0
ssbF13.282611948222083
sg807
F-0.46224078403767643
ssbag2
(g268
g4
Ntp822
Rp823
(dp824
g272
F0.0
sg273
(dp825
g2
(g275
g4
Ntp826
Rp827
(dp828
g272
F0.0
sg279
g2
(g280
g281
F0.0
tp829
Rp830
sg284
Nsg273
(dp831
g827
F1.0
ssbF44.05340551245426
sg2
(g275
g4
Ntp832
Rp833
(dp834
g272
F0.02269972067692455
sg279
g2
(g280
g281
F0.0033262452677186105
tp835
Rp836
sg284
Nsg273
(dp837
g833
F1.0
ssbF0.0
ssbag2
(g268
g4
Ntp838
Rp839
(dp840
g272
F1.4370220878162578
sg273
(dp841
g2
(g275
g4
Ntp842
Rp843
(dp844
g272
F0.032619999999999996
sg279
g2
(g280
g281
F0.005190838679777819
tp845
Rp846
sg284
Nsg273
(dp847
g843
F1.0
ssbF44.05340551245426
sg833
F-63.30571676492326
ssbag2
(g268
g4
Ntp848
Rp849
(dp850
g272
F0.6588008768227471
sg273
(dp851
g2
(g275
g4
Ntp852
Rp853
(dp854
g272
F0.05156000000000001
sg279
g2
(g280
g281
F0.00259356236489317
tp855
Rp856
sg284
Nsg273
(dp857
g853
F1.0
ssbF12.777363786321702
sg2
(g275
g4
Ntp858
Rp859
(dp860
g272
F0.07826340524721619
sg279
g2
(g280
g281
F0.00430696347985296
tp861
Rp862
sg284
Nsg273
(dp863
g859
F1.0
ssbF-8.417738465911953
ssbag2
(g268
g4
Ntp864
Rp865
(dp866
g272
F0.03092122036289852
sg273
(dp867
g2
(g275
g4
Ntp868
Rp869
(dp870
g272
F0.00242
sg279
g2
(g280
g281
F0.0006651889671611743
tp871
Rp872
sg284
Nsg273
(dp873
g869
F1.0
ssbF12.777363786321702
sg859
F-0.3950916812937727
ssbag2
(g268
g4
Ntp874
Rp875
(dp876
g272
F0.0
sg273
(dp877
g2
(g275
g4
Ntp878
Rp879
(dp880
g272
F0.0
sg279
g2
(g280
g281
F0.0
tp881
Rp882
sg284
Nsg273
(dp883
g879
F1.0
ssbF45.45455341099557
sg2
(g275
g4
Ntp884
Rp885
(dp886
g272
F0.021999996149078816
sg279
g2
(g280
g281
F0.003356030605306958
tp887
Rp888
sg284
Nsg273
(dp889
g885
F1.0
ssbF0.0
ssbag2
(g268
g4
Ntp890
Rp891
(dp892
g272
F1.43727297885568
sg273
(dp893
g2
(g275
g4
Ntp894
Rp895
(dp896
g272
F0.031619999999999995
sg279
g2
(g280
g281
F0.004906851267200559
tp897
Rp898
sg284
Nsg273
(dp899
g895
F1.0
ssbF45.45455341099557
sg885
F-65.33060138357621
ssbag2
(g268
g4
Ntp900
Rp901
(dp902
g272
F0.6495424417800575
sg273
(dp903
g2
(g275
g4
Ntp904
Rp905
(dp906
g272
F0.04896
sg279
g2
(g280
g281
F0.0036609089592883467
tp907
Rp908
sg284
Nsg273
(dp909
g905
F1.0
ssbF13.266798238971763
sg2
(g275
g4
Ntp910
Rp911
(dp912
g272
F0.07537613687848656
sg279
g2
(g280
g281
F0.008228823765310374
tp913
Rp914
sg284
Nsg273
(dp915
g911
F1.0
ssbF-8.617348522745086
ssbag2
(g268
g4
Ntp916
Rp917
(dp918
g272
F0.0315749798087528
sg273
(dp919
g2
(g275
g4
Ntp920
Rp921
(dp922
g272
F0.00238
sg279
g2
(g280
g281
F0.0005149538535858136
tp923
Rp924
sg284
Nsg273
(dp925
g921
F1.0
ssbF13.266798238971763
sg911
F-0.4188988865223306
ssbag2
(g268
g4
Ntp926
Rp927
(dp928
g272
F0.0
sg273
(dp929
g2
(g275
g4
Ntp930
Rp931
(dp932
g272
F0.0
sg279
g2
(g280
g281
F0.0
tp933
Rp934
sg284
Nsg273
(dp935
g931
F1.0
ssbF44.28601139261701
sg2
(g275
g4
Ntp936
Rp937
(dp938
g272
F0.02258049367179433
sg279
g2
(g280
g281
F0.0024254490558430577
tp939
Rp940
sg284
Nsg273
(dp941
g937
F1.0
ssbF0.0
ssbag2
(g268
g4
Ntp942
Rp943
(dp944
g272
F1.4437239713993149
sg273
(dp945
g2
(g275
g4
Ntp946
Rp947
(dp948
g272
F0.032600000000000004
sg279
g2
(g280
g281
F0.003966528632023521
tp949
Rp950
sg284
Nsg273
(dp951
g947
F1.0
ssbF44.28601139261701
sg937
F-63.93677624518433
ssbag2
(g268
g4
Ntp952
Rp953
(dp954
g272
F0.6094752670630242
sg273
(dp955
g2
(g275
g4
Ntp956
Rp957
(dp958
g272
F0.049159999999999995
sg279
g2
(g280
g281
F0.003831695431565287
tp959
Rp960
sg284
Nsg273
(dp961
g957
F1.0
ssbF12.397788182730357
sg2
(g275
g4
Ntp962
Rp963
(dp964
g272
F0.0806595487244218
sg279
g2
(g280
g281
F0.006199431024392082
tp965
Rp966
sg284
Nsg273
(dp967
g963
F1.0
ssbF-7.55614526366039
ssbag2
(g268
g4
Ntp968
Rp969
(dp970
g272
F0.033474028093371966
sg273
(dp971
g2
(g275
g4
Ntp972
Rp973
(dp974
g272
F0.0027
sg279
g2
(g280
g281
F0.0007901901297765757
tp975
Rp976
sg284
Nsg273
(dp977
g973
F1.0
ssbF12.397788182730357
sg963
F-0.4150039099243909
ssbag2
(g268
g4
Ntp978
Rp979
(dp980
g272
F0.0
sg273
(dp981
g2
(g275
g4
Ntp982
Rp983
(dp984
g272
F0.0
sg279
g2
(g280
g281
F0.0
tp985
Rp986
sg284
Nsg273
(dp987
g983
F1.0
ssbF46.70792904961671
sg2
(g275
g4
Ntp988
Rp989
(dp990
g272
F0.02140964115402599
sg279
g2
(g280
g281
F0.002997927930127524
tp991
Rp992
sg284
Nsg273
(dp993
g989
F1.0
ssbF0.0
ssbag2
(g268
g4
Ntp994
Rp995
(dp996
g272
F1.4516824348620876
sg273
(dp997
g2
(g275
g4
Ntp998
Rp999
(dp1000
g272
F0.031080000000000003
sg279
g2
(g280
g281
F0.004607895230975132
tp1001
Rp1002
sg284
Nsg273
(dp1003
g999
F1.0
ssbF46.70792904961671
sg989
F-67.80508017011323
ssbag2
(g268
g4
Ntp1004
Rp1005
(dp1006
g272
F0.63448991420015
sg273
(dp1007
g2
(g275
g4
Ntp1008
Rp1009
(dp1010
g272
F0.047560000000000005
sg279
g2
(g280
g281
F0.004116823073973185
tp1011
Rp1012
sg284
Nsg273
(dp1013
g1009
F1.0
ssbF13.340830828430404
sg2
(g275
g4
Ntp1014
Rp1015
(dp1016
g272
F0.07495785029137152
sg279
g2
(g280
g281
F0.0072303416952784775
tp1017
Rp1018
sg284
Nsg273
(dp1019
g1015
F1.0
ssbF-8.464622607689522
ssbag2
(g268
g4
Ntp1020
Rp1021
(dp1022
g272
F0.034686160153919045
sg273
(dp1023
g2
(g275
g4
Ntp1024
Rp1025
(dp1026
g272
F0.0026
sg279
g2
(g280
g281
F0.0007603608068958187
tp1027
Rp1028
sg284
Nsg273
(dp1029
g1025
F1.0
ssbF13.340830828430404
sg1015
F-0.4627421947012774
ssbag2
(g268
g4
Ntp1030
Rp1031
(dp1032
g272
F0.0009787254588277277
sg273
(dp1033
g2
(g275
g4
Ntp1034
Rp1035
(dp1036
g272
F2e-05
sg279
g2
(g280
g281
F5.552890210395598e-05
tp1037
Rp1038
sg284
Nsg273
(dp1039
g1035
F1.0
ssbF48.93627294138638
sg2
(g275
g4
Ntp1040
Rp1041
(dp1042
g272
F0.020434739711333434
sg279
g2
(g280
g281
F0.0024620586959117853
tp1043
Rp1044
sg284
Nsg273
(dp1045
g1041
F1.0
ssbF-0.0478951761878773
ssbag2
(g268
g4
Ntp1046
Rp1047
(dp1048
g272
F1.4328540717237928
sg273
(dp1049
g2
(g275
g4
Ntp1050
Rp1051
(dp1052
g272
F0.029279999999999994
sg279
g2
(g280
g281
F0.0034559771868346223
tp1053
Rp1054
sg284
Nsg273
(dp1055
g1051
F1.0
ssbF48.93627294138638
sg1041
F-70.11853793905235
ssbag2
(g268
g4
Ntp1056
Rp1057
(dp1058
g272
F0.6645064412271012
sg273
(dp1059
g2
(g275
g4
Ntp1060
Rp1061
(dp1062
g272
F0.05144
sg279
g2
(g280
g281
F0.005480649190128293
tp1063
Rp1064
sg284
Nsg273
(dp1065
g1061
F1.0
ssbF12.918087893217365
sg2
(g275
g4
Ntp1066
Rp1067
(dp1068
g272
F0.07741083729001794
sg279
g2
(g280
g281
F0.009301326296013924
tp1069
Rp1070
sg284
Nsg273
(dp1071
g1067
F1.0
ssbF-8.584152613380773
ssbag2
(g268
g4
Ntp1072
Rp1073
(dp1074
g272
F0.03487883731168689
sg273
(dp1075
g2
(g275
g4
Ntp1076
Rp1077
(dp1078
g272
F0.0027
sg279
g2
(g280
g281
F0.0007293124653604912
tp1079
Rp1080
sg284
Nsg273
(dp1081
g1077
F1.0
ssbF12.918087893217365
sg1067
F-0.4505678860056005
ssbag2
(g268
g4
Ntp1082
Rp1083
(dp1084
g272
F0.0
sg273
(dp1085
g2
(g275
g4
Ntp1086
Rp1087
(dp1088
g272
F0.0
sg279
g2
(g280
g281
F0.0
tp1089
Rp1090
sg284
Nsg273
(dp1091
g1087
F1.0
ssbF41.9266878154498
sg2
(g275
g4
Ntp1092
Rp1093
(dp1094
g272
F0.023851156676190012
sg279
g2
(g280
g281
F0.0010388185423305513
tp1095
Rp1096
sg284
Nsg273
(dp1097
g1093
F1.0
ssbF0.0
ssbag2
(g268
g4
Ntp1098
Rp1099
(dp1100
g272
F1.4397624595825462
sg273
(dp1101
g2
(g275
g4
Ntp1102
Rp1103
(dp1104
g272
F0.03434
sg279
g2
(g280
g281
F0.0010666753768195255
tp1105
Rp1106
sg284
Nsg273
(dp1107
g1103
F1.0
ssbF41.9266878154498
sg1093
F-60.36447117132158
ssbag2
(g268
g4
Ntp1108
Rp1109
(dp1110
g272
F0.6718990862657356
sg273
(dp1111
g2
(g275
g4
Ntp1112
Rp1113
(dp1114
g272
F0.04698
sg279
g2
(g280
g281
F0.004185347106531879
tp1115
Rp1116
sg284
Nsg273
(dp1117
g1113
F1.0
ssbF14.301811116767466
sg2
(g275
g4
Ntp1118
Rp1119
(dp1120
g272
F0.0699212143018445
sg279
g2
(g280
g281
F0.00829616909043986
tp1121
Rp1122
sg284
Nsg273
(dp1123
g1119
F1.0
ssbF-9.6093738213012
ssbag2
(g268
g4
Ntp1124
Rp1125
(dp1126
g272
F0.03604056401425401
sg273
(dp1127
g2
(g275
g4
Ntp1128
Rp1129
(dp1130
g272
F0.00252
sg279
g2
(g280
g281
F0.000467894845867981
tp1131
Rp1132
sg284
Nsg273
(dp1133
g1129
F1.0
ssbF14.301811116767466
sg1119
F-0.5154453390736276
ssbag2
(g268
g4
Ntp1134
Rp1135
(dp1136
g272
F0.0017463816075130752
sg273
(dp1137
g2
(g275
g4
Ntp1138
Rp1139
(dp1140
g272
F4e-05
sg279
g2
(g280
g281
F6.80087380658257e-05
tp1141
Rp1142
sg284
Nsg273
(dp1143
g1139
F1.0
ssbF43.65954018782688
sg2
(g275
g4
Ntp1144
Rp1145
(dp1146
g272
F0.022904501414763394
sg279
g2
(g280
g281
F0.0032412503673359882
tp1147
Rp1148
sg284
Nsg273
(dp1149
g1145
F1.0
ssbF-0.07624621797649882
ssbag2
(g268
g4
Ntp1150
Rp1151
(dp1152
g272
F1.406710384851782
sg273
(dp1153
g2
(g275
g4
Ntp1154
Rp1155
(dp1156
g272
F0.03222
sg279
g2
(g280
g281
F0.00433285586328109
tp1157
Rp1158
sg284
Nsg273
(dp1159
g1155
F1.0
ssbF43.65954018782688
sg1145
F-61.41632858006979
ssbag2
(g268
g4
Ntp1160
Rp1161
(dp1162
g272
F0.6663331990311002
sg273
(dp1163
g2
(g275
g4
Ntp1164
Rp1165
(dp1166
g272
F0.05022000000000001
sg279
g2
(g280
g281
F0.00453028728634308
tp1167
Rp1168
sg284
Nsg273
(dp1169
g1165
F1.0
ssbF13.268283533076467
sg2
(g275
g4
Ntp1170
Rp1171
(dp1172
g272
F0.07536769903259173
sg279
g2
(g280
g281
F0.009723630468297375
tp1173
Rp1174
sg284
Nsg273
(dp1175
g1171
F1.0
ssbF-8.841097812246511
ssbag2
(g268
g4
Ntp1176
Rp1177
(dp1178
g272
F0.031843880479383524
sg273
(dp1179
g2
(g275
g4
Ntp1180
Rp1181
(dp1182
g272
F0.0024000000000000002
sg279
g2
(g280
g281
F0.0005340598792462702
tp1183
Rp1184
sg284
Nsg273
(dp1185
g1181
F1.0
ssbF13.268283533076467
sg1171
F-0.4225136349938595
ssbag2
(g268
g4
Ntp1186
Rp1187
(dp1188
g272
F0.0009422067877836942
sg273
(dp1189
g2
(g275
g4
Ntp1190
Rp1191
(dp1192
g272
F2e-05
sg279
g2
(g280
g281
F5.552890210395598e-05
tp1193
Rp1194
sg284
Nsg273
(dp1195
g1191
F1.0
ssbF47.11033938918471
sg2
(g275
g4
Ntp1196
Rp1197
(dp1198
g272
F0.02122676280760511
sg279
g2
(g280
g281
F0.0024700352190345234
tp1199
Rp1200
sg284
Nsg273
(dp1201
g1197
F1.0
ssbF-0.04438768154728336
ssbag2
(g268
g4
Ntp1202
Rp1203
(dp1204
g272
F1.441576385309052
sg273
(dp1205
g2
(g275
g4
Ntp1206
Rp1207
(dp1208
g272
F0.0306
sg279
g2
(g280
g281
F0.0038731160431306425
tp1209
Rp1210
sg284
Nsg273
(dp1211
g1207
F1.0
ssbF47.11033938918471
sg1197
F-67.91315276734355
ssbag2
(g268
g4
Ntp1212
Rp1213
(dp1214
g272
F0.6600400047405993
sg273
(dp1215
g2
(g275
g4
Ntp1216
Rp1217
(dp1218
g272
F0.04832000000000001
sg279
g2
(g280
g281
F0.004630424596086306
tp1219
Rp1220
sg284
Nsg273
(dp1221
g1217
F1.0
ssbF13.659768310028957
sg2
(g275
g4
Ntp1222
Rp1223
(dp1224
g272
F0.07320768385696581
sg279
g2
(g280
g281
F0.009856746237810266
tp1225
Rp1226
sg284
Nsg273
(dp1227
g1223
F1.0
ssbF-9.015993540107
ssbag2
(g268
g4
Ntp1228
Rp1229
(dp1230
g272
F0.028685513451060813
sg273
(dp1231
g2
(g275
g4
Ntp1232
Rp1233
(dp1234
g272
F0.0021000000000000003
sg279
g2
(g280
g281
F0.00039264863229550816
tp1235
Rp1236
sg284
Nsg273
(dp1237
g1233
F1.0
ssbF13.659768310028957
sg1223
F-0.3918374675957098
ssbag2
(g268
g4
Ntp1238
Rp1239
(dp1240
g272
F0.0
sg273
(dp1241
g2
(g275
g4
Ntp1242
Rp1243
(dp1244
g272
F0.0
sg279
g2
(g280
g281
F0.0
tp1245
Rp1246
sg284
Nsg273
(dp1247
g1243
F1.0
ssbF51.23623419980012
sg2
(g275
g4
Ntp1248
Rp1249
(dp1250
g272
F0.0195174375247879
sg279
g2
(g280
g281
F0.003215191599094508
tp1251
Rp1252
sg284
Nsg273
(dp1253
g1249
F1.0
ssbF0.0
ssbag2
(g268
g4
Ntp1254
Rp1255
(dp1256
g272
F1.4479359784863515
sg273
(dp1257
g2
(g275
g4
Ntp1258
Rp1259
(dp1260
g272
F0.02826
sg279
g2
(g280
g281
F0.004657150457848297
tp1261
Rp1262
sg284
Nsg273
(dp1263
g1259
F1.0
ssbF51.23623419980012
sg1249
F-74.18678690004346
ssbag2
(g268
g4
Ntp1264
Rp1265
(dp1266
g272
F0.6695080105025472
sg273
(dp1267
g2
(g275
g4
Ntp1268
Rp1269
(dp1270
g272
F0.048960000000000004
sg279
g2
(g280
g281
F0.002227394325420001
tp1271
Rp1272
sg284
Nsg273
(dp1273
g1269
F1.0
ssbF13.674591717780784
sg2
(g275
g4
Ntp1274
Rp1275
(dp1276
g272
F0.07312832592286621
sg279
g2
(g280
g281
F0.0013105584654117316
tp1277
Rp1278
sg284
Nsg273
(dp1279
g1275
F1.0
ssbF-9.155248695406021
ssbag2
(g268
g4
Ntp1280
Rp1281
(dp1282
g272
F0.033092511957029495
sg273
(dp1283
g2
(g275
g4
Ntp1284
Rp1285
(dp1286
g272
F0.00242
sg279
g2
(g280
g281
F0.0007674246953638592
tp1287
Rp1288
sg284
Nsg273
(dp1289
g1285
F1.0
ssbF13.674591717780784
sg1275
F-0.45252658992815703
ssbag2
(g268
g4
Ntp1290
Rp1291
(dp1292
g272
F0.0
sg273
(dp1293
g2
(g275
g4
Ntp1294
Rp1295
(dp1296
g272
F0.0
sg279
g2
(g280
g281
F0.0
tp1297
Rp1298
sg284
Nsg273
(dp1299
g1295
F1.0
ssbF50.15833628558689
sg2
(g275
g4
Ntp1300
Rp1301
(dp1302
g272
F0.01993686541567672
sg279
g2
(g280
g281
F0.002815406648720987
tp1303
Rp1304
sg284
Nsg273
(dp1305
g1301
F1.0
ssbF0.0
ssbag2
(g268
g4
Ntp1306
Rp1307
(dp1308
g272
F1.4435569182991907
sg273
(dp1309
g2
(g275
g4
Ntp1310
Rp1311
(dp1312
g272
F0.02878
sg279
g2
(g280
g281
F0.004824467849050384
tp1313
Rp1314
sg284
Nsg273
(dp1315
g1311
F1.0
ssbF50.15833628558689
sg1301
F-72.40641335543629
ssbag2
(g268
g4
Ntp1316
Rp1317
(dp1318
g272
F0.6508237306855088
sg273
(dp1319
g2
(g275
g4
Ntp1320
Rp1321
(dp1322
g272
F0.04838
sg279
g2
(g280
g281
F0.005018688532596965
tp1323
Rp1324
sg284
Nsg273
(dp1325
g1321
F1.0
ssbF13.452330109249873
sg2
(g275
g4
Ntp1326
Rp1327
(dp1328
g272
F0.07433656414009616
sg279
g2
(g280
g281
F0.007585952601755723
tp1329
Rp1330
sg284
Nsg273
(dp1331
g1327
F1.0
ssbF-8.755095668115
ssbag2
(g268
g4
Ntp1332
Rp1333
(dp1334
g272
F0.030940359251274707
sg273
(dp1335
g2
(g275
g4
Ntp1336
Rp1337
(dp1338
g272
F0.0023
sg279
g2
(g280
g281
F0.00042106874819922857
tp1339
Rp1340
sg284
Nsg273
(dp1341
g1337
F1.0
ssbF13.452330109249873
sg1327
F-0.4162199263469306
ssbag2
(g268
g4
Ntp1342
Rp1343
(dp1344
g272
F0.0
sg273
(dp1345
g2
(g275
g4
Ntp1346
Rp1347
(dp1348
g272
F0.0
sg279
g2
(g280
g281
F0.0
tp1349
Rp1350
sg284
Nsg273
(dp1351
g1347
F1.0
ssbF43.880767661838114
sg2
(g275
g4
Ntp1352
Rp1353
(dp1354
g272
F0.022789027022188407
sg279
g2
(g280
g281
F0.001589284286578553
tp1355
Rp1356
sg284
Nsg273
(dp1357
g1353
F1.0
ssbF0.0
ssbag2
(g268
g4
Ntp1358
Rp1359
(dp1360
g272
F1.4349011025421063
sg273
(dp1361
g2
(g275
g4
Ntp1362
Rp1363
(dp1364
g272
F0.0327
sg279
g2
(g280
g281
F0.003141189058364082
tp1365
Rp1366
sg284
Nsg273
(dp1367
g1363
F1.0
ssbF43.880767661838114
sg1353
F-62.96456189836552
ssbag2
(g268
g4
Ntp1368
Rp1369
(dp1370
g272
F0.640477273131815
sg273
(dp1371
g2
(g275
g4
Ntp1372
Rp1373
(dp1374
g272
F0.049120000000000004
sg279
g2
(g280
g281
F0.004345291819415468
tp1375
Rp1376
sg284
Nsg273
(dp1377
g1373
F1.0
ssbF13.039032433465287
sg2
(g275
g4
Ntp1378
Rp1379
(dp1380
g272
F0.07669280716209073
sg279
g2
(g280
g281
F0.00877643610419932
tp1381
Rp1382
sg284
Nsg273
(dp1383
g1379
F1.0
ssbF-8.351203937263142
ssbag2
(g268
g4
Ntp1384
Rp1385
(dp1386
g272
F0.034423045624348364
sg273
(dp1387
g2
(g275
g4
Ntp1388
Rp1389
(dp1390
g272
F0.0026400000000000004
sg279
g2
(g280
g281
F0.0008403047684449932
tp1391
Rp1392
sg284
Nsg273
(dp1393
g1389
F1.0
ssbF13.039032433465287
sg1379
F-0.44884320835453373
ssbag2
(g268
g4
Ntp1394
Rp1395
(dp1396
g272
F0.0018798841089744203
sg273
(dp1397
g2
(g275
g4
Ntp1398
Rp1399
(dp1400
g272
F4e-05
sg279
g2
(g280
g281
F6.80087380658257e-05
tp1401
Rp1402
sg284
Nsg273
(dp1403
g1399
F1.0
ssbF46.9971027243605
sg2
(g275
g4
Ntp1404
Rp1405
(dp1406
g272
F0.021277907403463393
sg279
g2
(g280
g281
F0.004043955077326442
tp1407
Rp1408
sg284
Nsg273
(dp1409
g1405
F1.0
ssbF-0.08834910657936375
ssbag2
(g268
g4
Ntp1410
Rp1411
(dp1412
g272
F1.4390512854199187
sg273
(dp1413
g2
(g275
g4
Ntp1414
Rp1415
(dp1416
g272
F0.03062
sg279
g2
(g280
g281
F0.005604981864764545
tp1417
Rp1418
sg284
Nsg273
(dp1419
g1415
F1.0
ssbF46.9971027243605
sg1405
F-67.63124108650295
ssbag2
(g268
g4
Ntp1420
Rp1421
(dp1422
g272
F0.6478270625585931
sg273
(dp1423
g2
(g275
g4
Ntp1424
Rp1425
(dp1426
g272
F0.0482
sg279
g2
(g280
g281
F0.003826058213712179
tp1427
Rp1428
sg284
Nsg273
(dp1429
g1425
F1.0
ssbF13.440395488767493
sg2
(g275
g4
Ntp1430
Rp1431
(dp1432
g272
F0.07440257251624235
sg279
g2
(g280
g281
F0.009945243058277837
tp1433
Rp1434
sg284
Nsg273
(dp1435
g1431
F1.0
ssbF-8.707051929114012
ssbag2
(g268
g4
Ntp1436
Rp1437
(dp1438
g272
F0.030644101714389884
sg273
(dp1439
g2
(g275
g4
Ntp1440
Rp1441
(dp1442
g272
F0.00228
sg279
g2
(g280
g281
F0.0004424925361215612
tp1443
Rp1444
sg284
Nsg273
(dp1445
g1441
F1.0
ssbF13.440395488767493
sg1431
F-0.411868846439418
ssbag2
(g268
g4
Ntp1446
Rp1447
(dp1448
g272
F0.00106299029185278
sg273
(dp1449
g2
(g275
g4
Ntp1450
Rp1451
(dp1452
g272
F2e-05
sg279
g2
(g280
g281
F5.552890210395598e-05
tp1453
Rp1454
sg284
Nsg273
(dp1455
g1451
F1.0
ssbF53.149514592638994
sg2
(g275
g4
Ntp1456
Rp1457
(dp1458
g272
F0.01881484727874629
sg279
g2
(g280
g281
F0.002411747671404522
tp1459
Rp1460
sg284
Nsg273
(dp1461
g1457
F1.0
ssbF-0.05649741802866291
ssbag2
(g268
g4
Ntp1462
Rp1463
(dp1464
g272
F1.4329109134175475
sg273
(dp1465
g2
(g275
g4
Ntp1466
Rp1467
(dp1468
g272
F0.02696
sg279
g2
(g280
g281
F0.0039024612550610264
tp1469
Rp1470
sg284
Nsg273
(dp1471
g1467
F1.0
ssbF53.149514592638994
sg1457
F-76.1585195026376
ssbag2
(g268
g4
Ntp1472
Rp1473
(dp1474
g272
F0.6360232276747758
sg273
(dp1475
g2
(g275
g4
Ntp1476
Rp1477
(dp1478
g272
F0.047560000000000005
sg279
g2
(g280
g281
F0.00436317266147094
tp1479
Rp1480
sg284
Nsg273
(dp1481
g1477
F1.0
ssbF13.373070388451971
sg2
(g275
g4
Ntp1482
Rp1483
(dp1484
g272
F0.07477714324030842
sg279
g2
(g280
g281
F0.00512388625983118
tp1485
Rp1486
sg284
Nsg273
(dp1487
g1483
F1.0
ssbF-8.50558339238519
ssbag2
(g268
g4
Ntp1488
Rp1489
(dp1490
g272
F0.029420754854594333
sg273
(dp1491
g2
(g275
g4
Ntp1492
Rp1493
(dp1494
g272
F0.0021999999999999997
sg279
g2
(g280
g281
F0.0006019189553771446
tp1495
Rp1496
sg284
Nsg273
(dp1497
g1493
F1.0
ssbF13.373070388451971
sg1483
F-0.39344582555188007
ssbag2
(g268
g4
Ntp1498
Rp1499
(dp1500
g272
F0.0017919109331089383
sg273
(dp1501
g2
(g275
g4
Ntp1502
Rp1503
(dp1504
g272
F4e-05
sg279
g2
(g280
g281
F6.80087380658257e-05
tp1505
Rp1506
sg284
Nsg273
(dp1507
g1503
F1.0
ssbF44.797773327723455
sg2
(g275
g4
Ntp1508
Rp1509
(dp1510
g272
F0.02232253805751417
sg279
g2
(g280
g281
F0.0020948903052661312
tp1511
Rp1512
sg284
Nsg273
(dp1513
g1509
F1.0
ssbF-0.08027361980488364
ssbag2
(g268
g4
Ntp1514
Rp1515
(dp1516
g272
F1.4371125683533685
sg273
(dp1517
g2
(g275
g4
Ntp1518
Rp1519
(dp1520
g272
F0.032080000000000004
sg279
g2
(g280
g281
F0.003471555757845552
tp1521
Rp1522
sg284
Nsg273
(dp1523
g1519
F1.0
ssbF44.797773327723455
sg1509
F-64.37944308351669
ssbatp1524
bsS'# groups'
p1525
I2
sS'xs type'
p1526
S'scatter matrix'
p1527
s.