(dp0
S'domain'
p1
ccopy_reg
_reconstructor
p2
(copenmc.universe
Cell
p3
c__builtin__
object
p4
Ntp5
Rp6
(dp7
S'_type'
p8
S'normal'
p9
sS'_rotation'
p10
NsS'_fill'
p11
g2
(copenmc.material
Material
p12
g4
Ntp13
Rp14
(dp15
S'_density_units'
p16
S'g/cm3'
p17
sS'_density'
p18
F0.07425478275227912
sS'_sab'
p19
NsS'_name'
p20
S''
p21
sS'_nuclides'
p22
(dp23
sS'_elements'
p24
(dp25
sS'_id'
p26
I10003
sbsg20
g21
sS'_translation'
p27
NsS'_offset'
p28
Nsg26
I10017
sS'_surfaces'
p29
(dp30
I10006
(g2
(copenmc.surface
ZCylinder
p31
g4
Ntp32
Rp33
(dp34
g8
S'z-cylinder'
p35
sS'_R'
p36
NsS'_coeffs'
p37
(dp38
S'y0'
p39
F0.0
sS'x0'
p40
F0.0
sS'R'
p41
F0.48387
ssg20
g21
sS'_bc_type'
p42
S'transmission'
p43
sg26
I10006
sS'_x0'
p44
NsS'_coeff_keys'
p45
(lp46
g40
ag39
ag41
asS'_y0'
p47
Nsbcnumpy.core.multiarray
scalar
p48
(cnumpy
dtype
p49
(S'i8'
p50
I0
I1
tp51
Rp52
(I3
S'<'
p53
NNNI-1
I-1
I0
tp54
bS'\x01\x00\x00\x00\x00\x00\x00\x00'
p55
tp56
Rp57
tp58
ssbsS'group bounds'
p59
cnumpy.core.multiarray
_reconstruct
p60
(cnumpy
ndarray
p61
(I0
tp62
S'b'
p63
tp64
Rp65
(I1
(I3
tp66
g49
(S'f8'
p67
I0
I1
tp68
Rp69
(I3
S'<'
p70
NNNI-1
I-1
I0
tp71
bI00
S'\x00\x00\x00\x00\x00\x00\x00\x00\xf1h\xe3\x88\xb5\xf8\xa4>\x00\x00\x00\x00\x00\x00$@'
p72
tp73
bsS'tallies'
p74
(dp75
S'nu-fission-in'
p76
g2
(copenmc.tallies
Tally
p77
g4
Ntp78
Rp79
(dp80
S'_num_tot_score_bins'
p81
I1
sS'_label'
p82
S'2 groups'
p83
sS'_filters'
p84
(lp85
g2
(copenmc.tallies
Filter
p86
g4
Ntp87
Rp88
(dp89
S'_mesh'
p90
Nsg8
S'distribcell'
p91
sg28
I10
sS'_stride'
p92
I1
sS'_bin_edges'
p93
(lp94
I10017
asbag2
(g86
g4
Ntp95
Rp96
(dp97
g90
Nsg8
S'energy'
p98
sg28
I0
sg92
I1
sg93
(lp99
F0.0
aF6.25e-07
aF10.0
asbasS'_sum_sq'
p100
g60
(g61
(I0
tp101
g63
tp102
Rp103
(I1
(I2
I1
tp104
g69
I00
S'\x00\x00\x00\x00\x00\x00\x00\x00\x00\x00\x00\x00\x00\x00\x00\x00'
p105
tp106
bsS'_std_dev'
p107
g60
(g61
(I0
tp108
g63
tp109
Rp110
(I1
(I2
I1
tp111
g69
I00
S'\x00\x00\x00\x00\x00\x00\x00\x00\x00\x00\x00\x00\x00\x00\x00\x00'
p112
tp113
bsS'_num_tot_filter_bins'
p114
I2
sS'_mean'
p115
g60
(g61
(I0
tp116
g63
tp117
Rp118
(I1
(I2
I1
tp119
g69
I00
S'\x00\x00\x00\x00\x00\x00\x00\x00\x00\x00\x00\x00\x00\x00\x00\x00'
p120
tp121
bsS'_num_realizations'
p122
I5
sg22
(lp123
sS'_sum'
p124
g60
(g61
(I0
tp125
g63
tp126
Rp127
(I1
(I2
I1
tp128
g69
I00
S'\x00\x00\x00\x00\x00\x00\x00\x00\x00\x00\x00\x00\x00\x00\x00\x00'
p129
tp130
bsS'_estimator'
p131
S'analog'
p132
sS'_scores'
p133
(lp134
S'nu-fission'
p135
asg26
I10017
sbsS'nu-fission-out'
p136
g2
(g77
g4
Ntp137
Rp138
(dp139
g81
I1
sg82
S'2 groups'
p140
sg84
(lp141
g2
(g86
g4
Ntp142
Rp143
(dp144
g90
Nsg8
g91
sg28
I10
sg92
I1
sg93
(lp145
I10017
asbag2
(g86
g4
Ntp146
Rp147
(dp148
g90
Nsg8
S'energyout'
p149
sg28
I0
sg92
I1
sg93
(lp150
F0.0
aF6.25e-07
aF10.0
asbasg100
g60
(g61
(I0
tp151
g63
tp152
Rp153
(I1
(I2
I1
tp154
g69
I00
S'\x00\x00\x00\x00\x00\x00\x00\x00\x00\x00\x00\x00\x00\x00\x00\x00'
p155
tp156
bsg107
g60
(g61
(I0
tp157
g63
tp158
Rp159
(I1
(I2
I1
tp160
g69
I00
S'\x00\x00\x00\x00\x00\x00\x00\x00\x00\x00\x00\x00\x00\x00\x00\x00'
p161
tp162
bsg114
I2
sg115
g60
(g61
(I0
tp163
g63
tp164
Rp165
(I1
(I2
I1
tp166
g69
I00
S'\x00\x00\x00\x00\x00\x00\x00\x00\x00\x00\x00\x00\x00\x00\x00\x00'
p167
tp168
bsg122
I5
sg22
(lp169
sg124
g60
(g61
(I0
tp170
g63
tp171
Rp172
(I1
(I2
I1
tp173
g69
I00
S'\x00\x00\x00\x00\x00\x00\x00\x00\x00\x00\x00\x00\x00\x00\x00\x00'
p174
tp175
bsg131
g132
sg133
(lp176
g135
asg26
I10018
sbssS'subdomain offsets'
p177
(dp178
I565
g48
(g52
S'\x00\x00\x00\x00\x00\x00\x00\x00'
p179
tp180
Rp181
ssS'offset'
p182
I10
sS'domain type'
p183
g91
sS'xs'
p184
g60
(g61
(I0
tp185
g63
tp186
Rp187
(I1
(I1
I2
tp188
g49
(S'O8'
p189
I0
I1
tp190
Rp191
(I3
S'|'
p192
NNNI-1
I-1
I63
tp193
bI00
(lp194
g2
(cuncertainties
Variable
p195
g4
Ntp196
Rp197
(dp198
S'_nominal_value'
p199
F0.0
sS'_std_dev'
p200
g2
(cuncertainties
CallableStdDev
p201
c__builtin__
float
p202
F0.0
tp203
Rp204
sS'tag'
p205
NsS'derivatives'
p206
(dp207
g197
F1.0
ssbag2
(g195
g4
Ntp208
Rp209
(dp210
g199
F0.0
sg200
g2
(g201
g202
F0.0
tp211
Rp212
sg205
Nsg206
(dp213
g209
F1.0
ssbatp214
bsS'# groups'
p215
I2
sS'xs type'
p216
S'chi'
p217
s.