(dp0
S'domain'
p1
ccopy_reg
_reconstructor
p2
(copenmc.universe
Cell
p3
c__builtin__
object
p4
Ntp5
Rp6
(dp7
S'_type'
p8
S'normal'
p9
sS'_rotation'
p10
NsS'_fill'
p11
g2
(copenmc.material
Material
p12
g4
Ntp13
Rp14
(dp15
S'_density_units'
p16
S'g/cm3'
p17
sS'_density'
p18
F0.07425478275227912
sS'_sab'
p19
NsS'_name'
p20
S''
p21
sS'_nuclides'
p22
(dp23
sS'_elements'
p24
(dp25
sS'_id'
p26
I10003
sbsg20
g21
sS'_translation'
p27
NsS'_offset'
p28
Nsg26
I10014
sS'_surfaces'
p29
(dp30
I10004
(g2
(copenmc.surface
ZCylinder
p31
g4
Ntp32
Rp33
(dp34
g8
S'z-cylinder'
p35
sS'_R'
p36
NsS'_coeffs'
p37
(dp38
S'y0'
p39
F0.0
sS'x0'
p40
F0.0
sS'R'
p41
F0.60198
ssg20
g21
sS'_bc_type'
p42
S'transmission'
p43
sg26
I10004
sS'_x0'
p44
NsS'_coeff_keys'
p45
(lp46
g40
ag39
ag41
asS'_y0'
p47
Nsbcnumpy.core.multiarray
scalar
p48
(cnumpy
dtype
p49
(S'i8'
p50
I0
I1
tp51
Rp52
(I3
S'<'
p53
NNNI-1
I-1
I0
tp54
bS'\x01\x00\x00\x00\x00\x00\x00\x00'
p55
tp56
Rp57
tp58
ssbsS'group bounds'
p59
cnumpy.core.multiarray
_reconstruct
p60
(cnumpy
ndarray
p61
(I0
tp62
S'b'
p63
tp64
Rp65
(I1
(I3
tp66
g49
(S'f8'
p67
I0
I1
tp68
Rp69
(I3
S'<'
p70
NNNI-1
I-1
I0
tp71
bI00
S'\x00\x00\x00\x00\x00\x00\x00\x00\xf1h\xe3\x88\xb5\xf8\xa4>\x00\x00\x00\x00\x00\x00$@'
p72
tp73
bsS'tallies'
p74
(dp75
S'nu-scatter'
p76
g2
(copenmc.tallies
Tally
p77
g4
Ntp78
Rp79
(dp80
S'_num_tot_score_bins'
p81
I1
sS'_label'
p82
S'2 groups'
p83
sS'_filters'
p84
(lp85
g2
(copenmc.tallies
Filter
p86
g4
Ntp87
Rp88
(dp89
S'_mesh'
p90
Nsg8
S'distribcell'
p91
sg28
I7
sS'_stride'
p92
I1
sS'_bin_edges'
p93
(lp94
I10014
asbag2
(g86
g4
Ntp95
Rp96
(dp97
g90
Nsg8
S'energy'
p98
sg28
I0
sg92
I24
sg93
(lp99
F0.0
aF6.25e-07
aF10.0
asbag2
(g86
g4
Ntp100
Rp101
(dp102
g90
Nsg8
S'energyout'
p103
sg28
I0
sg92
I48
sg93
(lp104
F0.0
aF6.25e-07
aF10.0
asbasS'_sum_sq'
p105
g60
(g61
(I0
tp106
g63
tp107
Rp108
(I1
(I96
I1
tp109
g69
I00
S"\x9e\x10\xb6\xafn\x82P?\x00\x00\x00\x00\x00\x00\x00\x00\xc8\x96\x8a2\xc0\xaa\xdf>\xc6\x92Ix\x08\x04f?\x92\x1a\xc1c\xcb4R?\x00\x00\x00\x00\x00\x00\x00\x00C\xad\xc4\x97\xe4\xdb\xd6> \x9a\xd4+\xc0\xd2d?^M\xb7O;\xbaI?\x00\x00\x00\x00\x00\x00\x00\x00c\x1b]J\x02y\xdb>j\xbf{h\x9b\xf2c?f\xf1\xa4}Z\xe2T?\x00\x00\x00\x00\x00\x00\x00\x00~\x90\xe1\x88 \x94\xd8>0\x07j\xc6\xdc\x94f?\x1f\x02\x1e\x83\xdb\xfbP?:\x8c0\xe2\x8eyE>\x00\xbd\xd3\x11~\xb1\xe0>\xef\xbe2\x88r\x16d?\xc8R\x14}xuR?:\x8c0\xe2\x8eyE>\x06\x99C\xd6C\xc9\xde>\x06\xab\xe2t/\x83c?\x9d\xb1\x16<\xd8\xa4S?\x00\x00\x00\x00\x00\x00\x00\x00}\x99\xc5\x17/\x0e\xd5>u\xa9\xb6@')e?\xbfd\x80\x97[RL?\x00\x00\x00\x00\x00\x00\x00\x00\x12\xce\x97\xac\xc4\x1b\xdd>\xa0T\xdafSCe?\\\x84\xb5s\x92\x94Q?\x00\x00\x00\x00\x00\x00\x00\x00\xf8u\xb7\x1d\xe0j\xd9>\xeex\xb4\xed\x8b\xb6`?\x19\x91\xa4{\x08pK?\x00\x00\x00\x00\x00\x00\x00\x004w\xf4\xbf\\\x8b\xe6>\xf8\n=(ISd?}\xb7\xcc+\xcfjN?\x00\x00\x00\x00\x00\x00\x00\x00~\x90\xe1\x88 \x94\xd8>7\xd4\x9cz\xac2f?\tw\xfcQ\xb3\x8bR?\x00\x00\x00\x00\x00\x00\x00\x00\x8c\xb3mA\x84\xf2\xdd>\x8dD\xaa \xed\x1cf?\x0c\xd2\xe7\xfeE+R?\x00\x00\x00\x00\x00\x00\x00\x00\x19\x1e\x98/q\xdc\xe0>\xee{P'\x0b%d?\xaf\xb5Rc\x9d\x85H?:\x8c0\xe2\x8eyU>\xd6\x10\x03\xfa\xd0G\xe1>\\/v\x90\x11/c?p\xa8\x8c=\x83\x9fK?\x00\x00\x00\x00\x00\x00\x00\x00\xea,\xa3&4(\xde>R;G\r;\xc6d?\xa9IS\xb1\xef\x92Q?\x00\x00\x00\x00\x00\x00\x00\x00\xb0f*\xe51\xda\xe5>6\x1b3\xa2\x17bc?L\x9aq\xe0\xf6\x80P?\x00\x00\x00\x00\x00\x00\x00\x00\x18\xf7\x93\xef!\xfa\xe8>!\x8f\x01U\xb39d?\xc3$C+\x83\xacO?\x00\x00\x00\x00\x00\x00\x00\x00\xf2rC\x19\xcbp\xe3>\xb4\x85\x8c\xec\xef\x11f?\t\xed\x0fs\xcd\rK?\x00\x00\x00\x00\x00\x00\x00\x00zhaG\xca\xb3\xde>\x7f\xd3`\xbf\xcc\x1cg?\xc2&\x9d\x0e\x85KN?\x00\x00\x00\x00\x00\x00\x00\x00\xb7|\xe2\x08k\xc6\xd6>\xda*59\x84Cb?V#\xe4Qd\x8cS?:\x8c0\xe2\x8eyE>T\x01\xb5 \xad\x94\xe2>L\x0f\xaf\x90^ye?+\x91\x97w\xcd\x92M?\x00\x00\x00\x00\x00\x00\x00\x00oc\xf5?\xa7\xbd\xe4>\xf2D\xc6Y\xc7\xa7f?\x10{\x1dHI\xd5G?\x00\x00\x00\x00\x00\x00\x00\x00\xb7\x8f&(\x8f\xb8\xe1>^\xb4\xf0\x8a\x1a+e?`\x1e\xf0\xc8q\nO?\x00\x00\x00\x00\x00\x00\x00\x00\xc8\xd0\xd2\x913\x7f\xe2>\x98\xc3\xcd-\x9d\xa4c?"
p110
tp111
bsS'_std_dev'
p112
g60
(g61
(I0
tp113
g63
tp114
Rp115
(I1
(I96
I1
tp116
g69
I00
S'`\\\xbdC\xe8\xb0o?\x00\x00\x00\x00\x00\x00\x00\x00\x132\xc3\xd5\xfb\xbd*??\x96\x97\xf8y8`?\x11\xba\x95\x92+[d?\x00\x00\x00\x00\x00\x00\x00\x00+\x83\x86\xf3\nC4?%\xe7\x17[\x8e8Y?\n{\x8aW\xc1wg?\x00\x00\x00\x00\x00\x00\x00\x00\xf7\xeaw\x17\x1b\xc5<?iR\xfd8\x13ZY?z\xb0\xb9G\xc6\xf3d?\x00\x00\x00\x00\x00\x00\x00\x00)\x16P\xa5\xa9Z;?\x80\xf4\xc7X\xe7\x0fc?I;\x08\x8f8\xadP?\x9f\xd5S\x8c\xf6\x1c\r?\x97g_\xd0;85?LY1q\x8d!`?\xa3\xfb\xdd\xd4\xb6\x19\\?\x9f\xd5S\x8c\xf6\x1c\r?H\x0e\xd9\xcf~r.?\xae\xdf\xe3\xbc\x16\x1f`?\xcb\x9b\xec9\xfd\x10h?\x00\x00\x00\x00\x00\x00\x00\x00Y5\xa1\xbe\x08\x0fB?^\x1d\x18gY\x89M?\x0b\xb6\xc7\xe6\x19sY?\x00\x00\x00\x00\x00\x00\x00\x00Q\xfd\x938\xcf\xbb2?\xf9H\xcbTa\xd6W?_\x94\x06nr\x17f?\x00\x00\x00\x00\x00\x00\x00\x00\xa3>\x86\xeb}m3?\xde\xb2\xba\xb4\x11\xd0f?\xe0\xe1V\xd9 \x11d?\x00\x00\x00\x00\x00\x00\x00\x00"=\xd0\xf6~\xa0@?\xec\xa3/C\xd2\xd3\\?aM$b\xa4\xebR?\x00\x00\x00\x00\x00\x00\x00\x00)\x16P\xa5\xa9Z;?\xed\xce\x92\x0e\x8a\xf0b?\xf5\xcc(\x04\x0fJb?\x00\x00\x00\x00\x00\x00\x00\x00-\xf5XM\xa2\x1d:?\x0b\xad\x1b`E\x05]?W\xdc2"\xcegV?\x00\x00\x00\x00\x00\x00\x00\x00\x84t\xaa\xa7\xab#8?@,z\xa3Z\xfbd?#\xbb\xe6\x84\x83\x88d?.\xcc,9\xfd\xd3\x11?\x9e\xcb,9\xfd\xd3!?\xe2f\xb8\x910{^?\xf24\xac\x8b\x01pX?\x00\x00\x00\x00\x00\x00\x00\x00\x8a>\x86\xeb}m3?\x18r\x1e\x069\x01V?\x13i\xb2\xcf\x05\xc2_?\x00\x00\x00\x00\x00\x00\x00\x00O\x02\xe6\x10\t\x06F?\x9e\xc8I\x98\xd5]a?\xe5\xc6D\xee\n\x1bf?\x00\x00\x00\x00\x00\x00\x00\x00B\xc2\xf2a\xee\x86@?\x1b\x82\xde\xc0>\x19V?R\\\xff\xfb\x9f%Y?\x00\x00\x00\x00\x00\x00\x00\x00\xc2\x0c\xdc\x00\xf8kB?\xec\x97\x81Se\xbea?(w@\xae\xa3\x1fG?\x00\x00\x00\x00\x00\x00\x00\x00d\x12\xaa\xebL0,?\xeckK\x12I\xb1l?\xd8\x954^\x85\x94k?\x00\x00\x00\x00\x00\x00\x00\x00\x8a>\x86\xeb}m3?\xc3,\xcc+\xd4\x17\\?\xbct\x84\xa9\xc1\x8e[?\x9f\xd5S\x8c\xf6\x1c\r?)=\xd0\xf6~\xa0@?\xa2\xb0|\x0b?Te?\x12\x9d\x1d1\x07\x9de?\x00\x00\x00\x00\x00\x00\x00\x00\xa7>\x86\xeb}mC?\xb1\xe3\x85\x8c\xd3\xc3s?.N\x9an\x8d\x94V?\x00\x00\x00\x00\x00\x00\x00\x00\x0bU<\x140lL?=\x81s\xd1\xf7\xc0d?\x85\xc8g\xc7\x1f>^?\x00\x00\x00\x00\x00\x00\x00\x00\xa72\xc3\xd5\xfb\xbd*?f\x1c*\x85X"e?'
p117
tp118
bsS'_num_tot_filter_bins'
p119
I96
sS'_mean'
p120
g60
(g61
(I0
tp121
g63
tp122
Rp123
(I1
(I96
I1
tp124
g69
I00
S'\xa6"\x15\xc6\x16\x82\x8c?\x00\x00\x00\x00\x00\x00\x00\x00\x06\xc0x\x06\r\xfdS?R\xf2\xea\x1c\x03\xb2\x97?\xab\xad\xd8_vO\x8e?\x00\x00\x00\x00\x00\x00\x00\x00\x9f7\x15\xa90\xb6P?\xe4\x0f\x06\x9e{\x0f\x97?\xaa}:\x1e3P\x89?\x00\x00\x00\x00\x00\x00\x00\x00.n\xa3\x01\xbc\x05R?n\xbb\xd0\\\xa7\x91\x96?\x04\x1cB\x95\x9a=\x90?\x00\x00\x00\x00\x00\x00\x00\x00C\xc58\x7f\x13\nQ?B\x0eJ\x98i\xfb\x97?\xdeY\xbb\xedBs\x8d?\xf1h\xe3\x88\xb5\xf8\xf4>\xa9M\x9c\xdc\xefPT?\xfee\xf7\xe4a\xa1\x96?P;\xfc5Y\xa3\x8e?\xf1h\xe3\x88\xb5\xf8\xf4>b2U0*\xa9S?Z\xd8\xd3\x0e\x7fM\x96?\xb3\xab\x90\xf2\x93j\x8f?\x00\x00\x00\x00\x00\x00\x00\x00\xda\xe6\xc6\xf4\x84%N?kH\xdcc\xe9C\x97?\xc0\xec\x9e<,\xd4\x8a?\x00\x00\x00\x00\x00\x00\x00\x00\x1a\x17\x0e\x84d\x01S? \xba\xa0\xbeeN\x97?\xcdu\x1ai\xa9\xbc\x8d?\x00\x00\x00\x00\x00\x00\x00\x00\x8b\xe0\x7f+\xd9\xb1Q?\xbe0\x99*\x18\x95\x94?\xe0\xb4\xe0E_A\x8a?\x00\x00\x00\x00\x00\x00\x00\x00jH\xdcc\xe9CW?\xf6\xf3\xa6"\x15\xc6\x96?`\x07\xce\x19Q\xda\x8b?\x00\x00\x00\x00\x00\x00\x00\x00C\xc58\x7f\x13\nQ?\xbb\xd5s\xd2\xfb\xc6\x97?P;\xfc5Y\xa3\x8e?\x00\x00\x00\x00\x00\x00\x00\x00\x1a\x17\x0e\x84d\x01S?\xe0\x9c\x11\xa5\xbd\xc1\x97?\xca\x02&p\xebn\x8e?\x00\x00\x00\x00\x00\x00\x00\x00\xa9M\x9c\xdc\xefPT?\xfde\xf7\xe4a\xa1\x96?\x80\xb7@\x82\xe2\xc7\x88?\xf1h\xe3\x88\xb5\xf8\x04?\xf1h\xe3\x88\xb5\xf8T?\xae\xd8_vO\x1e\x96?\x1d_{fI\x80\x8a?\x00\x00\x00\x00\x00\x00\x00\x00\xbe\xa41ZGUS?\n\xd7\xa3p=\n\x97?\xeb\xcagy\x1e\xdc\x8d?\x00\x00\x00\x00\x00\x00\x00\x00\x80\x9fq\xe1@HV?\xf1\xf4JY\x868\x96?\x96>tA}\xcb\x8c?\x00\x00\x00\x00\x00\x00\x00\x00\xfa~j\xbct\x93X?B\x82\xe2\xc7\x98\xbb\x96?\x8a\xcd\xc7\xb5\xa1b\x8c?\x00\x00\x00\x00\x00\x00\x00\x00\x94\xf6\x06_\x98LU?,+MJA\xb7\x97?\x96&\xa5\xa0\xdbK\x8a?\x00\x00\x00\x00\x00\x00\x00\x00a2U0*\xa9S?\xc7F ^\xd7/\x98?\x9e$]3\xf9f\x8b?\x00\x00\x00\x00\x00\x00\x00\x00\xa07\x15\xa90\xb6P?\x83\x12f\xda\xfe\x95\x95?\xd3\x00\xde\x02\t\x8a\x8f?\xf1h\xe3\x88\xb5\xf8\xf4>\xf0h\xe3\x88\xb5\xf8T?\xaed\xc7F ^\x97?\xcb]K\xc8\x07=\x8b?\x00\x00\x00\x00\x00\x00\x00\x00\xdb\x11N\x0b^\xf4U?nG8-x\xd1\x97?\xae\xf0.\x17\xf1\x9d\x88?\x00\x00\x00\x00\x00\x00\x00\x00v\x89\xea\xad\x81\xadR?\xdd\x9d\xb5\xdb.4\x97?\xe6?\xa4\xdf\xbe\x0e\x8c?\x00\x00\x00\x00\x00\x00\x00\x007\x84*5{\xa0U?\x0eJ\x98i\xfbW\x96?'
p125
tp126
bsS'_num_realizations'
p127
I5
sg22
(lp128
sS'_sum'
p129
g60
(g61
(I0
tp130
g63
tp131
Rp132
(I1
(I96
I1
tp133
g69
I00
S'\xa85\xcd;N\xd1\xb1?\x00\x00\x00\x00\x00\x00\x00\x00\x07\xf0\x16HP\xfcx?\xe6\xae%\xe4\x83\x9e\xbd?\x8bl\xe7\xfb\xa9\xf1\xb2?\x00\x00\x00\x00\x00\x00\x00\x00\x87\x85Z\xd3\xbc\xe3t?\xdd\x93\x87\x85Z\xd3\xbc?\x15\x1d\xc9\xe5?\xa4\xaf?\x00\x00\x00\x00\x00\x00\x00\x00\xbaI\x0c\x02+\x87v?J\xea\x044\x116\xbc?\x05\xa3\x92:\x01M\xb4?\x00\x00\x00\x00\x00\x00\x00\x00\x94\xf6\x06_\x98Lu?\xd2\x91\\\xfeC\xfa\xbd?+\x18\x95\xd4\th\xb2?-C\x1c\xeb\xe26\x1a?\x13a\xc3\xd3+ey?}?5^\xbaI\xbc?\x12\xa5\xbd\xc1\x17&\xb3?-C\x1c\xeb\xe26\x1a?\xfa~j\xbct\x93x?q\xce\x88\xd2\xde\xe0\xbb?Pk\x9aw\x9c\xa2\xb3?\x00\x00\x00\x00\x00\x00\x00\x00HP\xfc\x18s\xd7r?\x86Z\xd3\xbc\xe3\x14\xbd?\xf8S\xe3\xa5\x9b\xc4\xb0?\x00\x00\x00\x00\x00\x00\x00\x00\xe1\x9c\x11\xa5\xbd\xc1w?\xa8\xe8H.\xff!\xbd?\xa0\x89\xb0\xe1\xe9\x95\xb2?\x00\x00\x00\x00\x00\x00\x00\x00\xae\xd8_vO\x1ev?\xed|?5^\xba\xb9?\x0cq\xac\x8b\xdbh\xb0?\x00\x00\x00\x00\x00\x00\x00\x00\x85Z\xd3\xbc\xe3\x14}?\xf3\xb0Pk\x9aw\xbc?\x9c\xc4 \xb0rh\xb1?\x00\x00\x00\x00\x00\x00\x00\x00\x94\xf6\x06_\x98Lu?*\xcb\x10\xc7\xba\xb8\xbd?\x12\xa5\xbd\xc1\x17&\xb3?\x00\x00\x00\x00\x00\x00\x00\x00\xe0\x9c\x11\xa5\xbd\xc1w?\x18\x04V\x0e-\xb2\xbd?\xbe\xc1\x17&S\x05\xb3?\x00\x00\x00\x00\x00\x00\x00\x00\x13a\xc3\xd3+ey?|?5^\xbaI\xbc?`\xe5\xd0"\xdb\xf9\xae?-C\x1c\xeb\xe26*?-C\x1c\xeb\xe26z?\xd9\xce\xf7S\xe3\xa5\xbb?r\x1b\r\xe0-\x90\xb0?\x00\x00\x00\x00\x00\x00\x00\x00\xed\r\xbe0\x99*x?\xcd\xcc\xcc\xcc\xcc\xcc\xbc?\xd3\xde\xe0\x0b\x93\xa9\xb2?\x00\x00\x00\x00\x00\x00\x00\x00`\x07\xce\x19Q\xda{?-\xb2\x9d\xef\xa7\xc6\xbb?\x1e\xa7\xe8H.\xff\xb1?\x00\x00\x00\x00\x00\x00\x00\x00\xb9\x1e\x85\xebQ\xb8~?\xd2"\xdb\xf9~j\xbc?v\xe0\x9c\x11\xa5\xbd\xb1?\x00\x00\x00\x00\x00\x00\x00\x009\xb4\xc8v\xbe\x9fz?\xf7u\xe0\x9c\x11\xa5\xbd?\x1e8gDio\xb0?\x00\x00\x00\x00\x00\x00\x00\x00\xf9~j\xbct\x93x?yX\xa85\xcd;\xbe?\xe36\x1a\xc0[ \xb1?\x00\x00\x00\x00\x00\x00\x00\x00\x88\x85Z\xd3\xbc\xe3t?$\x97\xff\x90~\xfb\xba?\x84\xc0\xca\xa1E\xb6\xb3?-C\x1c\xeb\xe26\x1a?,C\x1c\xeb\xe26z?\xda=yX\xa85\xbd?\x9f\x1a/\xdd$\x06\xb1?\x00\x00\x00\x00\x00\x00\x00\x00R\x96!\x8euq{?JY\x868\xd6\xc5\xbd?\xda\xac\xfa\\m\xc5\xae?\x00\x00\x00\x00\x00\x00\x00\x00\xd4+e\x19\xe2Xw?T\x05\xa3\x92:\x01\xbd?\xf0\xa7\xc6K7\x89\xb1?\x00\x00\x00\x00\x00\x00\x00\x00E%u\x02\x9a\x08{?\x91\\\xfeC\xfa\xed\xbb?'
p134
tp135
bsS'_estimator'
p136
S'analog'
p137
sS'_scores'
p138
(lp139
S'nu-scatter'
p140
asg26
I10050
sbsS'flux'
p141
g2
(g77
g4
Ntp142
Rp143
(dp144
g81
I1
sg82
S'2 groups'
p145
sg84
(lp146
g2
(g86
g4
Ntp147
Rp148
(dp149
g90
Nsg8
g91
sg28
I7
sg92
I1
sg93
(lp150
I10014
asbag2
(g86
g4
Ntp151
Rp152
(dp153
g90
Nsg8
g98
sg28
I0
sg92
I24
sg93
(lp154
F0.0
aF6.25e-07
aF10.0
asbasg105
g60
(g61
(I0
tp155
g63
tp156
Rp157
(I1
(I48
I1
tp158
g69
I00
S'\x13&/\x07\x96\xc5??a,\x8a/\t\xda{?\x00\x8b\xba\x92jBB?{\x7f\x9c\x8a\x8c\xeez?\xc5X\x92|:D:?\x03D\x823\xa6]y?1(\xebC&\x1eD?+\x97\x16\x80^\xcfy?\xccc\xc7\xe0#\x06A?\x9e0\xc7\xcb\xe0\x19x?\x81\x9cM$yiB?\xa9\xec\x07\n\xbeOv?\x1d\x96p\'l\xbeB?&\t\x12\xd1w\xd8z?\x12\x98\xda:\x99\xe5:?\xde\x19\xa9\xbd\xd4aw?\xca\xcc\x98\x8cR\xa9A?\xf5\xd8\x9e\xa8\x114u?\x1b[\xafk\xb0\x02<?\xa3\n\xa7\xe9e\xefw?x\xbd\xa8\xd3OZ=?Nh<\xe5\x04\x01|?\xc7I<S\xb3\x81B?\xdau\x00vX{x?\xa2\x89C\x1dd\xcfA?\xd8\x1e09\xd6\x97y?\xee5zU\xb6\n8?\xa3\xbd\xf2\r\x8d\x13w?V\xf0\xea\x97gr:?\n\x00\x833E\xa7z?\xc8qa?\x92\xe1@?\x91WN\x1e\xe0\xedv?\x01\x10A^\xfa\xef??\xc2R7\xf1!/w?d\xab\xb0\x16L.>?\x03\x83nr\x1e\xb7z?\xfa\x7f2\xedm\x0b:?\xd7\xff\xe4\xf9\xcb\xb1{?\xbcg)\xbdrq>?\x07#\xa3w\x00^t?Q\xe22\x06\t\xccB?W\xf0\xc9\xb1\xb1"y? \xf8\xce\xc4\xa4Q=?\xc2\t\xf5\x05\xd2\xeby?:r\xdb\xd4\xe487?\xc0\x08y\xa2!\xb6v?^\xcd\xb0\xd2\xd4\xa8>?\xed%.\xd0D\xfcu?'
p159
tp160
bsg112
g60
(g61
(I0
tp161
g63
tp162
Rp163
(I1
(I48
I1
tp164
g69
I00
S'\xf0U\x93\x02\x9fIf?\xc5}!\xfc\xc0\xa7t?\x97~d\xc1m\x02]?\x01E\xab\xc3\x00\xddu?\xd3s\xa3{\r\xb4`?\xb2y\xdd\xd6E\x8br?\xa9\xc2S\xab\x1a\\`?\x1a\xe9\x87\xd78\x1fr?\xd2\xb2\xcc6^6L?\x1ad\xfd\xad\xfb\x98o?\xfe\x17[~\x84\xcfI?\xf7\xbdq\x9a\x8a\x0ci?\x14\xcd{\xba\xd8\xb3^?L\x83\x88a\xf2\xd2f?T\x9e2e5\x0fR?KT\x8fzUeZ?\xcd\xd7\xf6Mq`_?\x89\xc1\xb8\xcc\xa9L`?\xd2.k\xd78\xbd\\?l\xd8\x90\xb2\xe1Ui?D\x8e{@Z\x86C?\xbc\xda\'o\x14\xf7q?7"\xd7\xba\x91\xe4W?\t\x984\x90&\xb3d?\xe9\x1e\x0e\x1f\xef\x10M?\xe9\x1d\x0f\xc3\xdd\x8fl?\x0b\x02\xc2\xf7\xc29\\?\xdb\xe6\x1e\xd0\xd4\xf7_?q\xa8,\xea\xab4K?\x04\x16Ly<\x7fq?\x07\x85\xe0\x1e$EW?@2\x07^,fj?%\xc0iB\xc8M[?\xb7U\xf4X\x7f\xc3c?\xf0\xdd\x06\xfd\x1c\x8fR?/8\t\xea\xa9\xd7g?\xfbMUx\x9e\x9eB?\xaa\xf4#\xb7\xdd4t?\xc1\x84-\x14\x80\x81a?\\|\x85\xf0\x9cEe?5\x7f\xc4\x17k\xdbQ?K\x9dK\xd9\x03\xdet?\xf8\x01E\xa1\x80\xb1^?az`\x92\x1a\x00\x80?\x8c,\xac+ACP?\x98B\xf5v\xfe\xaft?\x85\x0bTM\xb1qT?J\x1eE\xeblTo?'
p165
tp166
bsg119
I48
sg120
g60
(g61
(I0
tp167
g63
tp168
Rp169
(I1
(I48
I1
tp170
g69
I00
S"Of\xbf\x0fI\xc3\x83?rp\x9a\x17\x18\xca\xa2?\xaf\x03\x12IGv\x85?\x84\x16r\x18Qv\xa2?'\xb85Dp\x16\x82?U\xe5\xd3\x87\x00\xf1\xa1?\xce\xe6\xca\xca{\x80\x86?\xbd\xcaM\x0eG\x1a\xa2?\x0cs\x14Ge\xd6\x84?\xd1\xd8.8\x9c\x81\xa1?\xc0\xe1\xea\x14\xee\xad\x85?\xb6\xbf\x169\x95\xdc\xa0?R\xf6\xf97\xeb\xba\x85?\xb3\x02\xc1:2\x82\xa2?\xe6\x83\x10T\xbf{\x82?\xce\xce\xa2\xcd2J\xa1?\xb8\xa3B\xae*\x13\x85?X\x07\xae\xdb=u\xa0?i\xc62A\xe1\xc1\x82?\xf3_\xa9/Zw\xa1?Lvv\x87\n]\x83?\x8a\x04n\xca\x12\xdd\xa2?\xaa\x11S\x8b\xe0\xa8\x85?[\xcb\x96wy\xad\xa1?;\xa2k(\x06P\x85?\xbb\xc9\x03H\xc3\r\xa2?\xc6\xe5\x8a\xc1x[\x81?\x81\xc5\xe1\t\xe6+\xa1?\x1a\xc4#\xb5\xac[\x82?z#\xba\x7f>g\xa2?\xaf'\x0c\xe2\xb9\xae\x84?\xae\x92\x1fL#\x17\xa1?\xb7\x98+R\x99\x11\x84?\xba\xf9\xc7\x1f!4\xa1?\xd8\x03`\xebn\x95\x83?(U\xc3\x8c\xfbu\xa2?-\x85\n\xcf<=\x82?&\xccnQb\xbd\xa2?m\xc2n(\x9c|\x83?O<\xb6\xfc&\x1e\xa0?B\x8dx\x91\x99\xe0\x85?p\xe7i\x87\x99\xd6\xa1?j\x17<.\x8e,\x83?L\xc9\xf5\xfd[\xfc\xa1?J=\xb2B\xb1-\x81?\x86'\xd6\xed\xb3\xf2\xa0?\x9bf\xb8\xb9s\xb9\x83?\x03\xbc\xfeAJ\xb7\xa0?"
p171
tp172
bsg127
I5
sg22
(lp173
sg129
g60
(g61
(I0
tp174
g63
tp175
Rp176
(I1
(I48
I1
tp177
g69
I00
S'\xe3?\xafS\x1b\xb4\xa8?\x8f\x0c\x81\x1d\x9e|\xc7?\x9b\x84V\x1b\xd9\xd3\xaa?%\x9c\x8e^\xe5\x13\xc7?1&CU\x0c\x9c\xa6?\xaa\xde\xc8\xa9@m\xc6?\x81\xa0}\xbd\x9a \xac?l=\xe1\xd1\xd8\xa0\xc6?\xcf\x8f\xd9\x98\xfe\x0b\xaa?\x05\x8f:F\x03\xe2\xc5?0\x9a%\x9ai\x19\xab?\xa4o\\\x87\xba\x13\xc5?\xe6s\xf8\x05\xa6)\xab?`Cq\xc9\xbe"\xc7?\xdf\xa4\x14)\xaf\x1a\xa7?\x82\x82\x0b\x81\xbf\x9c\xc5?\xa6L\xd3Y\xf5W\xaa?.\x89\x99R\x8d\x92\xc4?\x03x\x7f\x91Yr\xa7?\xf0\xb7\x93\xbb0\xd5\xc5?\xdf\x13T)M4\xa8?\xac\x85\t}W\x94\xc7?\x14\xd6\'\xae\x18\x13\xab?2~|\xd5\xd7\x18\xc6?\xca\x8a\x86\xb2\x07\xa4\xaa?*\xbc\x04\x1a4\x91\xc6?7\x9f\xed\xf1V\xb2\xa5?\xe16Z\x8c\xdfv\xc5?!\xb5l\xe2\x97\xf2\xa6?X\xac\xa8\x1f\x0e\x01\xc7?\x9b1\x8fZh\xda\xa9?Zw\'\x1f\xec\\\xc5?\xe5~\xb6\xa6\xff\x15\xa9?(\xf8\xb9g)\x81\xc5?\xce\x048\xa6\xcaz\xa8?r*\xf4oz\x13\xc7?x&\xcd\x02\x8c\xcc\xa6?0\x7f\xca\xe5\xbal\xc7?\x08s\x8a2\xc3[\xa8?c\xcb\xe3\xbb\xb0%\xc4?\x93\xb0\xd6\xf5\xbfX\xab?LaD\xe9?L\xc6?D\x1d\xcb\xb9\xb1\xf7\xa7?\x9f;s\xfdr{\xc6?\x9c\xcc^\x93\x1dy\xa5?g\xb1K\xe9`/\xc5?B\x80&\xa8\xd0\xa7\xa8?\x04k~\xd2\x1c\xe5\xc4?'
p178
tp179
bsg136
g137
sg138
(lp180
g141
asg26
I10040
sbssS'subdomain offsets'
p181
(dp182
I389
g48
(g52
S'\t\x00\x00\x00\x00\x00\x00\x00'
p183
tp184
Rp185
sI776
g48
(g52
S'\x11\x00\x00\x00\x00\x00\x00\x00'
p186
tp187
Rp188
sI787
g48
(g52
S'\x12\x00\x00\x00\x00\x00\x00\x00'
p189
tp190
Rp191
sI917
g48
(g52
S'\x14\x00\x00\x00\x00\x00\x00\x00'
p192
tp193
Rp194
sI158
g48
(g52
S'\x00\x00\x00\x00\x00\x00\x00\x00'
p195
tp196
Rp197
sI544
g48
(g52
S'\n\x00\x00\x00\x00\x00\x00\x00'
p198
tp199
Rp200
sI169
g48
(g52
S'\x01\x00\x00\x00\x00\x00\x00\x00'
p201
tp202
Rp203
sI555
g48
(g52
S'\x0b\x00\x00\x00\x00\x00\x00\x00'
p204
tp205
Rp206
sI180
g48
(g52
S'\x02\x00\x00\x00\x00\x00\x00\x00'
p207
tp208
Rp209
sI952
g48
(g52
S'\x15\x00\x00\x00\x00\x00\x00\x00'
p210
tp211
Rp212
sI577
g48
(g52
S'\x0c\x00\x00\x00\x00\x00\x00\x00'
p213
tp214
Rp215
sI963
g48
(g52
S'\x16\x00\x00\x00\x00\x00\x00\x00'
p216
tp217
Rp218
sI588
g48
(g52
S'\r\x00\x00\x00\x00\x00\x00\x00'
p219
tp220
Rp221
sI974
g48
(g52
S'\x17\x00\x00\x00\x00\x00\x00\x00'
p222
tp223
Rp224
sI215
g48
(g52
S'\x03\x00\x00\x00\x00\x00\x00\x00'
p225
tp226
Rp227
sI345
g48
(g52
S'\x05\x00\x00\x00\x00\x00\x00\x00'
p228
tp229
Rp230
sI356
g48
(g52
S'\x06\x00\x00\x00\x00\x00\x00\x00'
p231
tp232
Rp233
sI743
g48
(g52
S'\x0e\x00\x00\x00\x00\x00\x00\x00'
p234
tp235
Rp236
sI878
g48
(g52
S'\x13\x00\x00\x00\x00\x00\x00\x00'
p237
tp238
Rp239
sI367
g48
(g52
S'\x07\x00\x00\x00\x00\x00\x00\x00'
p240
tp241
Rp242
sI754
g48
(g52
S'\x0f\x00\x00\x00\x00\x00\x00\x00'
p243
tp244
Rp245
sI378
g48
(g52
S'\x08\x00\x00\x00\x00\x00\x00\x00'
p246
tp247
Rp248
sI765
g48
(g52
S'\x10\x00\x00\x00\x00\x00\x00\x00'
p249
tp250
Rp251
sI254
g48
(g52
S'\x04\x00\x00\x00\x00\x00\x00\x00'
p252
tp253
Rp254
ssS'offset'
p255
I7
sS'domain type'
p256
g91
sS'xs'
p257
g60
(g61
(I0
tp258
g63
tp259
Rp260
(I1
(I24
I2
I2
tp261
g49
(S'O8'
p262
I0
I1
tp263
Rp264
(I3
S'|'
p265
NNNI-1
I-1
I63
tp266
bI00
(lp267
g2
(cuncertainties
AffineScalarFunc
p268
g4
Ntp269
Rp270
(dp271
S'_nominal_value'
p272
F0.630550257550101
sS'derivatives'
p273
(dp274
g2
(cuncertainties
Variable
p275
g4
Ntp276
Rp277
(dp278
g272
F0.02314
sS'_std_dev'
p279
g2
(cuncertainties
CallableStdDev
p280
c__builtin__
float
p281
F0.001980055069668279
tp282
Rp283
sS'tag'
p284
Nsg273
(dp285
g277
F1.0
ssbF27.24936290190583
sg2
(g275
g4
Ntp286
Rp287
(dp288
g272
F0.03669810569883304
sg279
g2
(g280
g281
F0.005042795035563545
tp289
Rp290
sg284
Nsg273
(dp291
g287
F1.0
ssbF-17.182092795872887
ssbag2
(g268
g4
Ntp292
Rp293
(dp294
g272
F0.03324422274032512
sg273
(dp295
g2
(g275
g4
Ntp296
Rp297
(dp298
g272
F0.0012200000000000002
sg279
g2
(g280
g281
F0.00020402621419747576
tp299
Rp300
sg284
Nsg273
(dp301
g297
F1.0
ssbF27.24936290190583
sg287
F-0.9058838898429094
ssbag2
(g268
g4
Ntp302
Rp303
(dp304
g272
F0.0
sg273
(dp305
g2
(g275
g4
Ntp306
Rp307
(dp308
g272
F0.0
sg279
g2
(g280
g281
F0.0
tp309
Rp310
sg284
Nsg273
(dp311
g307
F1.0
ssbF103.62886433695577
sg2
(g275
g4
Ntp312
Rp313
(dp314
g272
F0.00964982108409909
sg279
g2
(g280
g281
F0.0027206521668670033
tp315
Rp316
sg284
Nsg273
(dp317
g313
F1.0
ssbF0.0
ssbag2
(g268
g4
Ntp318
Rp319
(dp320
g272
F1.442513791570424
sg273
(dp321
g2
(g275
g4
Ntp322
Rp323
(dp324
g272
F0.013919999999999998
sg279
g2
(g280
g281
F0.0038685356538894905
tp325
Rp326
sg284
Nsg273
(dp327
g323
F1.0
ssbF103.62886433695577
sg313
F-149.48606601083918
ssbag2
(g268
g4
Ntp328
Rp329
(dp330
g272
F0.6245331360251019
sg273
(dp331
g2
(g275
g4
Ntp332
Rp333
(dp334
g272
F0.02252
sg279
g2
(g280
g281
F0.001539362925881035
tp335
Rp336
sg284
Nsg273
(dp337
g333
F1.0
ssbF27.732377265768292
sg2
(g275
g4
Ntp338
Rp339
(dp340
g272
F0.03605893538864982
sg279
g2
(g280
g281
F0.005337717996284797
tp341
Rp342
sg284
Nsg273
(dp343
g339
F1.0
ssbF-17.31978854322151
ssbag2
(g268
g4
Ntp344
Rp345
(dp346
g272
F0.028287024811083653
sg273
(dp347
g2
(g275
g4
Ntp348
Rp349
(dp350
g272
F0.0010199999999999999
sg279
g2
(g280
g281
F0.0003091718422414842
tp351
Rp352
sg284
Nsg273
(dp353
g349
F1.0
ssbF27.732377265768292
sg339
F-0.7844664437871198
ssbag2
(g268
g4
Ntp354
Rp355
(dp356
g272
F0.0
sg273
(dp357
g2
(g275
g4
Ntp358
Rp359
(dp360
g272
F0.0
sg279
g2
(g280
g281
F0.0
tp361
Rp362
sg284
Nsg273
(dp363
g359
F1.0
ssbF95.42435898354296
sg2
(g275
g4
Ntp364
Rp365
(dp366
g272
F0.010479504506521879
sg279
g2
(g280
g281
F0.0017705985861268586
tp367
Rp368
sg284
Nsg273
(dp369
g365
F1.0
ssbF0.0
ssbag2
(g268
g4
Ntp370
Rp371
(dp372
g272
F1.4122805129564358
sg273
(dp373
g2
(g275
g4
Ntp374
Rp375
(dp376
g272
F0.014799999999999999
sg279
g2
(g280
g281
F0.002484879591683205
tp377
Rp378
sg284
Nsg273
(dp379
g375
F1.0
ssbF95.42435898354296
sg365
F-134.76596265381713
ssbag2
(g268
g4
Ntp380
Rp381
(dp382
g272
F0.628962677211632
sg273
(dp383
g2
(g275
g4
Ntp384
Rp385
(dp386
g272
F0.022039999999999997
sg279
g2
(g280
g281
F0.0015473544808247924
tp387
Rp388
sg284
Nsg273
(dp389
g385
F1.0
ssbF28.53732655225191
sg2
(g275
g4
Ntp390
Rp391
(dp392
g272
F0.03504182489445876
sg279
g2
(g280
g281
F0.004527352151710339
tp393
Rp394
sg284
Nsg273
(dp395
g391
F1.0
ssbF-17.948913308766954
ssbag2
(g268
g4
Ntp396
Rp397
(dp398
g272
F0.0313910592074771
sg273
(dp399
g2
(g275
g4
Ntp400
Rp401
(dp402
g272
F0.0010999999999999998
sg279
g2
(g280
g281
F0.00043899451654254247
tp403
Rp404
sg284
Nsg273
(dp405
g401
F1.0
ssbF28.53732655225191
sg391
F-0.8958169074248479
ssbag2
(g268
g4
Ntp406
Rp407
(dp408
g272
F0.0
sg273
(dp409
g2
(g275
g4
Ntp410
Rp411
(dp412
g272
F0.0
sg279
g2
(g280
g281
F0.0
tp413
Rp414
sg284
Nsg273
(dp415
g411
F1.0
ssbF113.22642453417956
sg2
(g275
g4
Ntp416
Rp417
(dp418
g272
F0.008831860620116384
sg279
g2
(g280
g281
F0.0020389808024518868
tp419
Rp420
sg284
Nsg273
(dp421
g417
F1.0
ssbF0.0
ssbag2
(g268
g4
Ntp422
Rp423
(dp424
g272
F1.3994786072424592
sg273
(dp425
g2
(g275
g4
Ntp426
Rp427
(dp428
g272
F0.01236
sg279
g2
(g280
g281
F0.002864720936784142
tp429
Rp430
sg284
Nsg273
(dp431
g427
F1.0
ssbF113.22642453417956
sg417
F-158.45795891013702
ssbag2
(g268
g4
Ntp432
Rp433
(dp434
g272
F0.6623915376075835
sg273
(dp435
g2
(g275
g4
Ntp436
Rp437
(dp438
g272
F0.023420000000000003
sg279
g2
(g280
g281
F0.0023269194118698544
tp439
Rp440
sg284
Nsg273
(dp441
g437
F1.0
ssbF28.283157028504846
sg2
(g275
g4
Ntp442
Rp443
(dp444
g272
F0.035356731887892213
sg279
g2
(g280
g281
F0.004424306906452702
tp445
Rp446
sg284
Nsg273
(dp447
g443
F1.0
ssbF-18.73452387250806
ssbag2
(g268
g4
Ntp448
Rp449
(dp450
g272
F0.029414483309645034
sg273
(dp451
g2
(g275
g4
Ntp452
Rp453
(dp454
g272
F0.00104
sg279
g2
(g280
g281
F0.0004173912214472131
tp455
Rp456
sg284
Nsg273
(dp457
g453
F1.0
ssbF28.283157028504846
sg443
F-0.8319344503590255
ssbag2
(g268
g4
Ntp458
Rp459
(dp460
g272
F0.0
sg273
(dp461
g2
(g275
g4
Ntp462
Rp463
(dp464
g272
F0.0
sg279
g2
(g280
g281
F0.0
tp465
Rp466
sg284
Nsg273
(dp467
g463
F1.0
ssbF91.01458137241887
sg2
(g275
g4
Ntp468
Rp469
(dp470
g272
F0.010987250448454413
sg279
g2
(g280
g281
F0.001997043693897933
tp471
Rp472
sg284
Nsg273
(dp473
g469
F1.0
ssbF0.0
ssbag2
(g268
g4
Ntp474
Rp475
(dp476
g272
F1.4434912605665633
sg273
(dp477
g2
(g275
g4
Ntp478
Rp479
(dp480
g272
F0.01586
sg279
g2
(g280
g281
F0.002557647005053507
tp481
Rp482
sg284
Nsg273
(dp483
g479
F1.0
ssbF91.01458137241887
sg469
F-131.378752795211
ssbag2
(g268
g4
Ntp484
Rp485
(dp486
g272
F0.646350541404272
sg273
(dp487
g2
(g275
g4
Ntp488
Rp489
(dp490
g272
F0.0221
sg279
g2
(g280
g281
F0.001969124082772533
tp491
Rp492
sg284
Nsg273
(dp493
g489
F1.0
ssbF29.24663083277248
sg2
(g275
g4
Ntp494
Rp495
(dp496
g272
F0.034191972597385274
sg279
g2
(g280
g281
F0.003857127725421805
tp497
Rp498
sg284
Nsg273
(dp499
g495
F1.0
ssbF-18.903575673013368
ssbag2
(g268
g4
Ntp500
Rp501
(dp502
g272
F0.03626582223263788
sg273
(dp503
g2
(g275
g4
Ntp504
Rp505
(dp506
g272
F0.00124
sg279
g2
(g280
g281
F0.0003237863569417408
tp507
Rp508
sg284
Nsg273
(dp509
g505
F1.0
ssbF29.24663083277248
sg495
F-1.0606531146849127
ssbag2
(g268
g4
Ntp510
Rp511
(dp512
g272
F0.0019656884781581985
sg273
(dp513
g2
(g275
g4
Ntp514
Rp515
(dp516
g272
F2e-05
sg279
g2
(g280
g281
F5.552890210395598e-05
tp517
Rp518
sg284
Nsg273
(dp519
g515
F1.0
ssbF98.28442390790991
sg2
(g275
g4
Ntp520
Rp521
(dp522
g272
F0.010174552184758955
sg279
g2
(g280
g281
F0.0008609733609766473
tp523
Rp524
sg284
Nsg273
(dp525
g521
F1.0
ssbF-0.19319655965819468
ssbag2
(g268
g4
Ntp526
Rp527
(dp528
g272
F1.4133300157957445
sg273
(dp529
g2
(g275
g4
Ntp530
Rp531
(dp532
g272
F0.01438
sg279
g2
(g280
g281
F0.001017861588596696
tp533
Rp534
sg284
Nsg273
(dp535
g531
F1.0
ssbF98.28442390790991
sg521
F-138.90832639424198
ssbag2
(g268
g4
Ntp536
Rp537
(dp538
g272
F0.661344453373354
sg273
(dp539
g2
(g275
g4
Ntp540
Rp541
(dp542
g272
F0.02178
sg279
g2
(g280
g281
F0.001967949304454173
tp543
Rp544
sg284
Nsg273
(dp545
g541
F1.0
ssbF30.36475910805115
sg2
(g275
g4
Ntp546
Rp547
(dp548
g272
F0.0329329139889291
sg279
g2
(g280
g281
F0.0030577380271592475
tp549
Rp550
sg284
Nsg273
(dp551
g547
F1.0
ssbF-20.081565014127662
ssbag2
(g268
g4
Ntp552
Rp553
(dp554
g272
F0.03643771092966138
sg273
(dp555
g2
(g275
g4
Ntp556
Rp557
(dp558
g272
F0.0012000000000000001
sg279
g2
(g280
g281
F0.00023229406353851762
tp559
Rp560
sg284
Nsg273
(dp561
g557
F1.0
ssbF30.36475910805115
sg547
F-1.1064223148279706
ssbag2
(g268
g4
Ntp562
Rp563
(dp564
g272
F0.0018893499534925705
sg273
(dp565
g2
(g275
g4
Ntp566
Rp567
(dp568
g272
F2e-05
sg279
g2
(g280
g281
F5.552890210395598e-05
tp569
Rp570
sg284
Nsg273
(dp571
g567
F1.0
ssbF94.46749767462852
sg2
(g275
g4
Ntp572
Rp573
(dp574
g272
F0.010585651410438213
sg279
g2
(g280
g281
F0.000787677473191861
tp575
Rp576
sg284
Nsg273
(dp577
g573
F1.0
ssbF-0.17848216233811892
ssbag2
(g268
g4
Ntp578
Rp579
(dp580
g272
F1.4132337652124427
sg273
(dp581
g2
(g275
g4
Ntp582
Rp583
(dp584
g272
F0.014960000000000001
sg279
g2
(g280
g281
F0.0017151151145921937
tp585
Rp586
sg284
Nsg273
(dp587
g583
F1.0
ssbF94.46749767462852
sg573
F-133.50465742891296
ssbag2
(g268
g4
Ntp588
Rp589
(dp590
g272
F0.6284998992516699
sg273
(dp591
g2
(g275
g4
Ntp592
Rp593
(dp594
g272
F0.02272
sg279
g2
(g280
g281
F0.0009013830696752813
tp595
Rp596
sg284
Nsg273
(dp597
g593
F1.0
ssbF27.66284767833054
sg2
(g275
g4
Ntp598
Rp599
(dp600
g272
F0.036149568245041584
sg279
g2
(g280
g281
F0.002786134147996588
tp601
Rp602
sg284
Nsg273
(dp603
g599
F1.0
ssbF-17.386096978845032
ssbag2
(g268
g4
Ntp604
Rp605
(dp606
g272
F0.025449819864064097
sg273
(dp607
g2
(g275
g4
Ntp608
Rp609
(dp610
g272
F0.00092
sg279
g2
(g280
g281
F0.0005511086176370014
tp611
Rp612
sg284
Nsg273
(dp613
g609
F1.0
ssbF27.66284767833054
sg599
F-0.704014490340556
ssbag2
(g268
g4
Ntp614
Rp615
(dp616
g272
F0.0
sg273
(dp617
g2
(g275
g4
Ntp618
Rp619
(dp620
g272
F0.0
sg279
g2
(g280
g281
F0.0
tp621
Rp622
sg284
Nsg273
(dp623
g619
F1.0
ssbF94.24692624372173
sg2
(g275
g4
Ntp624
Rp625
(dp626
g272
F0.010610425611271488
sg279
g2
(g280
g281
F0.001873933457258674
tp627
Rp628
sg284
Nsg273
(dp629
g625
F1.0
ssbF0.0
ssbag2
(g268
g4
Ntp630
Rp631
(dp632
g272
F1.4457478485786912
sg273
(dp633
g2
(g275
g4
Ntp634
Rp635
(dp636
g272
F0.015339999999999998
sg279
g2
(g280
g281
F0.0029377885652084094
tp637
Rp638
sg284
Nsg273
(dp639
g635
F1.0
ssbF94.24692624372173
sg625
F-136.25729085201527
ssbag2
(g268
g4
Ntp640
Rp641
(dp642
g272
F0.6739866622626361
sg273
(dp643
g2
(g275
g4
Ntp644
Rp645
(dp646
g272
F0.022760000000000002
sg279
g2
(g280
g281
F0.0014549208164465462
tp647
Rp648
sg284
Nsg273
(dp649
g645
F1.0
ssbF29.612770749676454
sg2
(g275
g4
Ntp650
Rp651
(dp652
g272
F0.03376921425060929
sg279
g2
(g280
g281
F0.001611073947278346
tp653
Rp654
sg284
Nsg273
(dp655
g651
F1.0
ssbF-19.958612517923054
ssbag2
(g268
g4
Ntp656
Rp657
(dp658
g272
F0.03435081406962469
sg273
(dp659
g2
(g275
g4
Ntp660
Rp661
(dp662
g272
F0.00116
sg279
g2
(g280
g281
F0.0002858525190987021
tp663
Rp664
sg284
Nsg273
(dp665
g661
F1.0
ssbF29.612770749676454
sg651
F-1.0172227821085562
ssbag2
(g268
g4
Ntp666
Rp667
(dp668
g272
F0.0
sg273
(dp669
g2
(g275
g4
Ntp670
Rp671
(dp672
g272
F0.0
sg279
g2
(g280
g281
F0.0
tp673
Rp674
sg284
Nsg273
(dp675
g671
F1.0
ssbF110.80219595130549
sg2
(g275
g4
Ntp676
Rp677
(dp678
g272
F0.009025091889329272
sg279
g2
(g280
g281
F0.0011022588194381693
tp679
Rp680
sg284
Nsg273
(dp681
g677
F1.0
ssbF0.0
ssbag2
(g268
g4
Ntp682
Rp683
(dp684
g272
F1.451508766962102
sg273
(dp685
g2
(g275
g4
Ntp686
Rp687
(dp688
g272
F0.0131
sg279
g2
(g280
g281
F0.0015533211654842362
tp689
Rp690
sg284
Nsg273
(dp691
g687
F1.0
ssbF110.80219595130549
sg677
F-160.83035882197268
ssbag2
(g268
g4
Ntp692
Rp693
(dp694
g272
F0.6253017104879238
sg273
(dp695
g2
(g275
g4
Ntp696
Rp697
(dp698
g272
F0.0201
sg279
g2
(g280
g281
F0.0027847619838524537
tp699
Rp700
sg284
Nsg273
(dp701
g697
F1.0
ssbF31.10953783522009
sg2
(g275
g4
Ntp702
Rp703
(dp704
g272
F0.032144482675916464
sg279
g2
(g280
g281
F0.001989680900600092
tp705
Rp706
sg284
Nsg273
(dp707
g703
F1.0
ssbF-19.452847220851904
ssbag2
(g268
g4
Ntp708
Rp709
(dp710
g272
F0.0335983008620377
sg273
(dp711
g2
(g275
g4
Ntp712
Rp713
(dp714
g272
F0.00108
sg279
g2
(g280
g281
F0.0002964432165066621
tp715
Rp716
sg284
Nsg273
(dp717
g713
F1.0
ssbF31.10953783522009
sg703
F-1.0452276118666695
ssbag2
(g268
g4
Ntp718
Rp719
(dp720
g272
F0.0
sg273
(dp721
g2
(g275
g4
Ntp722
Rp723
(dp724
g272
F0.0
sg279
g2
(g280
g281
F0.0
tp725
Rp726
sg284
Nsg273
(dp727
g723
F1.0
ssbF97.17734910963149
sg2
(g275
g4
Ntp728
Rp729
(dp730
g272
F0.010290463870051045
sg279
g2
(g280
g281
F0.0019150835504268993
tp731
Rp732
sg284
Nsg273
(dp733
g729
F1.0
ssbF0.0
ssbag2
(g268
g4
Ntp734
Rp735
(dp736
g272
F1.4110151090718492
sg273
(dp737
g2
(g275
g4
Ntp738
Rp739
(dp740
g272
F0.01452
sg279
g2
(g280
g281
F0.0026967272717280245
tp741
Rp742
sg284
Nsg273
(dp743
g739
F1.0
ssbF97.17734910963149
sg729
F-137.11870785323987
ssbag2
(g268
g4
Ntp744
Rp745
(dp746
g272
F0.6519372867749078
sg273
(dp747
g2
(g275
g4
Ntp748
Rp749
(dp750
g272
F0.022240000000000003
sg279
g2
(g280
g281
F0.0017594865173526887
tp751
Rp752
sg284
Nsg273
(dp753
g749
F1.0
ssbF29.313726923332183
sg2
(g275
g4
Ntp754
Rp755
(dp756
g272
F0.03411371070677651
sg279
g2
(g280
g281
F0.0030927093653430517
tp757
Rp758
sg284
Nsg273
(dp759
g755
F1.0
ssbF-19.11071159565775
ssbag2
(g268
g4
Ntp760
Rp761
(dp762
g272
F0.0416254922311317
sg273
(dp763
g2
(g275
g4
Ntp764
Rp765
(dp766
g272
F0.0014199999999999998
sg279
g2
(g280
g281
F0.0005074138586013447
tp767
Rp768
sg284
Nsg273
(dp769
g765
F1.0
ssbF29.313726923332183
sg755
F-1.2201983123126798
ssbag2
(g268
g4
Ntp770
Rp771
(dp772
g272
F0.0
sg273
(dp773
g2
(g275
g4
Ntp774
Rp775
(dp776
g272
F0.0
sg279
g2
(g280
g281
F0.0
tp777
Rp778
sg284
Nsg273
(dp779
g775
F1.0
ssbF109.18390522015075
sg2
(g275
g4
Ntp780
Rp781
(dp782
g272
F0.009158859064288554
sg279
g2
(g280
g281
F0.0017540984242029778
tp783
Rp784
sg284
Nsg273
(dp785
g781
F1.0
ssbF0.0
ssbag2
(g268
g4
Ntp786
Rp787
(dp788
g272
F1.3997376649223323
sg273
(dp789
g2
(g275
g4
Ntp790
Rp791
(dp792
g272
F0.012819999999999998
sg279
g2
(g280
g281
F0.002449573667686375
tp793
Rp794
sg284
Nsg273
(dp795
g791
F1.0
ssbF109.18390522015075
sg781
F-152.82882453995504
ssbag2
(g268
g4
Ntp796
Rp797
(dp798
g272
F0.6302434415595985
sg273
(dp799
g2
(g275
g4
Ntp800
Rp801
(dp802
g272
F0.02322
sg279
g2
(g280
g281
F0.0023119636940352934
tp803
Rp804
sg284
Nsg273
(dp805
g801
F1.0
ssbF27.142267078363417
sg2
(g275
g4
Ntp806
Rp807
(dp808
g272
F0.03684290619913451
sg279
g2
(g280
g281
F0.0043860243044863655
tp809
Rp810
sg284
Nsg273
(dp811
g807
F1.0
ssbF-17.106235815197547
ssbag2
(g268
g4
Ntp812
Rp813
(dp814
g272
F0.02822795776149795
sg273
(dp815
g2
(g275
g4
Ntp816
Rp817
(dp818
g272
F0.00104
sg279
g2
(g280
g281
F0.0004173912214472131
tp819
Rp820
sg284
Nsg273
(dp821
g817
F1.0
ssbF27.142267078363417
sg807
F-0.7661707686393389
ssbag2
(g268
g4
Ntp822
Rp823
(dp824
g272
F0.0
sg273
(dp825
g2
(g275
g4
Ntp826
Rp827
(dp828
g272
F0.0
sg279
g2
(g280
g281
F0.0
tp829
Rp830
sg284
Nsg273
(dp831
g827
F1.0
ssbF105.76632033173318
sg2
(g275
g4
Ntp832
Rp833
(dp834
g272
F0.009454805621142225
sg279
g2
(g280
g281
F0.0005958500559839004
tp835
Rp836
sg284
Nsg273
(dp837
g833
F1.0
ssbF0.0
ssbag2
(g268
g4
Ntp838
Rp839
(dp840
g272
F1.4384219565115712
sg273
(dp841
g2
(g275
g4
Ntp842
Rp843
(dp844
g272
F0.013600000000000001
sg279
g2
(g280
g281
F0.0011548142725289134
tp845
Rp846
sg284
Nsg273
(dp847
g843
F1.0
ssbF105.76632033173318
sg833
F-152.1365974246012
ssbag2
(g268
g4
Ntp848
Rp849
(dp850
g272
F0.6719450994020957
sg273
(dp851
g2
(g275
g4
Ntp852
Rp853
(dp854
g272
F0.0232
sg279
g2
(g280
g281
F0.0017712762350424207
tp855
Rp856
sg284
Nsg273
(dp857
g853
F1.0
ssbF28.963150836297228
sg2
(g275
g4
Ntp858
Rp859
(dp860
g272
F0.03452663025691179
sg279
g2
(g280
g281
F0.0025268319310667348
tp861
Rp862
sg284
Nsg273
(dp863
g859
F1.0
ssbF-19.46164726769363
ssbag2
(g268
g4
Ntp864
Rp865
(dp866
g272
F0.03359725497010479
sg273
(dp867
g2
(g275
g4
Ntp868
Rp869
(dp870
g272
F0.00116
sg279
g2
(g280
g281
F0.0003984948392348916
tp871
Rp872
sg284
Nsg273
(dp873
g869
F1.0
ssbF28.963150836297228
sg859
F-0.9730823633846816
ssbag2
(g268
g4
Ntp874
Rp875
(dp876
g272
F0.0
sg273
(dp877
g2
(g275
g4
Ntp878
Rp879
(dp880
g272
F0.0
sg279
g2
(g280
g281
F0.0
tp881
Rp882
sg284
Nsg273
(dp883
g879
F1.0
ssbF94.55358308101897
sg2
(g275
g4
Ntp884
Rp885
(dp886
g272
F0.010576013805242496
sg279
g2
(g280
g281
F0.0014583037512797667
tp887
Rp888
sg284
Nsg273
(dp889
g885
F1.0
ssbF0.0
ssbag2
(g268
g4
Ntp890
Rp891
(dp892
g272
F1.414521602892044
sg273
(dp893
g2
(g275
g4
Ntp894
Rp895
(dp896
g272
F0.014960000000000001
sg279
g2
(g280
g281
F0.0022325795446477233
tp897
Rp898
sg284
Nsg273
(dp899
g895
F1.0
ssbF94.55358308101897
sg885
F-133.748085898949
ssbag2
(g268
g4
Ntp900
Rp901
(dp902
g272
F0.6267502929756169
sg273
(dp903
g2
(g275
g4
Ntp904
Rp905
(dp906
g272
F0.022099999999999998
sg279
g2
(g280
g281
F0.0025612612042258676
tp907
Rp908
sg284
Nsg273
(dp909
g905
F1.0
ssbF28.359741763602575
sg2
(g275
g4
Ntp910
Rp911
(dp912
g272
F0.03526125196539761
sg279
g2
(g280
g281
F0.003486569527442408
tp913
Rp914
sg284
Nsg273
(dp915
g911
F1.0
ssbF-17.774476459050753
ssbag2
(g268
g4
Ntp916
Rp917
(dp918
g272
F0.03516607978686719
sg273
(dp919
g2
(g275
g4
Ntp920
Rp921
(dp922
g272
F0.00124
sg279
g2
(g280
g281
F0.000368337066598397
tp923
Rp924
sg284
Nsg273
(dp925
g921
F1.0
ssbF28.359741763602575
sg911
F-0.9973009415937979
ssbag2
(g268
g4
Ntp926
Rp927
(dp928
g272
F0.0
sg273
(dp929
g2
(g275
g4
Ntp930
Rp931
(dp932
g272
F0.0
sg279
g2
(g280
g281
F0.0
tp933
Rp934
sg284
Nsg273
(dp935
g931
F1.0
ssbF96.09341798813485
sg2
(g275
g4
Ntp936
Rp937
(dp938
g272
F0.010406540020498336
sg279
g2
(g280
g281
F0.0008870284637944845
tp939
Rp940
sg284
Nsg273
(dp941
g937
F1.0
ssbF0.0
ssbag2
(g268
g4
Ntp942
Rp943
(dp944
g272
F1.427948191303684
sg273
(dp945
g2
(g275
g4
Ntp946
Rp947
(dp948
g272
F0.014860000000000002
sg279
g2
(g280
g281
F0.0013675225280118852
tp949
Rp950
sg284
Nsg273
(dp951
g947
F1.0
ssbF96.09341798813485
sg937
F-137.21642241234605
ssbag2
(g268
g4
Ntp952
Rp953
(dp954
g272
F0.64404470283829
sg273
(dp955
g2
(g275
g4
Ntp956
Rp957
(dp958
g272
F0.0216
sg279
g2
(g280
g281
F0.0018604254063405092
tp959
Rp960
sg284
Nsg273
(dp961
g957
F1.0
ssbF29.816884390661574
sg2
(g275
g4
Ntp962
Rp963
(dp964
g272
F0.03353804464939981
sg279
g2
(g280
g281
F0.001951177430312637
tp965
Rp966
sg284
Nsg273
(dp967
g963
F1.0
ssbF-19.20340644694728
ssbag2
(g268
g4
Ntp968
Rp969
(dp970
g272
F0.03816561202004681
sg273
(dp971
g2
(g275
g4
Ntp972
Rp973
(dp974
g272
F0.00128
sg279
g2
(g280
g281
F0.0001360174761316475
tp975
Rp976
sg284
Nsg273
(dp977
g973
F1.0
ssbF29.816884390661574
sg963
F-1.1379796413005796
ssbag2
(g268
g4
Ntp978
Rp979
(dp980
g272
F0.004719624969093003
sg273
(dp981
g2
(g275
g4
Ntp982
Rp983
(dp984
g272
F4e-05
sg279
g2
(g280
g281
F6.80087380658257e-05
tp985
Rp986
sg284
Nsg273
(dp987
g983
F1.0
ssbF117.99062422732507
sg2
(g275
g4
Ntp988
Rp989
(dp990
g272
F0.00847524967808767
sg279
g2
(g280
g281
F0.001722755811926049
tp991
Rp992
sg284
Nsg273
(dp993
g989
F1.0
ssbF-0.5568714962221532
ssbag2
(g268
g4
Ntp994
Rp995
(dp996
g272
F1.4276865531506333
sg273
(dp997
g2
(g275
g4
Ntp998
Rp999
(dp1000
g272
F0.0121
sg279
g2
(g280
g281
F0.002506501077014349
tp1001
Rp1002
sg284
Nsg273
(dp1003
g999
F1.0
ssbF117.99062422732507
sg989
F-168.45362760720133
ssbag2
(g268
g4
Ntp1004
Rp1005
(dp1006
g272
F0.6259747774852876
sg273
(dp1007
g2
(g275
g4
Ntp1008
Rp1009
(dp1010
g272
F0.0225
sg279
g2
(g280
g281
F0.0013430649637263866
tp1011
Rp1012
sg284
Nsg273
(dp1013
g1009
F1.0
ssbF27.82110122156834
sg2
(g275
g4
Ntp1014
Rp1015
(dp1016
g272
F0.035943940250098685
sg279
g2
(g280
g281
F0.004271732545708232
tp1017
Rp1018
sg284
Nsg273
(dp1019
g1015
F1.0
ssbF-17.41530764656691
ssbag2
(g268
g4
Ntp1020
Rp1021
(dp1022
g272
F0.03282889944145064
sg273
(dp1023
g2
(g275
g4
Ntp1024
Rp1025
(dp1026
g272
F0.00118
sg279
g2
(g280
g281
F0.00029644321650666077
tp1027
Rp1028
sg284
Nsg273
(dp1029
g1025
F1.0
ssbF27.82110122156834
sg1015
F-0.9133361343532869
ssbag2
(g268
g4
Ntp1030
Rp1031
(dp1032
g272
F0.0
sg273
(dp1033
g2
(g275
g4
Ntp1034
Rp1035
(dp1036
g272
F0.0
sg279
g2
(g280
g281
F0.0
tp1037
Rp1038
sg284
Nsg273
(dp1039
g1035
F1.0
ssbF111.55836100913795
sg2
(g275
g4
Ntp1040
Rp1041
(dp1042
g272
F0.008963917997308047
sg279
g2
(g280
g281
F0.0008302535464726047
tp1043
Rp1044
sg284
Nsg273
(dp1045
g1041
F1.0
ssbF0.0
ssbag2
(g268
g4
Ntp1046
Rp1047
(dp1048
g272
F1.4435651914582452
sg273
(dp1049
g2
(g275
g4
Ntp1050
Rp1051
(dp1052
g272
F0.012940000000000002
sg279
g2
(g280
g281
F0.0014915480703082099
tp1053
Rp1054
sg284
Nsg273
(dp1055
g1051
F1.0
ssbF111.55836100913795
sg1041
F-161.04176676892428
ssbag2
(g268
g4
Ntp1056
Rp1057
(dp1058
g272
F0.6500966318814756
sg273
(dp1059
g2
(g275
g4
Ntp1060
Rp1061
(dp1062
g272
F0.0217
sg279
g2
(g280
g281
F0.002119939019672292
tp1063
Rp1064
sg284
Nsg273
(dp1065
g1061
F1.0
ssbF29.95837013278689
sg2
(g275
g4
Ntp1066
Rp1067
(dp1068
g272
F0.0333796530174245
sg279
g2
(g280
g281
F0.0032225481556678315
tp1069
Rp1070
sg284
Nsg273
(dp1071
g1067
F1.0
ssbF-19.47583551998335
ssbag2
(g268
g4
Ntp1072
Rp1073
(dp1074
g272
F0.04074338338059017
sg273
(dp1075
g2
(g275
g4
Ntp1076
Rp1077
(dp1078
g272
F0.00136
sg279
g2
(g280
g281
F0.0006721061961770333
tp1079
Rp1080
sg284
Nsg273
(dp1081
g1077
F1.0
ssbF29.95837013278689
sg1067
F-1.2206053597777584
ssbag2
(g268
g4
Ntp1082
Rp1083
(dp1084
g272
F0.0
sg273
(dp1085
g2
(g275
g4
Ntp1086
Rp1087
(dp1088
g272
F0.0
sg279
g2
(g280
g281
F0.0
tp1089
Rp1090
sg284
Nsg273
(dp1091
g1087
F1.0
ssbF99.02079721541496
sg2
(g275
g4
Ntp1092
Rp1093
(dp1094
g272
F0.010098888598367354
sg279
g2
(g280
g281
F0.0014202931156506741
tp1095
Rp1096
sg284
Nsg273
(dp1097
g1093
F1.0
ssbF0.0
ssbag2
(g268
g4
Ntp1098
Rp1099
(dp1100
g272
F1.4437232234007502
sg273
(dp1101
g2
(g275
g4
Ntp1102
Rp1103
(dp1104
g272
F0.014580000000000001
sg279
g2
(g280
g281
F0.0019383484603055542
tp1105
Rp1106
sg284
Nsg273
(dp1107
g1103
F1.0
ssbF99.02079721541496
sg1093
F-142.95862453955093
ssbag2
(g268
g4
Ntp1108
Rp1109
(dp1110
g272
F0.6606977546616757
sg273
(dp1111
g2
(g275
g4
Ntp1112
Rp1113
(dp1114
g272
F0.022200000000000004
sg279
g2
(g280
g281
F0.0013487923456311282
tp1115
Rp1116
sg284
Nsg273
(dp1117
g1113
F1.0
ssbF29.761160119895298
sg2
(g275
g4
Ntp1118
Rp1119
(dp1120
g272
F0.0336008406920771
sg279
g2
(g280
g281
F0.002412556386512245
tp1121
Rp1122
sg284
Nsg273
(dp1123
g1119
F1.0
ssbF-19.663131667341432
ssbag2
(g268
g4
Ntp1124
Rp1125
(dp1126
g272
F0.044641740179842945
sg273
(dp1127
g2
(g275
g4
Ntp1128
Rp1129
(dp1130
g272
F0.0015
sg279
g2
(g280
g281
F0.0005043663003530612
tp1131
Rp1132
sg284
Nsg273
(dp1133
g1129
F1.0
ssbF29.761160119895298
sg1119
F-1.3285899775230696
ssbag2
(g268
g4
Ntp1134
Rp1135
(dp1136
g272
F0.0
sg273
(dp1137
g2
(g275
g4
Ntp1138
Rp1139
(dp1140
g272
F0.0
sg279
g2
(g280
g281
F0.0
tp1141
Rp1142
sg284
Nsg273
(dp1143
g1139
F1.0
ssbF102.04922750439701
sg2
(g275
g4
Ntp1144
Rp1145
(dp1146
g272
F0.009799192257059592
sg279
g2
(g280
g281
F0.0016664939554651506
tp1147
Rp1148
sg284
Nsg273
(dp1149
g1145
F1.0
ssbF0.0
ssbag2
(g268
g4
Ntp1150
Rp1151
(dp1152
g272
F1.434812138711822
sg273
(dp1153
g2
(g275
g4
Ntp1154
Rp1155
(dp1156
g272
F0.01406
sg279
g2
(g280
g281
F0.002698441838355647
tp1157
Rp1158
sg284
Nsg273
(dp1159
g1155
F1.0
ssbF102.04922750439701
sg1145
F-146.42147036947316
ssbag2
(g268
g4
Ntp1160
Rp1161
(dp1162
g272
F0.6423272716498076
sg273
(dp1163
g2
(g275
g4
Ntp1164
Rp1165
(dp1166
g272
F0.02316
sg279
g2
(g280
g281
F0.0021659831073064153
tp1167
Rp1168
sg284
Nsg273
(dp1169
g1165
F1.0
ssbF27.734338154136772
sg2
(g275
g4
Ntp1170
Rp1171
(dp1172
g272
F0.03605638593004762
sg279
g2
(g280
g281
F0.0029104536663800066
tp1173
Rp1174
sg284
Nsg273
(dp1175
g1171
F1.0
ssbF-17.814521757559838
ssbag2
(g268
g4
Ntp1176
Rp1177
(dp1178
g272
F0.0360546396003778
sg273
(dp1179
g2
(g275
g4
Ntp1180
Rp1181
(dp1182
g272
F0.0013
sg279
g2
(g280
g281
F0.000562187285794734
tp1183
Rp1184
sg284
Nsg273
(dp1185
g1181
F1.0
ssbF27.734338154136772
sg1171
F-0.9999515667024088
ssbag2
(g268
g4
Ntp1186
Rp1187
(dp1188
g272
F0.0
sg273
(dp1189
g2
(g275
g4
Ntp1190
Rp1191
(dp1192
g272
F0.0
sg279
g2
(g280
g281
F0.0
tp1193
Rp1194
sg284
Nsg273
(dp1195
g1191
F1.0
ssbF104.57663856664787
sg2
(g275
g4
Ntp1196
Rp1197
(dp1198
g272
F0.009562365110470525
sg279
g2
(g280
g281
F0.001132753666849836
tp1199
Rp1200
sg284
Nsg273
(dp1201
g1197
F1.0
ssbF0.0
ssbag2
(g268
g4
Ntp1202
Rp1203
(dp1204
g272
F1.4494322105337396
sg273
(dp1205
g2
(g275
g4
Ntp1206
Rp1207
(dp1208
g272
F0.01386
sg279
g2
(g280
g281
F0.001534849390727695
tp1209
Rp1210
sg284
Nsg273
(dp1211
g1207
F1.0
ssbF104.57663856664787
sg1197
F-151.57674840784438
ssbag2
(g268
g4
Ntp1212
Rp1213
(dp1214
g272
F0.64533516692931
sg273
(dp1215
g2
(g275
g4
Ntp1216
Rp1217
(dp1218
g272
F0.02362
sg279
g2
(g280
g281
F0.003502505033208694
tp1219
Rp1220
sg284
Nsg273
(dp1221
g1217
F1.0
ssbF27.321556601579598
sg2
(g275
g4
Ntp1222
Rp1223
(dp1224
g272
F0.03660113567402616
sg279
g2
(g280
g281
F0.004933229518653418
tp1225
Rp1226
sg284
Nsg273
(dp1227
g1223
F1.0
ssbF-17.631561290248964
ssbag2
(g268
g4
Ntp1228
Rp1229
(dp1230
g272
F0.032785867921895515
sg273
(dp1231
g2
(g275
g4
Ntp1232
Rp1233
(dp1234
g272
F0.0012
sg279
g2
(g280
g281
F0.00021506251308180395
tp1235
Rp1236
sg284
Nsg273
(dp1237
g1233
F1.0
ssbF27.321556601579598
sg1223
F-0.8957609461599813
ssbag2
(g268
g4
Ntp1238
Rp1239
(dp1240
g272
F0.0
sg273
(dp1241
g2
(g275
g4
Ntp1242
Rp1243
(dp1244
g272
F0.0
sg279
g2
(g280
g281
F0.0
tp1245
Rp1246
sg284
Nsg273
(dp1247
g1243
F1.0
ssbF112.28557042991257
sg2
(g275
g4
Ntp1248
Rp1249
(dp1250
g272
F0.008905863827126293
sg279
g2
(g280
g281
F0.0005682252673672722
tp1251
Rp1252
sg284
Nsg273
(dp1253
g1249
F1.0
ssbF0.0
ssbag2
(g268
g4
Ntp1254
Rp1255
(dp1256
g272
F1.4417467243200774
sg273
(dp1257
g2
(g275
g4
Ntp1258
Rp1259
(dp1260
g272
F0.01284
sg279
g2
(g280
g281
F0.0007056760046031162
tp1261
Rp1262
sg284
Nsg273
(dp1263
g1259
F1.0
ssbF112.28557042991257
sg1249
F-161.8873533557378
ssbag2
(g268
g4
Ntp1264
Rp1265
(dp1266
g272
F0.6696305815713791
sg273
(dp1267
g2
(g275
g4
Ntp1268
Rp1269
(dp1270
g272
F0.021079999999999998
sg279
g2
(g280
g281
F0.0017146656020397423
tp1271
Rp1272
sg284
Nsg273
(dp1273
g1269
F1.0
ssbF31.766156621033165
sg2
(g275
g4
Ntp1274
Rp1275
(dp1276
g272
F0.03148004374372048
sg279
g2
(g280
g281
F0.002596670649083017
tp1277
Rp1278
sg284
Nsg273
(dp1279
g1275
F1.0
ssbF-21.271589932429954
ssbag2
(g268
g4
Ntp1280
Rp1281
(dp1282
g272
F0.03240147975345383
sg273
(dp1283
g2
(g275
g4
Ntp1284
Rp1285
(dp1286
g272
F0.00102
sg279
g2
(g280
g281
F0.00029644321650666077
tp1287
Rp1288
sg284
Nsg273
(dp1289
g1285
F1.0
ssbF31.766156621033165
sg1275
F-1.0292704806014494
ssbag2
(g268
g4
Ntp1290
Rp1291
(dp1292
g272
F0.0
sg273
(dp1293
g2
(g275
g4
Ntp1294
Rp1295
(dp1296
g272
F0.0
sg279
g2
(g280
g281
F0.0
tp1297
Rp1298
sg284
Nsg273
(dp1299
g1295
F1.0
ssbF105.0970111605597
sg2
(g275
g4
Ntp1300
Rp1301
(dp1302
g272
F0.009515018447786983
sg279
g2
(g280
g281
F0.0021369458713001725
tp1303
Rp1304
sg284
Nsg273
(dp1305
g1301
F1.0
ssbF0.0
ssbag2
(g268
g4
Ntp1306
Rp1307
(dp1308
g272
F1.4061980093282889
sg273
(dp1309
g2
(g275
g4
Ntp1310
Rp1311
(dp1312
g272
F0.01338
sg279
g2
(g280
g281
F0.003366718754153491
tp1313
Rp1314
sg284
Nsg273
(dp1315
g1311
F1.0
ssbF105.0970111605597
sg1301
F-147.787207880332
ssbag2
(g268
g4
Ntp1316
Rp1317
(dp1318
g272
F0.6549869096832632
sg273
(dp1319
g2
(g275
g4
Ntp1320
Rp1321
(dp1322
g272
F0.02282
sg279
g2
(g280
g281
F0.0026036483140129
tp1323
Rp1324
sg284
Nsg273
(dp1325
g1321
F1.0
ssbF28.702318566313025
sg2
(g275
g4
Ntp1326
Rp1327
(dp1328
g272
F0.03484039094924085
sg279
g2
(g280
g281
F0.00509454253617687
tp1329
Rp1330
sg284
Nsg273
(dp1331
g1327
F1.0
ssbF-18.79964293849392
ssbag2
(g268
g4
Ntp1332
Rp1333
(dp1334
g272
F0.03673896776488067
sg273
(dp1335
g2
(g275
g4
Ntp1336
Rp1337
(dp1338
g272
F0.0012799999999999999
sg279
g2
(g280
g281
F0.0005074138586013455
tp1339
Rp1340
sg284
Nsg273
(dp1341
g1337
F1.0
ssbF28.702318566313025
sg1327
F-1.0544935565851103
ssbag2
(g268
g4
Ntp1342
Rp1343
(dp1344
g272
F0.0018722565854078078
sg273
(dp1345
g2
(g275
g4
Ntp1346
Rp1347
(dp1348
g272
F2e-05
sg279
g2
(g280
g281
F5.552890210395598e-05
tp1349
Rp1350
sg284
Nsg273
(dp1351
g1347
F1.0
ssbF93.61282927039039
sg2
(g275
g4
Ntp1352
Rp1353
(dp1354
g272
F0.010682296516341897
sg279
g2
(g280
g281
F0.0010899110630546275
tp1355
Rp1356
sg284
Nsg273
(dp1357
g1353
F1.0
ssbF-0.1752672360801452
ssbag2
(g268
g4
Ntp1358
Rp1359
(dp1360
g272
F1.441637570764012
sg273
(dp1361
g2
(g275
g4
Ntp1362
Rp1363
(dp1364
g272
F0.015400000000000002
sg279
g2
(g280
g281
F0.001681985018940054
tp1365
Rp1366
sg284
Nsg273
(dp1367
g1363
F1.0
ssbF93.61282927039039
sg1353
F-134.9557717817118
ssbag2
(g268
g4
Ntp1368
Rp1369
(dp1370
g272
F0.6621409174017909
sg273
(dp1371
g2
(g275
g4
Ntp1372
Rp1373
(dp1374
g272
F0.023259999999999996
sg279
g2
(g280
g281
F0.0048254264478310585
tp1375
Rp1376
sg284
Nsg273
(dp1377
g1373
F1.0
ssbF28.466935399905033
sg2
(g275
g4
Ntp1378
Rp1379
(dp1380
g272
F0.03512847399805938
sg279
g2
(g280
g281
F0.00781269797522305
tp1381
Rp1382
sg284
Nsg273
(dp1383
g1379
F1.0
ssbF-18.84912272131064
ssbag2
(g268
g4
Ntp1384
Rp1385
(dp1386
g272
F0.03814569343587274
sg273
(dp1387
g2
(g275
g4
Ntp1388
Rp1389
(dp1390
g272
F0.0013399999999999998
sg279
g2
(g280
g281
F0.0005928864330133247
tp1391
Rp1392
sg284
Nsg273
(dp1393
g1389
F1.0
ssbF28.466935399905033
sg1379
F-1.0858909908235708
ssbag2
(g268
g4
Ntp1394
Rp1395
(dp1396
g272
F0.0
sg273
(dp1397
g2
(g275
g4
Ntp1398
Rp1399
(dp1400
g272
F0.0
sg279
g2
(g280
g281
F0.0
tp1401
Rp1402
sg284
Nsg273
(dp1403
g1399
F1.0
ssbF106.81105906417393
sg2
(g275
g4
Ntp1404
Rp1405
(dp1406
g272
F0.009362326417896322
sg279
g2
(g280
g281
F0.0018733745719857735
tp1407
Rp1408
sg284
Nsg273
(dp1409
g1405
F1.0
ssbF0.0
ssbag2
(g268
g4
Ntp1410
Rp1411
(dp1412
g272
F1.420587085553513
sg273
(dp1413
g2
(g275
g4
Ntp1414
Rp1415
(dp1416
g272
F0.013299999999999998
sg279
g2
(g280
g281
F0.0026383533922175262
tp1417
Rp1418
sg284
Nsg273
(dp1419
g1415
F1.0
ssbF106.81105906417393
sg1405
F-151.73441110085898
ssbag2
(g268
g4
Ntp1420
Rp1421
(dp1422
g272
F0.6845574873774634
sg273
(dp1423
g2
(g275
g4
Ntp1424
Rp1425
(dp1426
g272
F0.022660000000000003
sg279
g2
(g280
g281
F0.0025334205816848463
tp1427
Rp1428
sg284
Nsg273
(dp1429
g1425
F1.0
ssbF30.209950899270222
sg2
(g275
g4
Ntp1430
Rp1431
(dp1432
g272
F0.03310167578008731
sg279
g2
(g280
g281
F0.005050653460174324
tp1433
Rp1434
sg284
Nsg273
(dp1435
g1431
F1.0
ssbF-20.68044808140096
ssbag2
(g268
g4
Ntp1436
Rp1437
(dp1438
g272
F0.03443934402516805
sg273
(dp1439
g2
(g275
g4
Ntp1440
Rp1441
(dp1442
g272
F0.00114
sg279
g2
(g280
g281
F0.0008673891793217493
tp1443
Rp1444
sg284
Nsg273
(dp1445
g1441
F1.0
ssbF30.209950899270222
sg1431
F-1.040410892003402
ssbag2
(g268
g4
Ntp1446
Rp1447
(dp1448
g272
F0.0
sg273
(dp1449
g2
(g275
g4
Ntp1450
Rp1451
(dp1452
g272
F0.0
sg279
g2
(g280
g281
F0.0
tp1453
Rp1454
sg284
Nsg273
(dp1455
g1451
F1.0
ssbF119.21888787497592
sg2
(g275
g4
Ntp1456
Rp1457
(dp1458
g272
F0.008387932632358503
sg279
g2
(g280
g281
F0.0009925972396469833
tp1459
Rp1460
sg284
Nsg273
(dp1461
g1457
F1.0
ssbF0.0
ssbag2
(g268
g4
Ntp1462
Rp1463
(dp1464
g272
F1.4330110322572105
sg273
(dp1465
g2
(g275
g4
Ntp1466
Rp1467
(dp1468
g272
F0.01202
sg279
g2
(g280
g281
F0.0013781911060605323
tp1469
Rp1470
sg284
Nsg273
(dp1471
g1467
F1.0
ssbF119.21888787497592
sg1457
F-170.84198157827586
ssbag2
(g268
g4
Ntp1472
Rp1473
(dp1474
g272
F0.6683330630893789
sg273
(dp1475
g2
(g275
g4
Ntp1476
Rp1477
(dp1478
g272
F0.02182
sg279
g2
(g280
g281
F0.002579853907551266
tp1479
Rp1480
sg284
Nsg273
(dp1481
g1477
F1.0
ssbF30.629379609962374
sg2
(g275
g4
Ntp1482
Rp1483
(dp1484
g272
F0.03264839225391116
sg279
g2
(g280
g281
F0.0038244368862796795
tp1485
Rp1486
sg284
Nsg273
(dp1487
g1483
F1.0
ssbF-20.47062709525352
ssbag2
(g268
g4
Ntp1488
Rp1489
(dp1490
g272
F0.04043078108515032
sg273
(dp1491
g2
(g275
g4
Ntp1492
Rp1493
(dp1494
g272
F0.0013199999999999998
sg279
g2
(g280
g281
F0.00020402621419747977
tp1495
Rp1496
sg284
Nsg273
(dp1497
g1493
F1.0
ssbF30.629379609962374
sg1483
F-1.2383697417843558
ssbag2
(g268
g4
Ntp1498
Rp1499
(dp1500
g272
F0.0
sg273
(dp1501
g2
(g275
g4
Ntp1502
Rp1503
(dp1504
g272
F0.0
sg279
g2
(g280
g281
F0.0
tp1505
Rp1506
sg284
Nsg273
(dp1507
g1503
F1.0
ssbF103.83067202871301
sg2
(g275
g4
Ntp1508
Rp1509
(dp1510
g272
F0.009631065469011537
sg279
g2
(g280
g281
F0.001247809549852903
tp1511
Rp1512
sg284
Nsg273
(dp1513
g1509
F1.0
ssbF0.0
ssbag2
(g268
g4
Ntp1514
Rp1515
(dp1516
g272
F1.4224802067933684
sg273
(dp1517
g2
(g275
g4
Ntp1518
Rp1519
(dp1520
g272
F0.0137
sg279
g2
(g280
g281
F0.0018458662358367417
tp1521
Rp1522
sg284
Nsg273
(dp1523
g1519
F1.0
ssbF103.83067202871301
sg1509
F-147.6970758188981
ssbatp1524
bsS'# groups'
p1525
I2
sS'xs type'
p1526
S'scatter matrix'
p1527
s.