(dp0
S'domain'
p1
ccopy_reg
_reconstructor
p2
(copenmc.universe
Cell
p3
c__builtin__
object
p4
Ntp5
Rp6
(dp7
S'_type'
p8
S'normal'
p9
sS'_rotation'
p10
NsS'_fill'
p11
g2
(copenmc.material
Material
p12
g4
Ntp13
Rp14
(dp15
S'_density_units'
p16
S'g/cm3'
p17
sS'_density'
p18
F0.043439030625154515
sS'_sab'
p19
NsS'_name'
p20
S''
p21
sS'_nuclides'
p22
(dp23
sS'_elements'
p24
(dp25
sS'_id'
p26
I10005
sbsg20
g21
sS'_translation'
p27
NsS'_offset'
p28
Nsg26
I10013
sS'_surfaces'
p29
(dp30
I10003
(g2
(copenmc.surface
ZCylinder
p31
g4
Ntp32
Rp33
(dp34
g8
S'z-cylinder'
p35
sS'_R'
p36
NsS'_coeffs'
p37
(dp38
S'y0'
p39
F0.0
sS'x0'
p40
F0.0
sS'R'
p41
F0.56134
ssg20
g21
sS'_bc_type'
p42
S'transmission'
p43
sg26
I10003
sS'_x0'
p44
NsS'_coeff_keys'
p45
(lp46
g40
ag39
ag41
asS'_y0'
p47
Nsbcnumpy.core.multiarray
scalar
p48
(cnumpy
dtype
p49
(S'i8'
p50
I0
I1
tp51
Rp52
(I3
S'<'
p53
NNNI-1
I-1
I0
tp54
bS'\x01\x00\x00\x00\x00\x00\x00\x00'
p55
tp56
Rp57
tp58
sI10004
(g2
(g31
g4
Ntp59
Rp60
(dp61
g8
g35
sg36
Nsg37
(dp62
g39
F0.0
sg40
F0.0
sg41
F0.60198
ssg20
g21
sg42
g43
sg26
I10004
sg44
Nsg45
(lp63
g40
ag39
ag41
asg47
Nsbg48
(g52
S'\xff\xff\xff\xff\xff\xff\xff\xff'
p64
tp65
Rp66
tp67
ssbsS'group bounds'
p68
cnumpy.core.multiarray
_reconstruct
p69
(cnumpy
ndarray
p70
(I0
tp71
S'b'
p72
tp73
Rp74
(I1
(I3
tp75
g49
(S'f8'
p76
I0
I1
tp77
Rp78
(I3
S'<'
p79
NNNI-1
I-1
I0
tp80
bI00
S'\x00\x00\x00\x00\x00\x00\x00\x00\xf1h\xe3\x88\xb5\xf8\xa4>\x00\x00\x00\x00\x00\x00$@'
p81
tp82
bsS'tallies'
p83
(dp84
S'flux'
p85
g2
(copenmc.tallies
Tally
p86
g4
Ntp87
Rp88
(dp89
S'_num_tot_score_bins'
p90
I1
sS'_label'
p91
S'2 groups'
p92
sS'_filters'
p93
(lp94
g2
(copenmc.tallies
Filter
p95
g4
Ntp96
Rp97
(dp98
S'_mesh'
p99
Nsg8
S'distribcell'
p100
sg28
I6
sS'_stride'
p101
I1
sS'_bin_edges'
p102
(lp103
I10013
asbag2
(g95
g4
Ntp104
Rp105
(dp106
g99
Nsg8
S'energy'
p107
sg28
I0
sg101
I24
sg102
(lp108
F0.0
aF6.25e-07
aF10.0
asbasS'_sum_sq'
p109
g69
(g70
(I0
tp110
g72
tp111
Rp112
(I1
(I48
I1
tp113
g78
I00
S'\xc3\xb3\xa7\x05\xe0\x87\x0e?\xda\x83\x06\x01p\xcaB?k)z\x93\xbe\x9e\x1f?\xa3.\xeb\xb6\xc0\xbaG?\xf5\x9dC\xfb\x93\xe3\x00?z\xc8\x13\xd5-/G?\xa1\xe9\x85mc\x18\x11?\xa9\rM0\xfc\x93I?b\x10\x90\x8f\xce8\t?\x7f\xe8\x9c\xbe\xa8\xafL?I\x9c\x0f\x9c\x18\x16\x11?\x94\xd9\x15\xa6F@J?\x8c\x15\x0f\t\x84U\t?\xbc{\xd8\x16\xcd\x8aC?\x98J\x8b\xf3\xf0\xf3\x13?,\xf92\xc5H\xbbE?\t\xf7\x10-F\xed\x17?/\x03&\x93\x98\xbc:?L\x0e\xfes\x84\x00\r?j\xfa\xbd\xa1\xa2\x97L?\xab\xfc\x1e\xaa\xb6B\x08?\x12\x99Z\xf7\x8dAB?\x1b\xf3\x8bZ\xb9^\r?VT\xca\x1e\xa6\xfdI?\xbf[9\xc6\x18\x81\x11?\xae\xad\xcc\xac\x9ebI?\xd8\x8e\x94~\x8d\x85\x05?\x87\xd1f\xc3\n\xe6D?\xf3\x0b\x0c\r\xe1\x98\x05?\x945\x9b\xfeexB?\xbe\x7f\xd8\xc4f\x1f\r?\x84\x01\xd7\x8fuPD?\xb1\xc7\xc2\xab;@\x0f?\xbd#\xa0(\xfc\x16E?\xe6\xa3\xdd\x19\x15\x0f\x15?\xf7\xfa+\xf3.\xa8G?\xfe\x18\x10\xfa\xa3\xf0\x05?\x88~\xa50\xc5\xfaL?\xe2x8\xd0\xceG\x04?\xac\xdd\xea|YzM?\x8e\xcfP\xeaJ\x95\x03?Bw\xb75\x90\x81E?\xf4M\xf7]\x9f\x0e\n?$+\xc7\x89v\x81J?\xf1\xa0\x1d\x87\x8bO\x13?\xf8}1\x7fc\x95F?R\xc5v\x14\xa3[\x06?@\x94\x0b[\xd5\x7fB?'
p114
tp115
bsS'_std_dev'
p116
g69
(g70
(I0
tp117
g72
tp118
Rp119
(I1
(I48
I1
tp120
g78
I00
S"\x86\x10\x9a\xda\x96`F?\xcf2\xd5\xe8\xfa\xe9^?\x1b\x9e\xef\x81\x19\xf1e?\x7f3'\xb6;\x9ef?\xc1\xad\x0e\xaa\xdc\x84J?6\xfa\x06\xcc:\xc5j?^>\xf3\x85F\xfdW?N,\xe01HXH?\xcc{\xb45\x9d\t\\?Nr+\x85\x83\x08l?\x8f+,cy\xf5R?B\xc9\xe6E*\xdaf?^\xc0.E\xe8\xa0R?\xca\x0b\x9d6Q\xdbO?\x0f\x9b\x81\xa1\xdf\xb7U?\x13\xa2\x96\xff@On?\xb4\xe2\xc1!K\x0fe?l|\x04\x96BQb?\x1a\x92 P \x0b;?\x8cH\x83\xc7\xb9cQ?\xa7\x84+HssS?n\xbf~\x84PdW?\xae\x96\xef\x8dC\x93R?\x142\xf1\x7f4\x03h?t\r\xees\xb9\x0fW?\x0cI\xbd\xfc\xa9kX?\x80=\xbfY\x9a\xdaM?\xb5X\xa1=\xc1Pr?R\xb9H\x80\xbc\xc8N?\xe0T\xd9K\xbf*e?W\x13\xdb\xad6\x8e@?\xe6\xbfU|\xb4\xf1D?\xa9\xcb\x18x9\xae]?\x9e\x02\x97\xcb\x00\x81h?\xc4\xf9\x93\xd3\xdb\xaab?\xd0U5\xa2\x1f\xcff?Xf~\xeaB\xd4G?Ud\xeb8\xe7\x7fZ?\xb0\x9a\x15\xe5\xc7\xd7V?\xb8h\xf1Q\xe5\xfaX?/c\xc7\xccO?[?1\xb4\x8f\xbd&(c?\x03\x8btsB\x8aG?\xb3--#\xaael?\xf3L|\xad\x9c\xa5a?\xd0\xc7\xb1J\xda#c?4*\x8d\xef\x80\x8cS?\x12\x08\xd1\xe9H\xf4n?"
p121
tp122
bsS'_num_tot_filter_bins'
p123
I48
sS'_mean'
p124
g69
(g70
(I0
tp125
g72
tp126
Rp127
(I1
(I48
I1
tp128
g78
I00
S'\x00\xb0\xd7=8\xaak?1\x16`\xc5^\xc1\x85?\xcf \x16X9\x80r?\xb0H%P\xe0N\x88?\xf0\x08\xbb\x13\xc3<d?\xe8\x17\x07Ce\xe1\x87?u\xac\xeb7\x97Kl?\xd0"\xd0\xb1\xc7\x90\x89?\x82kO\xbfDQg?:\xe7\xaeK\xf2\x9f\x8a?\x93\xc0\t_?\xc7l?\x0e\xb7\x0c\xa5A\x98\x89?-\xa45\x99"\x91h?\x96\xf2}9\'R\x86?`\xa6$ \x85\xfdn?\n<\xc0\xe3C\xf2\x86?\xf6~\xf6\x97\xd4\x8ao?y`Y\x17\xf63\x82?&\xe7`\xa5\x91#k?\xea\xc1\x99\xfbl\x02\x8b?2\xd7\x95H\x95\xeag?r\x0c\xe9S\xfb\x83\x85?\xe3\x96\x87\xfeq\x97j?\xdd\xc6\x89\xef\xfam\x89?ZCIx\xf6\xc2l?\x16\x0c`\x8c\xbae\x89?\xee\xf0\xaa\xd32\xd9f?\x0c\xcc\xb1Ye+\x86?\x80\xfd,\x02\xc7\xd9f?(k\x89B}h\x85?\xb5>\xbf\x8c-$k?\xe8\x04\xa9\x91\xf6\xc8\x86? \x9c\xce\xfc\xcc/j?>_\\\t\x16\xd0\x86?M\x0c\x1f{\xe0\xf4m?\xa9`L7\x9bC\x88?B\x8dF@\xc5Ng?\xa6\xe6\x80\xbd\xf8!\x8b?\xf6\xfb%\x85\x91?e?\xeaE\xde}\xdd`\x8b?\x95\xae*\xbd\x06 d?\x99\x84\xf0\xb1|5\x87?\x06\xe1:\n.zi?\xf6n\xf6\xc2\xc0\x8a\x89?v\xf9\x0e\xf2w\xc2l?^\xf4\xec4\xd2\xcb\x87?\x8du\x02xT\xddf?6_\x94\x970\t\x85?'
p129
tp130
bsS'_num_realizations'
p131
I5
sg22
(lp132
sS'_sum'
p133
g69
(g70
(I0
tp134
g72
tp135
Rp136
(I1
(I48
I1
tp137
g78
I00
S'\x00\xce\xa6&cJ\x91?\xbd\x1b\xb8v\xb61\xab?\x03\xa9\x1b\xaeG \x97?\xdc\x9a.d\x98b\xae?,\xcb\xa9\xd8\xf3K\x89?\xe2\xdd\xc8\x93\xbe\xd9\xad?\xc9K\xf3\x82>\xaf\x91?\x84+D\x9e\xf9\xf4\xaf?bF#\xef\x95%\x8d?\x84PMo\xf7\xa3\xb0?\\\x18f\x9b\x87\xfc\x91?\xd2\xe4O\x0eR\xfe\xaf?8\r\x83?k\xb5\x8e?;o\xdd\x07\xb1\xe6\xab?\xfc\xe7\x164s^\x93?\rK\xb0\xdc\xd4\xae\xac?Z\x0f\xfa\xde\xc4\xb6\x93?\x97\xb8/\x9d\xf3\xc0\xa6?x\x90\\\x07;\xf6\x90?2\x19@\x1d\x84\xe1\xb0?\xfeL\xbb\x9a:\xe5\x8d?\x8fO\xe3(\xfa\xe4\xaa?N\xbe\x14?\xa7\x9e\x90?\x948l\xaby\xc9\xaf?\x18\xca-\x0b\xda\xf9\x91?\x1b\x0fx/)\xbf\xaf?*\xad\x95\x88\x7f\x8f\x8c?\x0f?\x1e\xb0>\xb6\xab?\xe0<\xb8\xc28\x90\x8c?\xf2\xc5+\x93\x9c\xc2\xaa?1\x87\xf7w\x9c\xf6\x90?"F\x1364{\xac?\x94!\x01\x1e\xe0]\x90?\x0ew\xb3\x8b\x1b\x84\xac?\xb0g\xf3L\x0c\xb9\x92?\xd3x\x1f\x05\x82T\xae?\x920X\x90v"\x8d?(\x90pv;\xf5\xb0?\xf3zo\xe6u\x8f\x8a?\xb2\xeb\xaan\x8a\x1c\xb1?:Zul\x08(\x89?\xbf\xa5l\xde\xdb\x02\xad?H\x99\xc9\x8c\xb9\xd8\x8f?\xb4\n\xb4\xf3p\xed\xaf?\xea[I\xf7\x8a\xf9\x91?u1(\xc2\xc6\xbe\xad?\xf0\x12\x03\x96\xa9\x94\x8c?\x03wy\xbd|K\xaa?'
p138
tp139
bsS'_estimator'
p140
S'analog'
p141
sS'_scores'
p142
(lp143
g85
asg26
I10116
sbsS'total'
p144
g2
(g86
g4
Ntp145
Rp146
(dp147
g90
I1
sg91
S'2 groups'
p148
sg93
(lp149
g2
(g95
g4
Ntp150
Rp151
(dp152
g99
Nsg8
g100
sg28
I6
sg101
I1
sg102
(lp153
I10013
asbag2
(g95
g4
Ntp154
Rp155
(dp156
g99
Nsg8
g107
sg28
I0
sg101
I24
sg102
(lp157
F0.0
aF6.25e-07
aF10.0
asbasg109
g69
(g70
(I0
tp158
g72
tp159
Rp160
(I1
(I48
I1
tp161
g78
I00
S'mY\x95\xaf\x91E\xd6>("&U\x991\x0e?\x16\xf6\x17\xee\x1a\xfc\xe6>oi\xd2\xf92I\x13?L\xceXM:>\xc8>\xc0\xb1g\xcfej\x12?\x96\xf1\xa5\xa6\x13\xbf\xd8>\xd4\xf2\xe2H\x90\xdf\x15?\xc8\xd0\xd2\x913\x7f\xd2>9\x86S(\x03\xee\x16?h:\xf9\xfcI\xdf\xd8>b+\xcb\x84\x1d\xce\x15?#?,\xe5\xc6>\xd2>h\x1a\x7fh\x07\xd8\x0e?@\x85DV\x8e\xfb\xdc>\xba\xa0\xdfs7\xba\x10?\xa9YVP\x07h\xe1>b0\xfbL(\n\x05?\t\xca\xa7\xa6\xa8#\xd5>\x00\xa8f\xff\xd1q\x14?\x07\xd3\x8b5\xb7\x9d\xd1>\x94\xd0\xaf\x10\xca\xb9\x0c?\xf4s\xbf\x1a\xd2n\xd5><\x9e\x96\x1f\xb8\xca\x13?\xca\xbe\nt\x16\x8b\xd9>_$r\xc9\x8aD\x15?\xc4\x8b\xae\xa0\xa34\xcf>\xe9[\x0f\xf4\x8a\x86\x10?\xdc\xecr\xbe\x96_\xcf>\xbc|\x80(w#\x0c?\x95\xfa\x895"9\xd5>\x13\x03\xb0C-\xb4\x10?X\x03\xad#\xbb\x90\xd6>\x8b\xe6\\\xe5d=\x10?\x1c\xef+b\x1a~\xde>.j +2\x19\x12?\xe5P3bn\x10\xd0>hG`b\xe2E\x15?+/\\\xca\xb7F\xcd>\x17\xff\xca\x8c\xaf$\x16?\xb0I\x865\xf8o\xcc>\x8d\xe7\xd8\xe6k;\x12?\x11\xf4\x1f\xeb\x0c\x00\xd3>\xf6\x80\xf5\x8f\xf0\x83\x14?\xc6\x9fn\xc1\xce$\xdc>\xde/n\xbc\x9e\\\x11?\xb7\x99\x86\xb8\xa40\xd0>\xd0\xc3\xd8[-$\x0e?'
p162
tp163
bsg116
g69
(g70
(I0
tp164
g72
tp165
Rp166
(I1
(I48
I1
tp167
g78
I00
S'^2\xc3\xd5\xfb\xbd*?a\x01\xac\x99\x86\xd5;?;{\x0b57\x9eJ?\xa5\x9d[c"\xadM?\xa6\xd9\xfd\x9f\xad\xb9/?\xe3\xa2T\xcd6fR?\xfaxM\x88\xf2\x89<?\xfe\xff\xc7\xbbY\x8e2?K\xc2\x1a\xcfq*A?\xd0\xba\xc8i\x98\x14K?UV\x0e\xaa\xf7\xb96?q<\x95\xca\xa7\x81I?7\xffw\x87\xfcH6?\xfd\xe9~\\u\x008?@\xf5XM\xa2\x1d:?\xb5\xe5L\x10\x938T?\x84<\x95\xca\xa7\x81I?B\xc8\x99\xd5\xcd\xd0H?v_\xc3@UF ?\xf5\xc8\x99\xd5\xcd\xd08?\xda`\xf5\xf3GM7?\xb4\xd0\x98\xfek\xb97?NN\x9an\x8d\x946?\x88\xba\xc8i\x98\x14K?\xf8s\x0ev\xe9\xf3;?\xdc_\xf5\xf3GM7?6\xcc,9\xfd\xd31?\xe5\xa2y\x80\xe9\x03T?f\xfd\x938\xcf\xbb2?\x98\xe4\x80\xa6I\x81K?\xc3\x13e\xeb\xb1\xee#?1u\xaa\xa7\xab#8?:Cg\xee\xdb\xdfA?\xe0h\x8bG\x99lM?\xabr\xc9\xdfTxF?`\x8f\xd0d\x8bqG?g\n\xa1\x10\x85\x90-?\xa9\xe9~\\u\x008?\xf3\xc5\x80\xcc\x9b;;?\x9c\xda2";^:?\xed\xc8\xeb\x036m@?\xa4\xed\xbb\xd1\x1bVE?\xdc\xc5\x80\xcc\x9b;+?\x82k\x9c\x8b(\x95Q?[\xa9]\xd05BE?\t\xc1\xe5N\x15\x1eA?e\x8f\xd0d\x8bq7?\x14\x7fe\xf9\'\xbcQ?'
p168
tp169
bsg123
I48
sg124
g69
(g70
(I0
tp170
g72
tp171
Rp172
(I1
(I48
I1
tp173
g78
I00
S'\x9f7\x15\xa90\xb6P?\x8d@\xbc\xae_\xb0k?~\x9fq\xe1@HV?\xf3\xc8\x1f\x0c<\xf7n?V\xf1F\xe6\x91?H?\x08 \xb5\x89\x93\xfbm?D\xc58\x7f\x13\nQ?\xa07\x15\xa90\xb6p?\x03\x95\xf1\xef3.L?\xda\xe1\xaf\xc9\x1a\xf5p?\xe7R\\U\xf6]Q?\xcep\x03>?\x8cp?\x92\xcb\x7fH\xbf}M?2\xce\xdf\x84B\x04l?v\x89\xea\xad\x81\xadR?\xd5[\x03[%Xl?\x1a\x17\x0e\x84d\x01S?\xf5\xf3\xa6"\x15\xc6f?\xfc\xa9\xf1\xd2MbP?\xc1\xffV\xb2c#p?K\xb08\x9c\xf9\xd5L?F%u\x02\x9a\x08k?X\x1c\xce\xfcj\x0eP?j\x1dUM\x10uo?\xe7R\\U\xf6]Q?e\x8dz\x88Fwp?\xbby\xaaCn\x86K?\x03\x95\xf1\xef3.l?\xbby\xaaCn\x86K?\xfe\t.V\xd4`j?\xfd\xa9\xf1\xd2MbP?\xee=\\r\xdc)m?h\x1dUM\x10uO?\xd5[\x03[%Xl?.n\xa3\x01\xbc\x05R?\xda\xe6\xc6\xf4\x84%n?\x03\x95\xf1\xef3.L?e\x8dz\x88Fwp?\xe5\'\xd5>\x1d\x8fI?\x08\x1b\x9e^)\xcbp?V\xf1F\xe6\x91?H?\xab\xad\xd8_vOn?"\x02\x0e\xa1J\xcdN?\r\xabx#\xf3\xc8o?\xe7R\\U\xf6]Q?c\x92\x91\xb3\xb0\xa7m?\xbby\xaaCn\x86K?F%u\x02\x9a\x08k?'
p174
tp175
bsg131
I5
sg22
(lp176
sg133
g69
(g70
(I0
tp177
g72
tp178
Rp179
(I1
(I48
I1
tp180
g78
I00
S'\x87\x85Z\xd3\xbc\xe3t?X\xa85\xcd;N\x91?^\x07\xce\x19Q\xda{?\x98\xdd\x93\x87\x85Z\x93?\xab\xad\xd8_vOn?\x054\x116<\xbd\x92?\x95\xf6\x06_\x98Lu?\x88\x85Z\xd3\xbc\xe3\x94?"\xfd\xf6u\xe0\x9cq?Q\xda\x1b|a2\x95?\xa1g\xb3\xeas\xb5u?\x01M\x84\rO\xaf\x94?;\xdfO\x8d\x97nr?\xdf\xe0\x0b\x93\xa9\x82\x91?\xd4+e\x19\xe2Xw?e\x19\xe2X\x17\xb7\x91?\xe1\x9c\x11\xa5\xbd\xc1w?\xf2\xb0Pk\x9aw\x8c?{\x14\xaeG\xe1zt?\xb1\xbf\xec\x9e<,\x94?/n\xa3\x01\xbc\x05r?L7\x89A`\xe5\x90?n\xa3\x01\xbc\x05\x12t?b2U0*\xa9\x93?\xa1g\xb3\xeas\xb5u?\xbe0\x99*\x18\x95\x94?\x15\x8cJ\xea\x044q?"\xfd\xf6u\xe0\x9c\x91?\x15\x8cJ\xea\x044q??\xc6\xdc\xb5\x84|\x90?|\x14\xaeG\xe1zt?\xb5\xa6y\xc7):\x92?a2U0*\xa9s?e\x19\xe2X\x17\xb7\x91?\xbaI\x0c\x02+\x87v?HP\xfc\x18s\xd7\x92?"\xfd\xf6u\xe0\x9cq?\xbe0\x99*\x18\x95\x94?\xdeq\x8a\x8e\xe4\xf2o?\xca\xa1E\xb6\xf3\xfd\x94?\xab\xad\xd8_vOn?\x8bl\xe7\xfb\xa9\xf1\x92?U\xc1\xa8\xa4N@s?\xe8j+\xf6\x97\xdd\x93?\xa1g\xb3\xeas\xb5u?~\xfb:p\xce\x88\x92?\x15\x8cJ\xea\x044q?L7\x89A`\xe5\x90?'
p181
tp182
bsg140
g141
sg142
(lp183
g144
asg26
I10117
sbsS'scatter-1'
p184
g2
(g86
g4
Ntp185
Rp186
(dp187
g90
I1
sg91
S'2 groups'
p188
sg93
(lp189
g2
(g95
g4
Ntp190
Rp191
(dp192
g99
Nsg8
g100
sg28
I6
sg101
I1
sg102
(lp193
I10013
asbag2
(g95
g4
Ntp194
Rp195
(dp196
g99
Nsg8
g107
sg28
I0
sg101
I24
sg102
(lp197
F0.0
aF6.25e-07
aF10.0
asbasg109
g69
(g70
(I0
tp198
g72
tp199
Rp200
(I1
(I48
I1
tp201
g78
I00
S'\x99\xdeea\xc5an>d\x97U\xdc\x8dh\xc4>\xbe\x1bO\xad\xcdl\x80>5_.\x99\xce\x81\xb9>\xe8\xad/\xf6w\x8d\x80>\xb4\xfb\x90/\xfa\x1e\xb7>\x9ft\x17\x87\xe7\xa2\x96>\x9dQ\xe1\x82\x99\xf8\xc3>\x16\xcb\xb4\x1e)"\x82>^\xef\xe6\x9a\x0ep\xc3>g\x12\xb7\x95\x04\x1c\x89>0\xbd\xc5\x0f-\x1b\xbc>5\x1c\xf5%9iw>\xcf\xc6\xd4K\xb9\t\xa0>\xdac`s\\\x9d\x83>\xb5\xea\xcf\x89\xb3q\xc7>[\xb0DrF\x0cc>\x81\xe5\xda\xe2L\x11\x9c> 6\xbb1\xbcAp>\xe9P\xa3\xa9\xb5\x0f\xbe>\xbaf\xe6\x90F\xeam>\xe6z\xc7K\xb7v\xcf>\x92\x0f\xb7\'-v\x93>\x14\x91\xf6Ms\xfc\xbb>z\x02e*\x0e\'\x9b>\x08\xb5\x9d\xb4iZ\x99>\x0cJ;\xf8\x85\xd5}>\x15\t"rZA\xa5>\xd8\xa2\xec\xe6\xe0\x0b\x91>\xb7\xd4\xaa:A\xe7\xb8>\x9ca}\x8d\xef\xc3T>\xfaU&\xa1fM\xc6>\x82\xc8\xb4Z~\xbfh>\xcd\xee\xb5\xb6\xa8\x9b\xc1>X\xf5\xd1\x0f*>\x84>\x8ak\xf73\xa1\x19\xc6>nz\xc8\x8d<\xa4}>\x1dA\xf0\xaf\xb9,\xc2>c\'\x95\xb9X\xb5x>}\xa5f\x82\xf4\xcc\xbf>@\x03g;\xe8\x84c>Q\xeb\xbb\xd8:\x0f\xb2>\xda\xf24\xe7\x02\x8f\x92>\xe9b\\\x82\xbe\x16\xb9>\x8b\xac\x14Ai\xf4\x88>\xbd\xe9c\x9fa\x8e\xc0>\x11c\x98\x10\xe2\xf5p>g\xd3\xdao6\xe6\xad>'
p202
tp203
bsg116
g69
(g70
(I0
tp204
g72
tp205
Rp206
(I1
(I48
I1
tp207
g78
I00
S'"\xc9\xe0!\xca\xba\x1b?\xcameb\xc6I>?\xec\xde\x08\x8e\xd0\xf5)?x\x05&\xbfg\x85??\xb8\x9c\xf7\x89KN,?m#\x03\x17\x15\x9e>?\xdcb@1\xdb85?\x90\x85\xad\xfdYnH?\xed\xda\xd9\xe9\'\x96,? ax\x02\xe0\r@?\xd5\xb0I\x1e\xe1\x0c1?\xde\x0c\x84\xda\x15\x0c4?d\xc2.#\xb8\xf7%?\xa8\xb1U^\xcb\x1d6?\xaf\x99\\nn2(?;\xed\xc7\xd5&KF?~\x95,\xbd*\xa0\x1e?e9\xd2\xdb\xe3\x041?\xfbE\xd0\x92P\xd4\x15?2K\xc2\x15\xc3\x91\'?\xa7IR\x1b\xab\x10"?\x18Qi\x00\xbb\x83C?\xbd\xc1x*\xf2E5?\xd2\xd8\xdc\xaa\x91\xcc$?\xf4I\xf7\xd2\xce\xa03?\xaek\xceh\xeeE,?W\x02zJ\x86B&?\x97\x88JS\xa370?g\x01\xeeH\xcfd(?\x1fm\x92a\xf0\xd51?qHl\xa8\xe6Z\x13?f\xdf\xed\x00]\x1cC?^+\xa7ug\x80 ?\xa1I\x11\xf6Iq#?Q\x89\x1c\xb5\x87\r/?Y\xc72d,{@?\xd8\xd8\x12\x0c\xa8\xe3!?\x84\xce\xcfM84A?\xdb\xdc\xfb.\xbc\xe5%?\xfc]\xa7\x1c&\x8d=?\xc5h\xdc\xa4Y\xe5\x1e?\x92;5\xe6\xb3\xc26?)\xbbFhj\xca3?\xe2\x85H\x90\x81*@?\xe6\xe46\xc1\'Z0?\x00\x08W\xcc\x17)=?>#I\xfdk\x1b$?`\xd6\x82\xdf\x95\xcd5?'
p208
tp209
bsg123
I48
sg124
g69
(g70
(I0
tp210
g72
tp211
Rp212
(I1
(I48
I1
tp213
g78
I00
S'\xcb1=AVv\x13?\xe6\x8d\xe7\xa6\x07\x16D?"sG\xa1q\xd3\x10\xbf\xc6+\xf5T,\x1d<?\xbe|R\xea\xe8\x9e\xf6>\x95\xb4(\xf4[h:?`xN\xd2\x05\xf2\x1d\xbf2\xb0e\xdf\xa1d<?\xc0\xcf\xa8\xf1\xb5Z\t\xbf\x17W\xdd\xaeE\x13C?n\x18cs\x9d\x1b\t?\xeb\x9d\xdar\t\x8aA?\xaa}&\tt\x12\x0c?\xce\r\xb6\x0ex\n)?V\xa3a\xf2_*\x1c?:\xb1\xf5\xd6.\x80B?:\xb5\x18\x1f\x95\xfb\xce\xbee\n\xabqM\xe9,?\x8b\x19\x05\xc4>0\x18?v\xdf\xcd\xcb\xb6&C?u\xd1\xaaI\x94\xcf\x02?5e\xc6\xad\xa9\xa7H?@\xd2gT\x95;\x0e\xbf\x93\xc2\xf02l\x8dB?d\xb7D\x81*M(\xbf\x12\x92K\xe9^\xb8-?gL\xbc=\xdfV\x16?+\x97)l\xd104?\x80H\xa3\x89\xac\xbf\'\xbf\xc5\x05\xcf*\x80\xa8@?\x95Z\xec\xdc\x8e\xe6\x00?(\xeajD\xb8\x87C?\xad2\x90\xeeD\x89\x00\xbfP\xc5\x88\xc0\xc7\xf0D?\xfb<\x11t\xcb\xe6\x00?\x0f\xce\x88Ln\x9cD?\x1a\xffm\x8a\x8b6\x1d\xbf\xc6\xd5\x91\x9c\x9e\xa7A?E\xeeK\xa51m\x10?\x071\xef\x9f\xb4#A?\x80\x98\x18\x16\xee\xba\xe0\xbe\xd6ME\x02\xf9\x9b9?\xf5y\x96\xbbUn\x17?\xf5\x00\'Y\xe2=;?\xf5O\x07\x1f"P\x12\xbf\xb4\xa3\xd9,\xed\xb4A?\x1a2\x84\xa0\x95\x9f\xf5\xbe\xf04\x83\xaf\xae\xc66?'
p214
tp215
bsg131
I5
sg22
(lp216
sg133
g69
(g70
(I0
tp217
g72
tp218
Rp219
(I1
(I48
I1
tp220
g78
I00
S'>~\x8c\xd1\xebS8?`q\xa1\x90\x89\x1bi?\xeaO\x99\tN\x085\xbf\\;\x19\xb5;\x92a?\xee\x1b\xe7$\xa3F\x1c?\xddp\x99x9\x81`?<\x0bq\xa3C\xb7B\xbf\x1f\x8e\x9f+\xe5\xbea?\xb0\x03\x13nc\xb1/\xbf\xdd\xac\x94\x1a\x17\xd8g?\x8a\xde;\xd0\x84b/?fE\x91\xcf\x8b\xece?\x8a\x0e\xb8\x85\x88\x8b1?A\x91c\x12\x16MO?\x16\x06}\xf7{\x9aA?\x88\x1d\xb3\x8c: g?Dqo3=]\xf3\xbe\x7f\xe6\ng\xd0\x11R?\xee_\x06uN<>?SW\xc1~d\xf0g?\xd2\x85\x15\\y\x83\'?\x82\xfe7\x19\x94\xd1n?h\xe3\xc0T=\xe52\xbf8\xf3\xac?\xc70g?=\xe5\x95!u`N\xbfK;\xcfQ;\x93R?\x81_+\r\x97\xec;?\xf6\xfc3\xc7\x05=Y?\xa0\x1a\x0c\xac\x97\xafM\xbf6\xc7\x825\xa0\xd2d?:q\'\x942 %?\xb2\xa4\x85U\xa6ih?X?4*\x96\xab$\xbf\xa4\xf6\xaa\xb0\xf9,j?:\x8c\x15Q~ %?\x93\x01\xab\xdf\x89\xc3i?p\xbf\x846\x17BB\xbf7K\xb6C\x86\x11f?\xd6\xe9\x9e\x0e~\x884?I\xfd\xea\xc7\xa1le?\xa0\xbe\x9e\x9b\xa9\xe9\x04\xbf\xa6Pk\xa1{\x01`?r\x18|*\xebI=?\x99`\xb8w\xad\x06a?\xf2#\xc9\xa6*\xe46\xbf\xa1\x0c\x10x("f?\xa0>\xa5\x08{\x07\x1b\xbf,\x02d[Zx\\?'
p221
tp222
bsg140
g141
sg142
(lp223
S'scatter-1'
p224
asg26
I10118
sbssS'subdomain offsets'
p225
(dp226
I388
g48
(g52
S'\t\x00\x00\x00\x00\x00\x00\x00'
p227
tp228
Rp229
sI775
g48
(g52
S'\x11\x00\x00\x00\x00\x00\x00\x00'
p230
tp231
Rp232
sI786
g48
(g52
S'\x12\x00\x00\x00\x00\x00\x00\x00'
p233
tp234
Rp235
sI916
g48
(g52
S'\x14\x00\x00\x00\x00\x00\x00\x00'
p236
tp237
Rp238
sI157
g48
(g52
S'\x00\x00\x00\x00\x00\x00\x00\x00'
p239
tp240
Rp241
sI543
g48
(g52
S'\n\x00\x00\x00\x00\x00\x00\x00'
p242
tp243
Rp244
sI168
g48
(g52
S'\x01\x00\x00\x00\x00\x00\x00\x00'
p245
tp246
Rp247
sI554
g48
(g52
S'\x0b\x00\x00\x00\x00\x00\x00\x00'
p248
tp249
Rp250
sI179
g48
(g52
S'\x02\x00\x00\x00\x00\x00\x00\x00'
p251
tp252
Rp253
sI951
g48
(g52
S'\x15\x00\x00\x00\x00\x00\x00\x00'
p254
tp255
Rp256
sI576
g48
(g52
S'\x0c\x00\x00\x00\x00\x00\x00\x00'
p257
tp258
Rp259
sI962
g48
(g52
S'\x16\x00\x00\x00\x00\x00\x00\x00'
p260
tp261
Rp262
sI587
g48
(g52
S'\r\x00\x00\x00\x00\x00\x00\x00'
p263
tp264
Rp265
sI973
g48
(g52
S'\x17\x00\x00\x00\x00\x00\x00\x00'
p266
tp267
Rp268
sI214
g48
(g52
S'\x03\x00\x00\x00\x00\x00\x00\x00'
p269
tp270
Rp271
sI344
g48
(g52
S'\x05\x00\x00\x00\x00\x00\x00\x00'
p272
tp273
Rp274
sI355
g48
(g52
S'\x06\x00\x00\x00\x00\x00\x00\x00'
p275
tp276
Rp277
sI742
g48
(g52
S'\x0e\x00\x00\x00\x00\x00\x00\x00'
p278
tp279
Rp280
sI877
g48
(g52
S'\x13\x00\x00\x00\x00\x00\x00\x00'
p281
tp282
Rp283
sI366
g48
(g52
S'\x07\x00\x00\x00\x00\x00\x00\x00'
p284
tp285
Rp286
sI753
g48
(g52
S'\x0f\x00\x00\x00\x00\x00\x00\x00'
p287
tp288
Rp289
sI377
g48
(g52
S'\x08\x00\x00\x00\x00\x00\x00\x00'
p290
tp291
Rp292
sI764
g48
(g52
S'\x10\x00\x00\x00\x00\x00\x00\x00'
p293
tp294
Rp295
sI253
g48
(g52
S'\x04\x00\x00\x00\x00\x00\x00\x00'
p296
tp297
Rp298
ssS'offset'
p299
I6
sS'domain type'
p300
g100
sS'xs'
p301
g69
(g70
(I0
tp302
g72
tp303
Rp304
(I1
(I24
I2
tp305
g49
(S'O8'
p306
I0
I1
tp307
Rp308
(I3
S'|'
p309
NNNI-1
I-1
I63
tp310
bI00
(lp311
g2
(cuncertainties
AffineScalarFunc
p312
g4
Ntp313
Rp314
(dp315
S'_nominal_value'
p316
F0.260481260888208
sS'derivatives'
p317
(dp318
g2
(cuncertainties
Variable
p319
g4
Ntp320
Rp321
(dp322
g316
F0.0033799999999999998
sS'_std_dev'
p323
g2
(cuncertainties
CallableStdDev
p324
c__builtin__
float
p325
F0.0004247144330946831
tp326
Rp327
sS'tag'
p328
Nsg317
(dp329
g321
F1.0
ssbF94.13775368613405
sg2
(g319
g4
Ntp330
Rp331
(dp332
g316
F0.0006129777300966615
sg323
g2
(g324
g325
F0.00046216100090187547
tp333
Rp334
sg328
Nsg317
(dp335
g331
F1.0
ssbF-94.13775368613405
sg2
(g319
g4
Ntp336
Rp337
(dp338
g316
F0.010622730635087315
sg323
g2
(g324
g325
F0.0018868398941151337
tp339
Rp340
sg328
Nsg317
(dp341
g337
F1.0
ssbF-24.52112077734775
ssbag2
(g312
g4
Ntp342
Rp343
(dp344
g316
F0.2800530196239566
sg317
(dp345
g2
(g319
g4
Ntp346
Rp347
(dp348
g316
F0.0010199999999999999
sg323
g2
(g324
g325
F0.0002040262141974778
tp349
Rp350
sg328
Nsg317
(dp351
g347
F1.0
ssbF296.1150727762183
sg2
(g319
g4
Ntp352
Rp353
(dp354
g316
F7.424260576022812e-05
sg323
g2
(g324
g325
F0.00010578020780441626
tp355
Rp356
sg328
Nsg317
(dp357
g353
F1.0
ssbF-296.1150727762183
sg2
(g319
g4
Ntp358
Rp359
(dp360
g316
F0.00337706551248651
sg323
g2
(g324
g325
F0.0006829010573743556
tp361
Rp362
sg328
Nsg317
(dp363
g359
F1.0
ssbF-82.92792028714763
ssbag2
(g312
g4
Ntp364
Rp365
(dp366
g316
F0.2823287681543072
sg317
(dp367
g2
(g319
g4
Ntp368
Rp369
(dp370
g316
F0.00378
sg323
g2
(g324
g325
F0.000905648985931974
tp371
Rp372
sg328
Nsg317
(dp373
g369
F1.0
ssbF84.25171596190424
sg2
(g319
g4
Ntp374
Rp375
(dp376
g316
F0.0004289849502653844
sg323
g2
(g324
g325
F0.00048097403409749035
tp377
Rp378
sg328
Nsg317
(dp379
g375
F1.0
ssbF-84.25171596190424
sg2
(g319
g4
Ntp380
Rp381
(dp382
g316
F0.011869194455958215
sg323
g2
(g324
g325
F0.002760998367398348
tp383
Rp384
sg328
Nsg317
(dp385
g381
F1.0
ssbF-23.786683182411004
ssbag2
(g312
g4
Ntp386
Rp387
(dp388
g316
F0.315307546753835
sg317
(dp389
g2
(g319
g4
Ntp390
Rp391
(dp392
g316
F0.0013599999999999997
sg323
g2
(g324
g325
F0.0008123178068578438
tp393
Rp394
sg328
Nsg317
(dp395
g391
F1.0
ssbF221.3949340073863
sg2
(g319
g4
Ntp396
Rp397
(dp398
g316
F-6.418591539820694e-05
sg323
g2
(g324
g325
F0.00019806071124305687
tp399
Rp400
sg328
Nsg317
(dp401
g397
F1.0
ssbF-221.3949340073863
sg2
(g319
g4
Ntp402
Rp403
(dp404
g316
F0.004516815185873393
sg323
g2
(g324
g325
F0.002678441829164558
tp405
Rp406
sg328
Nsg317
(dp407
g403
F1.0
ssbF-69.80749350559617
ssbag2
(g312
g4
Ntp408
Rp409
(dp410
g316
F0.27932641362571603
sg317
(dp411
g2
(g319
g4
Ntp412
Rp413
(dp414
g316
F0.00366
sg323
g2
(g324
g325
F0.0011230025459757979
tp415
Rp416
sg328
Nsg317
(dp417
g413
F1.0
ssbF85.76052299706951
sg2
(g319
g4
Ntp418
Rp419
(dp420
g316
F0.000402948808331535
sg323
g2
(g324
g325
F0.00046718611612255636
tp421
Rp422
sg328
Nsg317
(dp423
g419
F1.0
ssbF-85.76052299706951
sg2
(g319
g4
Ntp424
Rp425
(dp426
g316
F0.011660376651786167
sg323
g2
(g324
g325
F0.0032678745630783336
tp427
Rp428
sg328
Nsg317
(dp429
g425
F1.0
ssbF-23.955179319437175
ssbag2
(g312
g4
Ntp430
Rp431
(dp432
g316
F0.29081648437544905
sg317
(dp433
g2
(g319
g4
Ntp434
Rp435
(dp436
g316
F0.00074
sg323
g2
(g324
g325
F0.000242044872716907
tp437
Rp438
sg328
Nsg317
(dp439
g435
F1.0
ssbF404.796049689005
sg2
(g319
g4
Ntp440
Rp441
(dp442
g316
F2.157282019210333e-05
sg323
g2
(g324
g325
F0.00021595642191061192
tp443
Rp444
sg328
Nsg317
(dp445
g441
F1.0
ssbF-404.796049689005
sg2
(g319
g4
Ntp446
Rp447
(dp448
g316
F0.002470379838855334
sg323
g2
(g324
g325
F0.000809295412286408
tp449
Rp450
sg328
Nsg317
(dp451
g447
F1.0
ssbF-117.72136405962603
ssbag2
(g312
g4
Ntp452
Rp453
(dp454
g316
F0.2921336184738391
sg317
(dp455
g2
(g319
g4
Ntp456
Rp457
(dp458
g316
F0.00408
sg323
g2
(g324
g325
F0.0002831429553964425
tp459
Rp460
sg328
Nsg317
(dp461
g457
F1.0
ssbF80.10781041332727
sg2
(g319
g4
Ntp462
Rp463
(dp464
g316
F0.0004332442471397551
sg323
g2
(g324
g325
F0.0007455768021424215
tp465
Rp466
sg328
Nsg317
(dp467
g463
F1.0
ssbF-80.10781041332727
sg2
(g319
g4
Ntp468
Rp469
(dp470
g316
F0.0124831772937041
sg323
g2
(g324
g325
F0.0007429459108164811
tp471
Rp472
sg328
Nsg317
(dp473
g469
F1.0
ssbF-23.40218452406159
ssbag2
(g312
g4
Ntp474
Rp475
(dp476
g316
F0.33417146162410893
sg317
(dp477
g2
(g319
g4
Ntp478
Rp479
(dp480
g316
F0.0010400000000000001
sg323
g2
(g324
g325
F0.00043546839906651003
tp481
Rp482
sg328
Nsg317
(dp483
g479
F1.0
ssbF289.5182910955589
sg2
(g319
g4
Ntp484
Rp485
(dp486
g316
F-0.0001142326405685081
sg323
g2
(g324
g325
F0.0003238234651248681
tp487
Rp488
sg328
Nsg317
(dp489
g485
F1.0
ssbF-289.5182910955589
sg2
(g319
g4
Ntp490
Rp491
(dp492
g316
F0.0034540132031586853
sg323
g2
(g324
g325
F0.0014641941741507995
tp493
Rp494
sg328
Nsg317
(dp495
g491
F1.0
ssbF-96.74875050231715
ssbag2
(g312
g4
Ntp496
Rp497
(dp498
g316
F0.2736740695474595
sg317
(dp499
g2
(g319
g4
Ntp500
Rp501
(dp502
g316
F0.00414
sg323
g2
(g324
g325
F0.0008264297681018443
tp503
Rp504
sg328
Nsg317
(dp505
g501
F1.0
ssbF76.92079192709
sg2
(g319
g4
Ntp506
Rp507
(dp508
g316
F0.000582131409582162
sg323
g2
(g324
g325
F0.0004899352833858429
tp509
Rp510
sg328
Nsg317
(dp511
g507
F1.0
ssbF-76.92079192709
sg2
(g319
g4
Ntp512
Rp513
(dp514
g316
F0.013000386175793122
sg323
g2
(g324
g325
F0.003422028422717361
tp515
Rp516
sg328
Nsg317
(dp517
g513
F1.0
ssbF-21.05122615950009
ssbag2
(g312
g4
Ntp518
Rp519
(dp520
g316
F0.31912923013696387
sg317
(dp521
g2
(g319
g4
Ntp522
Rp523
(dp524
g316
F0.00086
sg323
g2
(g324
g325
F0.0005238586147325389
tp525
Rp526
sg328
Nsg317
(dp527
g523
F1.0
ssbF351.3247870295357
sg2
(g319
g4
Ntp528
Rp529
(dp530
g316
F-4.835956334084358e-05
sg323
g2
(g324
g325
F0.00021809804177382684
tp531
Rp532
sg328
Nsg317
(dp533
g529
F1.0
ssbF-351.3247870295357
sg2
(g319
g4
Ntp534
Rp535
(dp536
g316
F0.002846369049149756
sg323
g2
(g324
g325
F0.0017112765552338314
tp537
Rp538
sg328
Nsg317
(dp539
g535
F1.0
ssbF-112.11800881276854
ssbag2
(g312
g4
Ntp540
Rp541
(dp542
g316
F0.28043716455785067
sg317
(dp543
g2
(g319
g4
Ntp544
Rp545
(dp546
g316
F0.00404
sg323
g2
(g324
g325
F0.000778395585408277
tp547
Rp548
sg328
Nsg317
(dp549
g545
F1.0
ssbF80.01640442870168
sg2
(g319
g4
Ntp550
Rp551
(dp552
g316
F0.0005352541099527519
sg323
g2
(g324
g325
F0.0003058961251698032
tp553
Rp554
sg328
Nsg317
(dp555
g551
F1.0
ssbF-80.01640442870168
sg2
(g319
g4
Ntp556
Rp557
(dp558
g316
F0.01249743733350386
sg323
g2
(g324
g325
F0.0027895761151849616
tp559
Rp560
sg328
Nsg317
(dp561
g557
F1.0
ssbF-22.439573576099342
ssbag2
(g312
g4
Ntp562
Rp563
(dp564
g316
F0.28810619194176684
sg317
(dp565
g2
(g319
g4
Ntp566
Rp567
(dp568
g316
F0.00106
sg323
g2
(g324
g325
F0.00034677788249246516
tp569
Rp570
sg328
Nsg317
(dp571
g567
F1.0
ssbF284.65882101814213
sg2
(g319
g4
Ntp572
Rp573
(dp574
g316
F4.78894639158047e-05
sg323
g2
(g324
g325
F0.00026016708424127
tp575
Rp576
sg328
Nsg317
(dp577
g573
F1.0
ssbF-284.65882101814213
sg2
(g319
g4
Ntp578
Rp579
(dp580
g316
F0.003512977382619972
sg323
g2
(g324
g325
F0.0011571584151990088
tp581
Rp582
sg328
Nsg317
(dp583
g579
F1.0
ssbF-82.0119689261699
ssbag2
(g312
g4
Ntp584
Rp585
(dp586
g316
F0.29626461118506603
sg317
(dp587
g2
(g319
g4
Ntp588
Rp589
(dp590
g316
F0.0034200000000000003
sg323
g2
(g324
g325
F0.00036623826280970923
tp591
Rp592
sg328
Nsg317
(dp593
g589
F1.0
ssbF91.75252740379088
sg2
(g319
g4
Ntp594
Rp595
(dp596
g316
F0.00019104686303360183
sg323
g2
(g324
g325
F0.00033746924449109617
tp597
Rp598
sg328
Nsg317
(dp599
g595
F1.0
ssbF-91.75252740379088
sg2
(g319
g4
Ntp600
Rp601
(dp602
g316
F0.010898882333770826
sg323
g2
(g324
g325
F0.0009721895741922001
tp603
Rp604
sg328
Nsg317
(dp605
g601
F1.0
ssbF-27.183026856531217
ssbag2
(g312
g4
Ntp606
Rp607
(dp608
g316
F0.2822563715549732
sg317
(dp609
g2
(g319
g4
Ntp610
Rp611
(dp612
g316
F0.0009
sg323
g2
(g324
g325
F0.0003400436903291284
tp613
Rp614
sg328
Nsg317
(dp615
g611
F1.0
ssbF333.45634175195477
sg2
(g319
g4
Ntp616
Rp617
(dp618
g316
F5.354324925410253e-05
sg323
g2
(g324
g325
F0.00016759989520444545
tp619
Rp620
sg328
Nsg317
(dp621
g617
F1.0
ssbF-333.45634175195477
sg2
(g319
g4
Ntp622
Rp623
(dp624
g316
F0.0029988933326206197
sg323
g2
(g324
g325
F0.0011369961036784763
tp625
Rp626
sg328
Nsg317
(dp627
g623
F1.0
ssbF-94.12017709490186
ssbag2
(g312
g4
Ntp628
Rp629
(dp630
g316
F0.2584195630276082
sg317
(dp631
g2
(g319
g4
Ntp632
Rp633
(dp634
g316
F0.00346
sg323
g2
(g324
g325
F0.0012341915291485931
tp635
Rp636
sg328
Nsg317
(dp637
g633
F1.0
ssbF89.25167364586946
sg2
(g319
g4
Ntp638
Rp639
(dp640
g316
F0.0005645970067411972
sg323
g2
(g324
g325
F0.0006803454994605338
tp641
Rp642
sg328
Nsg317
(dp643
g639
F1.0
ssbF-89.25167364586946
sg2
(g319
g4
Ntp644
Rp645
(dp646
g316
F0.011204271686464668
sg323
g2
(g324
g325
F0.0036999005794380395
tp647
Rp648
sg328
Nsg317
(dp649
g645
F1.0
ssbF-23.06437850304828
ssbag2
(g312
g4
Ntp650
Rp651
(dp652
g316
F0.27294682080799054
sg317
(dp653
g2
(g319
g4
Ntp654
Rp655
(dp656
g316
F0.00114
sg323
g2
(g324
g325
F0.0003984948392348926
tp657
Rp658
sg328
Nsg317
(dp659
g655
F1.0
ssbF264.3406702522516
sg2
(g319
g4
Ntp660
Rp661
(dp662
g316
F0.00010744295704657783
sg323
g2
(g324
g325
F0.00018460844074148555
tp663
Rp664
sg328
Nsg317
(dp665
g661
F1.0
ssbF-264.3406702522516
sg2
(g319
g4
Ntp666
Rp667
(dp668
g316
F0.003782997141702535
sg323
g2
(g324
g325
F0.0013255771537161209
tp669
Rp670
sg328
Nsg317
(dp671
g667
F1.0
ssbF-72.15094555560543
ssbag2
(g312
g4
Ntp672
Rp673
(dp674
g316
F0.28795846222663757
sg317
(dp675
g2
(g319
g4
Ntp676
Rp677
(dp678
g316
F0.00278
sg323
g2
(g324
g325
F0.0007573132563278922
tp679
Rp680
sg328
Nsg317
(dp681
g677
F1.0
ssbF112.50908901322236
sg2
(g319
g4
Ntp682
Rp683
(dp684
g316
F0.00022057600366139348
sg323
g2
(g324
g325
F0.00025969088512391706
tp685
Rp686
sg328
Nsg317
(dp687
g683
F1.0
ssbF-112.50908901322236
sg2
(g319
g4
Ntp688
Rp689
(dp690
g316
F0.008888170802649352
sg323
g2
(g324
g325
F0.002236013460915445
tp691
Rp692
sg328
Nsg317
(dp693
g689
F1.0
ssbF-32.397944258767396
ssbag2
(g312
g4
Ntp694
Rp695
(dp696
g316
F0.3022282663438233
sg317
(dp697
g2
(g319
g4
Ntp698
Rp699
(dp700
g316
F0.00116
sg323
g2
(g324
g325
F0.000778395585408279
tp701
Rp702
sg328
Nsg317
(dp703
g699
F1.0
ssbF259.7146794107813
sg2
(g319
g4
Ntp704
Rp705
(dp706
g316
F-3.693430920012839e-06
sg323
g2
(g324
g325
F0.00011682759149474716
tp707
Rp708
sg328
Nsg317
(dp709
g705
F1.0
ssbF-259.7146794107813
sg2
(g319
g4
Ntp710
Rp711
(dp712
g316
F0.003850379201779104
sg323
g2
(g324
g325
F0.0025707690638763995
tp713
Rp714
sg328
Nsg317
(dp715
g711
F1.0
ssbF-78.49311730236231
ssbag2
(g312
g4
Ntp716
Rp717
(dp718
g316
F0.25443546069930534
sg317
(dp719
g2
(g319
g4
Ntp720
Rp721
(dp722
g316
F0.00394
sg323
g2
(g324
g325
F0.0003786566281639558
tp723
Rp724
sg328
Nsg317
(dp725
g721
F1.0
ssbF75.82524155683579
sg2
(g319
g4
Ntp726
Rp727
(dp728
g316
F0.0005844490584498835
sg323
g2
(g324
g325
F0.00017982012184755144
tp729
Rp730
sg328
Nsg317
(dp731
g727
F1.0
ssbF-75.82524155683579
sg2
(g319
g4
Ntp732
Rp733
(dp734
g316
F0.013188220432511739
sg323
g2
(g324
g325
F0.0010613741160807903
tp735
Rp736
sg328
Nsg317
(dp737
g733
F1.0
ssbF-19.29263026814963
ssbag2
(g312
g4
Ntp738
Rp739
(dp740
g316
F0.27400150432852244
sg317
(dp741
g2
(g319
g4
Ntp742
Rp743
(dp744
g316
F0.001
sg323
g2
(g324
g325
F0.0001241663998203764
tp745
Rp746
sg328
Nsg317
(dp747
g743
F1.0
ssbF301.85407603903974
sg2
(g319
g4
Ntp748
Rp749
(dp750
g316
F9.227164355705122e-05
sg323
g2
(g324
g325
F8.32723787456343e-05
tp751
Rp752
sg328
Nsg317
(dp753
g749
F1.0
ssbF-301.85407603903974
sg2
(g319
g4
Ntp754
Rp755
(dp756
g316
F0.003312859024870901
sg323
g2
(g324
g325
F0.00041265047923591677
tp757
Rp758
sg328
Nsg317
(dp759
g755
F1.0
ssbF-82.70847092239309
ssbag2
(g312
g4
Ntp760
Rp761
(dp762
g316
F0.24249744014183958
sg317
(dp763
g2
(g319
g4
Ntp764
Rp765
(dp766
g316
F0.0033
sg323
g2
(g324
g325
F0.0003620041521543813
tp767
Rp768
sg328
Nsg317
(dp769
g765
F1.0
ssbF95.18695302208266
sg2
(g319
g4
Ntp770
Rp771
(dp772
g316
F0.000752408839207386
sg323
g2
(g324
g325
F0.0005955374807151996
tp773
Rp774
sg328
Nsg317
(dp775
g771
F1.0
ssbF-95.18695302208266
sg2
(g319
g4
Ntp776
Rp777
(dp778
g316
F0.010505641458740753
sg323
g2
(g324
g325
F0.0014277254394805222
tp779
Rp780
sg328
Nsg317
(dp781
g777
F1.0
ssbF-23.082592442756585
ssbag2
(g312
g4
Ntp782
Rp783
(dp784
g316
F0.2891345522138786
sg317
(dp785
g2
(g319
g4
Ntp786
Rp787
(dp788
g316
F0.00088
sg323
g2
(g324
g325
F0.00035555845893987597
tp789
Rp790
sg328
Nsg317
(dp791
g787
F1.0
ssbF342.527320977504
sg2
(g319
g4
Ntp792
Rp793
(dp794
g316
F3.58788613160935e-05
sg323
g2
(g324
g325
F0.00013782585816508633
tp795
Rp796
sg328
Nsg317
(dp797
g793
F1.0
ssbF-342.527320977504
sg2
(g319
g4
Ntp798
Rp799
(dp800
g316
F0.002919475144774441
sg323
g2
(g324
g325
F0.001187193469995665
tp801
Rp802
sg328
Nsg317
(dp803
g799
F1.0
ssbF-99.03648357185011
ssbag2
(g312
g4
Ntp804
Rp805
(dp806
g316
F0.26366086330051824
sg317
(dp807
g2
(g319
g4
Ntp808
Rp809
(dp810
g316
F0.0038400000000000005
sg323
g2
(g324
g325
F0.0008264297681018365
tp811
Rp812
sg328
Nsg317
(dp813
g809
F1.0
ssbF80.53603582167084
sg2
(g319
g4
Ntp814
Rp815
(dp816
g316
F0.0005661753001558627
sg323
g2
(g324
g325
F0.0001586845223131074
tp817
Rp818
sg328
Nsg317
(dp819
g815
F1.0
ssbF-80.53603582167084
sg2
(g319
g4
Ntp820
Rp821
(dp822
g316
F0.012416801867604682
sg323
g2
(g324
g325
F0.002931215799924178
tp823
Rp824
sg328
Nsg317
(dp825
g821
F1.0
ssbF-21.234200731543194
ssbag2
(g312
g4
Ntp826
Rp827
(dp828
g316
F0.31967057488340334
sg317
(dp829
g2
(g319
g4
Ntp830
Rp831
(dp832
g316
F0.00098
sg323
g2
(g324
g325
F0.0003445477765151348
tp833
Rp834
sg328
Nsg317
(dp835
g831
F1.0
ssbF308.06740423766644
sg2
(g319
g4
Ntp836
Rp837
(dp838
g316
F-5.766438930613184e-05
sg323
g2
(g324
g325
F0.00032460367444555796
tp839
Rp840
sg328
Nsg317
(dp841
g837
F1.0
ssbF-308.06740423766644
sg2
(g319
g4
Ntp842
Rp843
(dp844
g316
F0.0032460428667374515
sg323
g2
(g324
g325
F0.0011337432586001994
tp845
Rp846
sg328
Nsg317
(dp847
g843
F1.0
ssbF-98.48008421549264
ssbag2
(g312
g4
Ntp848
Rp849
(dp850
g316
F0.30588125981180997
sg317
(dp851
g2
(g319
g4
Ntp852
Rp853
(dp854
g316
F0.00402
sg323
g2
(g324
g325
F0.0003555584589398622
tp855
Rp856
sg328
Nsg317
(dp857
g853
F1.0
ssbF80.63824620069585
sg2
(g319
g4
Ntp858
Rp859
(dp860
g316
F0.00022674711785621076
sg323
g2
(g324
g325
F0.00021570716162674697
tp861
Rp862
sg328
Nsg317
(dp863
g859
F1.0
ssbF-80.63824620069585
sg2
(g319
g4
Ntp864
Rp865
(dp866
g316
F0.012401063355360658
sg323
g2
(g324
g325
F0.001490512850939543
tp867
Rp868
sg328
Nsg317
(dp869
g865
F1.0
ssbF-24.665728336883745
ssbag2
(g312
g4
Ntp870
Rp871
(dp872
g316
F0.3547218800007463
sg317
(dp873
g2
(g319
g4
Ntp874
Rp875
(dp876
g316
F0.00106
sg323
g2
(g324
g325
F0.00042652559027961346
tp877
Rp878
sg328
Nsg317
(dp879
g875
F1.0
ssbF284.8244741522553
sg2
(g319
g4
Ntp880
Rp881
(dp882
g316
F-0.00018540519580184233
sg323
g2
(g324
g325
F0.00029950189033658915
tp883
Rp884
sg328
Nsg317
(dp885
g881
F1.0
ssbF-284.8244741522553
sg2
(g319
g4
Ntp886
Rp887
(dp888
g316
F0.003510934244595293
sg323
g2
(g324
g325
F0.0014075575888633203
tp889
Rp890
sg328
Nsg317
(dp891
g887
F1.0
ssbF-101.03347294151196
ssbag2
(g312
g4
Ntp892
Rp893
(dp894
g316
F0.28932345596605785
sg317
(dp895
g2
(g319
g4
Ntp896
Rp897
(dp898
g316
F0.00344
sg323
g2
(g324
g325
F0.0012216358462870333
tp899
Rp900
sg328
Nsg317
(dp901
g897
F1.0
ssbF92.37910610096961
sg2
(g319
g4
Ntp902
Rp903
(dp904
g316
F0.00030808556417692934
sg323
g2
(g324
g325
F0.0002474569076104187
tp905
Rp906
sg328
Nsg317
(dp907
g903
F1.0
ssbF-92.37910610096961
sg2
(g319
g4
Ntp908
Rp909
(dp910
g316
F0.010824958610305323
sg323
g2
(g324
g325
F0.0044715450731784194
tp911
Rp912
sg328
Nsg317
(dp913
g909
F1.0
ssbF-26.727442236187667
ssbag2
(g312
g4
Ntp914
Rp915
(dp916
g316
F0.2706170627372627
sg317
(dp917
g2
(g319
g4
Ntp918
Rp919
(dp920
g316
F0.0008399999999999999
sg323
g2
(g324
g325
F0.00027203495226330325
tp921
Rp922
sg328
Nsg317
(dp923
g919
F1.0
ssbF358.53664135971354
sg2
(g319
g4
Ntp924
Rp925
(dp926
g316
F8.521783405184142e-05
sg323
g2
(g324
g325
F0.00016982926648624844
tp927
Rp928
sg328
Nsg317
(dp929
g925
F1.0
ssbF-358.53664135971354
sg2
(g319
g4
Ntp930
Rp931
(dp932
g316
F0.0027891152106730354
sg323
g2
(g324
g325
F0.0009110692658342162
tp933
Rp934
sg328
Nsg317
(dp935
g931
F1.0
ssbF-97.02613276844906
ssbag2
(g312
g4
Ntp936
Rp937
(dp938
g316
F0.25940677779937843
sg317
(dp939
g2
(g319
g4
Ntp940
Rp941
(dp942
g316
F0.0032199999999999998
sg323
g2
(g324
g325
F0.0008393869038691047
tp943
Rp944
sg328
Nsg317
(dp945
g941
F1.0
ssbF95.66445104323617
sg2
(g319
g4
Ntp946
Rp947
(dp948
g316
F0.0005083680931578452
sg323
g2
(g324
g325
F0.00027215117149533176
tp949
Rp950
sg328
Nsg317
(dp951
g947
F1.0
ssbF-95.66445104323617
sg2
(g319
g4
Ntp952
Rp953
(dp954
g316
F0.01045320376686261
sg323
g2
(g324
g325
F0.0025838600402417894
tp955
Rp956
sg328
Nsg317
(dp957
g953
F1.0
ssbF-24.816006995072282
ssbag2
(g312
g4
Ntp958
Rp959
(dp960
g316
F0.3660972316464539
sg317
(dp961
g2
(g319
g4
Ntp962
Rp963
(dp964
g316
F0.0008399999999999999
sg323
g2
(g324
g325
F0.0002858525190987032
tp965
Rp966
sg328
Nsg317
(dp967
g963
F1.0
ssbF358.501164209041
sg2
(g319
g4
Ntp968
Rp969
(dp970
g316
F-0.00018118840382059034
sg323
g2
(g324
g325
F0.00018610983212497963
tp971
Rp972
sg328
Nsg317
(dp973
g969
F1.0
ssbF-358.501164209041
sg2
(g319
g4
Ntp974
Rp975
(dp976
g316
F0.0027893912205453897
sg323
g2
(g324
g325
F0.0009394569793295482
tp977
Rp978
sg328
Nsg317
(dp979
g975
F1.0
ssbF-131.2462837589607
ssbag2
(g312
g4
Ntp980
Rp981
(dp982
g316
F0.26641395637591375
sg317
(dp983
g2
(g319
g4
Ntp984
Rp985
(dp986
g316
F0.00356
sg323
g2
(g324
g325
F0.00036833706659840636
tp987
Rp988
sg328
Nsg317
(dp989
g985
F1.0
ssbF89.88364671775585
sg2
(g319
g4
Ntp990
Rp991
(dp992
g316
F0.000596013044592174
sg323
g2
(g324
g325
F0.0005832151526723283
tp993
Rp994
sg328
Nsg317
(dp995
g991
F1.0
ssbF-89.88364671775585
sg2
(g319
g4
Ntp996
Rp997
(dp998
g316
F0.011125494308660014
sg323
g2
(g324
g325
F0.0006391650464774273
tp999
Rp1000
sg328
Nsg317
(dp1001
g997
F1.0
ssbF-23.946257935572252
ssbag2
(g312
g4
Ntp1002
Rp1003
(dp1004
g316
F0.29209809407728904
sg317
(dp1005
g2
(g319
g4
Ntp1006
Rp1007
(dp1008
g316
F0.0010000000000000002
sg323
g2
(g324
g325
F0.00015207216137916148
tp1009
Rp1010
sg328
Nsg317
(dp1011
g1007
F1.0
ssbF301.82761890471346
sg2
(g319
g4
Ntp1012
Rp1013
(dp1014
g316
F3.2235369522283824e-05
sg323
g2
(g324
g325
F7.383377861128346e-05
tp1015
Rp1016
sg328
Nsg317
(dp1017
g1013
F1.0
ssbF-301.82761890471346
sg2
(g319
g4
Ntp1018
Rp1019
(dp1020
g316
F0.0033131494182966023
sg323
g2
(g324
g325
F0.0005052344310675177
tp1021
Rp1022
sg328
Nsg317
(dp1023
g1019
F1.0
ssbF-88.16327222195315
ssbag2
(g312
g4
Ntp1024
Rp1025
(dp1026
g316
F0.2532475878019647
sg317
(dp1027
g2
(g319
g4
Ntp1028
Rp1029
(dp1030
g316
F0.00346
sg323
g2
(g324
g325
F0.0008979557452122554
tp1031
Rp1032
sg328
Nsg317
(dp1033
g1029
F1.0
ssbF89.77401921615757
sg2
(g319
g4
Ntp1034
Rp1035
(dp1036
g316
F0.0006390548088061419
sg323
g2
(g324
g325
F0.00014833476874061022
tp1037
Rp1038
sg328
Nsg317
(dp1039
g1035
F1.0
ssbF-89.77401921615757
sg2
(g319
g4
Ntp1040
Rp1041
(dp1042
g316
F0.011139080200834092
sg323
g2
(g324
g325
F0.0029912009747195675
tp1043
Rp1044
sg328
Nsg317
(dp1045
g1041
F1.0
ssbF-22.73505381377913
ssbag2
(g312
g4
Ntp1046
Rp1047
(dp1048
g316
F0.3101838546868402
sg317
(dp1049
g2
(g319
g4
Ntp1050
Rp1051
(dp1052
g316
F0.0009599999999999999
sg323
g2
(g324
g325
F0.0005454849131699476
tp1053
Rp1054
sg328
Nsg317
(dp1055
g1051
F1.0
ssbF312.8303008506366
sg2
(g319
g4
Ntp1056
Rp1057
(dp1058
g316
F-3.1540313848753755e-05
sg323
g2
(g324
g325
F0.00012589705404616574
tp1059
Rp1060
sg328
Nsg317
(dp1061
g1057
F1.0
ssbF-312.8303008506366
sg2
(g319
g4
Ntp1062
Rp1063
(dp1064
g316
F0.0031966212904595143
sg323
g2
(g324
g325
F0.0018115578863102477
tp1065
Rp1066
sg328
Nsg317
(dp1067
g1063
F1.0
ssbF-97.03490858069436
ssbag2
(g312
g4
Ntp1068
Rp1069
(dp1070
g316
F0.2575183987939078
sg317
(dp1071
g2
(g319
g4
Ntp1072
Rp1073
(dp1074
g316
F0.00368
sg323
g2
(g324
g325
F0.0007154398568940228
tp1075
Rp1076
sg328
Nsg317
(dp1077
g1073
F1.0
ssbF84.40457646871732
sg2
(g319
g4
Ntp1078
Rp1079
(dp1080
g316
F0.0006289995736267778
sg323
g2
(g324
g325
F0.0005029646639711324
tp1081
Rp1082
sg328
Nsg317
(dp1083
g1079
F1.0
ssbF-84.40457646871732
sg2
(g319
g4
Ntp1084
Rp1085
(dp1086
g316
F0.011847698807784761
sg323
g2
(g324
g325
F0.0027843110889686842
tp1087
Rp1088
sg328
Nsg317
(dp1089
g1085
F1.0
ssbF-21.735731383102035
ssbag2
(g312
g4
Ntp1090
Rp1091
(dp1092
g316
F0.2919933476068033
sg317
(dp1093
g2
(g319
g4
Ntp1094
Rp1095
(dp1096
g316
F0.0010999999999999998
sg323
g2
(g324
g325
F0.0006857313561102382
tp1097
Rp1098
sg328
Nsg317
(dp1099
g1095
F1.0
ssbF273.4627290509476
sg2
(g319
g4
Ntp1100
Rp1101
(dp1102
g316
F3.2237132935203674e-05
sg323
g2
(g324
g325
F0.000236914459088198
tp1103
Rp1104
sg328
Nsg317
(dp1105
g1101
F1.0
ssbF-273.4627290509476
sg2
(g319
g4
Ntp1106
Rp1107
(dp1108
g316
F0.0036568054574402154
sg323
g2
(g324
g325
F0.0022787374006149903
tp1109
Rp1110
sg328
Nsg317
(dp1111
g1107
F1.0
ssbF-79.84929770127839
ssbag2
(g312
g4
Ntp1112
Rp1113
(dp1114
g316
F0.2627654748164031
sg317
(dp1115
g2
(g319
g4
Ntp1116
Rp1117
(dp1118
g316
F0.00402
sg323
g2
(g324
g325
F0.0003662382628097047
tp1119
Rp1120
sg328
Nsg317
(dp1121
g1117
F1.0
ssbF75.4808725190341
sg2
(g319
g4
Ntp1122
Rp1123
(dp1124
g316
F0.0005387806387619424
sg323
g2
(g324
g325
F0.0005250239297524694
tp1125
Rp1126
sg328
Nsg317
(dp1127
g1123
F1.0
ssbF-75.4808725190341
sg2
(g319
g4
Ntp1128
Rp1129
(dp1130
g316
F0.01324838951414915
sg323
g2
(g324
g325
F0.0016174085646325682
tp1131
Rp1132
sg328
Nsg317
(dp1133
g1129
F1.0
ssbF-19.833767307020388
ssbag2
(g312
g4
Ntp1134
Rp1135
(dp1136
g316
F0.34143348561480613
sg317
(dp1137
g2
(g319
g4
Ntp1138
Rp1139
(dp1140
g316
F0.00086
sg323
g2
(g324
g325
F0.00022555946662990435
tp1141
Rp1142
sg328
Nsg317
(dp1143
g1139
F1.0
ssbF351.4718717229214
sg2
(g319
g4
Ntp1144
Rp1145
(dp1146
g316
F-0.00011143900574772347
sg323
g2
(g324
g325
F0.00013648439747777105
tp1147
Rp1148
sg328
Nsg317
(dp1149
g1145
F1.0
ssbF-351.4718717229214
sg2
(g319
g4
Ntp1150
Rp1151
(dp1152
g316
F0.002845177894600732
sg323
g2
(g324
g325
F0.0007272078264463728
tp1153
Rp1154
sg328
Nsg317
(dp1155
g1151
F1.0
ssbF-120.00426625791707
ssbag2
(g312
g4
Ntp1156
Rp1157
(dp1158
g316
F0.2675681651956995
sg317
(dp1159
g2
(g319
g4
Ntp1160
Rp1161
(dp1162
g316
F0.0040999999999999995
sg323
g2
(g324
g325
F0.00040234512034535166
tp1163
Rp1164
sg328
Nsg317
(dp1165
g1161
F1.0
ssbF74.80355020407971
sg2
(g319
g4
Ntp1166
Rp1167
(dp1168
g316
F0.0005230552632098658
sg323
g2
(g324
g325
F0.00045091801135074805
tp1169
Rp1170
sg328
Nsg317
(dp1171
g1167
F1.0
ssbF-74.80355020407971
sg2
(g319
g4
Ntp1172
Rp1173
(dp1174
g316
F0.013368349460310253
sg323
g2
(g324
g325
F0.00152466196575189
tp1175
Rp1176
sg328
Nsg317
(dp1177
g1173
F1.0
ssbF-20.01504867823
ssbag2
(g312
g4
Ntp1178
Rp1179
(dp1180
g316
F0.27655985339652767
sg317
(dp1181
g2
(g319
g4
Ntp1182
Rp1183
(dp1184
g316
F0.00078
sg323
g2
(g324
g325
F0.000415540253473428
tp1185
Rp1186
sg328
Nsg317
(dp1187
g1183
F1.0
ssbF385.536467447574
sg2
(g319
g4
Ntp1188
Rp1189
(dp1190
g316
F6.266227257961065e-05
sg323
g2
(g324
g325
F0.0001670639244293119
tp1191
Rp1192
sg328
Nsg317
(dp1193
g1189
F1.0
ssbF-385.536467447574
sg2
(g319
g4
Ntp1194
Rp1195
(dp1196
g316
F0.0025937883557953746
sg323
g2
(g324
g325
F0.001394219598603346
tp1197
Rp1198
sg328
Nsg317
(dp1199
g1195
F1.0
ssbF-106.62390891631624
ssbag2
(g312
g4
Ntp1200
Rp1201
(dp1202
g316
F0.29201299726598584
sg317
(dp1203
g2
(g319
g4
Ntp1204
Rp1205
(dp1206
g316
F0.0036999999999999997
sg323
g2
(g324
g325
F0.0006511340938852206
tp1207
Rp1208
sg328
Nsg317
(dp1209
g1205
F1.0
ssbF88.24188154341347
sg2
(g319
g4
Ntp1210
Rp1211
(dp1212
g316
F0.0003907664233981622
sg323
g2
(g324
g325
F0.00034729854651954176
tp1213
Rp1214
sg328
Nsg317
(dp1215
g1211
F1.0
ssbF-88.24188154341347
sg2
(g319
g4
Ntp1216
Rp1217
(dp1218
g316
F0.011332487278254798
sg323
g2
(g324
g325
F0.0023384815835840946
tp1219
Rp1220
sg328
Nsg317
(dp1221
g1217
F1.0
ssbF-25.76777631388224
ssbag2
(g312
g4
Ntp1222
Rp1223
(dp1224
g316
F0.304467131333406
sg317
(dp1225
g2
(g319
g4
Ntp1226
Rp1227
(dp1228
g316
F0.00074
sg323
g2
(g324
g325
F0.0005013002154028702
tp1229
Rp1230
sg328
Nsg317
(dp1231
g1227
F1.0
ssbF407.05382079453943
sg2
(g319
g4
Ntp1232
Rp1233
(dp1234
g316
F-7.977578834927413e-06
sg323
g2
(g324
g325
F0.00011785850184900793
tp1235
Rp1236
sg328
Nsg317
(dp1237
g1233
F1.0
ssbF-407.05382079453943
sg2
(g319
g4
Ntp1238
Rp1239
(dp1240
g316
F0.0024566775913024788
sg323
g2
(g324
g325
F0.0016630439086979356
tp1241
Rp1242
sg328
Nsg317
(dp1243
g1239
F1.0
ssbF-123.93450911561577
ssbag2
(g312
g4
Ntp1244
Rp1245
(dp1246
g316
F0.2777752220602519
sg317
(dp1247
g2
(g319
g4
Ntp1248
Rp1249
(dp1250
g316
F0.00388
sg323
g2
(g324
g325
F0.0010731597853410328
tp1251
Rp1252
sg328
Nsg317
(dp1253
g1249
F1.0
ssbF80.18164962234665
sg2
(g319
g4
Ntp1254
Rp1255
(dp1256
g316
F0.0004156758888278622
sg323
g2
(g324
g325
F0.0004933483729169764
tp1257
Rp1258
sg328
Nsg317
(dp1259
g1255
F1.0
ssbF-80.18164962234665
sg2
(g319
g4
Ntp1260
Rp1261
(dp1262
g316
F0.012471681546962082
sg323
g2
(g324
g325
F0.003466446208596452
tp1263
Rp1264
sg328
Nsg317
(dp1265
g1261
F1.0
ssbF-22.272475529004655
ssbag2
(g312
g4
Ntp1266
Rp1267
(dp1268
g316
F0.2735090042519736
sg317
(dp1269
g2
(g319
g4
Ntp1270
Rp1271
(dp1272
g316
F0.0009400000000000001
sg323
g2
(g324
g325
F0.00020777012673671338
tp1273
Rp1274
sg328
Nsg317
(dp1275
g1271
F1.0
ssbF321.54157816710887
sg2
(g319
g4
Ntp1276
Rp1277
(dp1278
g316
F8.938215514440308e-05
sg323
g2
(g324
g325
F0.00030198190531909253
tp1279
Rp1280
sg328
Nsg317
(dp1281
g1277
F1.0
ssbF-321.54157816710887
sg2
(g319
g4
Ntp1282
Rp1283
(dp1284
g316
F0.0031100177019106638
sg323
g2
(g324
g325
F0.0007183861224898395
tp1285
Rp1286
sg328
Nsg317
(dp1287
g1283
F1.0
ssbF-87.94451687009408
ssbag2
(g312
g4
Ntp1288
Rp1289
(dp1290
g316
F0.2650463012738735
sg317
(dp1291
g2
(g319
g4
Ntp1292
Rp1293
(dp1294
g316
F0.0036199999999999995
sg323
g2
(g324
g325
F0.000522385029212231
tp1295
Rp1296
sg328
Nsg317
(dp1297
g1293
F1.0
ssbF86.06424740079387
sg2
(g319
g4
Ntp1298
Rp1299
(dp1300
g316
F0.0005403669435511877
sg323
g2
(g324
g325
F0.00044495421419921133
tp1301
Rp1302
sg328
Nsg317
(dp1303
g1299
F1.0
ssbF-86.06424740079387
sg2
(g319
g4
Ntp1304
Rp1305
(dp1306
g316
F0.01161922668472409
sg323
g2
(g324
g325
F0.0023364318381533314
tp1307
Rp1308
sg328
Nsg317
(dp1309
g1305
F1.0
ssbF-22.8110104455
ssbag2
(g312
g4
Ntp1310
Rp1311
(dp1312
g316
F0.3218329929957109
sg317
(dp1313
g2
(g319
g4
Ntp1314
Rp1315
(dp1316
g316
F0.00106
sg323
g2
(g324
g325
F0.0006487620127988801
tp1317
Rp1318
sg328
Nsg317
(dp1319
g1315
F1.0
ssbF284.84359415378435
sg2
(g319
g4
Ntp1320
Rp1321
(dp1322
g316
F-6.985862979230746e-05
sg323
g2
(g324
g325
F0.00024951429915238824
tp1323
Rp1324
sg328
Nsg317
(dp1325
g1321
F1.0
ssbF-284.84359415378435
sg2
(g319
g4
Ntp1326
Rp1327
(dp1328
g316
F0.003510698574671507
sg323
g2
(g324
g325
F0.002154165278520298
tp1329
Rp1330
sg328
Nsg317
(dp1331
g1327
F1.0
ssbF-91.672066442168
ssbag2
(g312
g4
Ntp1332
Rp1333
(dp1334
g316
F0.2874441997124633
sg317
(dp1335
g2
(g319
g4
Ntp1336
Rp1337
(dp1338
g316
F0.0033
sg323
g2
(g324
g325
F0.0010824575780005773
tp1339
Rp1340
sg328
Nsg317
(dp1341
g1337
F1.0
ssbF97.35738538724564
sg2
(g319
g4
Ntp1342
Rp1343
(dp1344
g316
F0.0003475357512002361
sg323
g2
(g324
g325
F0.00033268841753950583
tp1345
Rp1346
sg328
Nsg317
(dp1347
g1343
F1.0
ssbF-97.35738538724564
sg2
(g319
g4
Ntp1348
Rp1349
(dp1350
g316
F0.010271434427110298
sg323
g2
(g324
g325
F0.0037785934532914645
tp1351
Rp1352
sg328
Nsg317
(dp1353
g1349
F1.0
ssbF-27.9848157287347
ssbag2
(g312
g4
Ntp1354
Rp1355
(dp1356
g316
F0.3083466073601482
sg317
(dp1357
g2
(g319
g4
Ntp1358
Rp1359
(dp1360
g316
F0.0008399999999999999
sg323
g2
(g324
g325
F0.00035771992844701165
tp1361
Rp1362
sg328
Nsg317
(dp1363
g1359
F1.0
ssbF358.28357801326206
sg2
(g319
g4
Ntp1364
Rp1365
(dp1366
g316
F-2.0621659161656083e-05
sg323
g2
(g324
g325
F0.00015340512494990162
tp1367
Rp1368
sg328
Nsg317
(dp1369
g1365
F1.0
ssbF-358.28357801326206
sg2
(g319
g4
Ntp1370
Rp1371
(dp1372
g316
F0.002791085222340234
sg323
g2
(g324
g325
F0.0011931666505967777
tp1373
Rp1374
sg328
Nsg317
(dp1375
g1371
F1.0
ssbF-110.47552575324433
ssbatp1376
bsS'# groups'
p1377
I2
sS'xs type'
p1378
S'transport'
p1379
s.