(dp0
S'domain'
p1
ccopy_reg
_reconstructor
p2
(copenmc.universe
Cell
p3
c__builtin__
object
p4
Ntp5
Rp6
(dp7
S'_type'
p8
S'normal'
p9
sS'_rotation'
p10
NsS'_fill'
p11
g2
(copenmc.material
Material
p12
g4
Ntp13
Rp14
(dp15
S'_density_units'
p16
S'g/cm3'
p17
sS'_density'
p18
F0.07425478275227912
sS'_sab'
p19
NsS'_name'
p20
S''
p21
sS'_nuclides'
p22
(dp23
sS'_elements'
p24
(dp25
sS'_id'
p26
I10003
sbsg20
g21
sS'_translation'
p27
NsS'_offset'
p28
Nsg26
I10014
sS'_surfaces'
p29
(dp30
I10004
(g2
(copenmc.surface
ZCylinder
p31
g4
Ntp32
Rp33
(dp34
g8
S'z-cylinder'
p35
sS'_R'
p36
NsS'_coeffs'
p37
(dp38
S'y0'
p39
F0.0
sS'x0'
p40
F0.0
sS'R'
p41
F0.60198
ssg20
g21
sS'_bc_type'
p42
S'transmission'
p43
sg26
I10004
sS'_x0'
p44
NsS'_coeff_keys'
p45
(lp46
g40
ag39
ag41
asS'_y0'
p47
Nsbcnumpy.core.multiarray
scalar
p48
(cnumpy
dtype
p49
(S'i8'
p50
I0
I1
tp51
Rp52
(I3
S'<'
p53
NNNI-1
I-1
I0
tp54
bS'\x01\x00\x00\x00\x00\x00\x00\x00'
p55
tp56
Rp57
tp58
ssbsS'group bounds'
p59
cnumpy.core.multiarray
_reconstruct
p60
(cnumpy
ndarray
p61
(I0
tp62
S'b'
p63
tp64
Rp65
(I1
(I3
tp66
g49
(S'f8'
p67
I0
I1
tp68
Rp69
(I3
S'<'
p70
NNNI-1
I-1
I0
tp71
bI00
S'\x00\x00\x00\x00\x00\x00\x00\x00\xf1h\xe3\x88\xb5\xf8\xa4>\x00\x00\x00\x00\x00\x00$@'
p72
tp73
bsS'tallies'
p74
(dp75
S'flux'
p76
g2
(copenmc.tallies
Tally
p77
g4
Ntp78
Rp79
(dp80
S'_num_tot_score_bins'
p81
I1
sS'_label'
p82
S'2 groups'
p83
sS'_filters'
p84
(lp85
g2
(copenmc.tallies
Filter
p86
g4
Ntp87
Rp88
(dp89
S'_mesh'
p90
Nsg8
S'distribcell'
p91
sg28
I7
sS'_stride'
p92
I1
sS'_bin_edges'
p93
(lp94
I10014
asbag2
(g86
g4
Ntp95
Rp96
(dp97
g90
Nsg8
S'energy'
p98
sg28
I0
sg92
I24
sg93
(lp99
F0.0
aF6.25e-07
aF10.0
asbasS'_sum_sq'
p100
g60
(g61
(I0
tp101
g63
tp102
Rp103
(I1
(I48
I1
tp104
g69
I00
S"\\\x80\xb5'\xc7vA?\xea4\x1a0\xe9`z?\xba\xb1\xc2f\xc6\x85@?d\x177\r~\xd4z?x\xa9g\xdeYq9?J\x87\x9d\xcf*Ix?\xf3\xd4\x07d\xf1\x8b@?\xb2jt\xc0W!z?\xc7\x0e\xa5w}\xd6<?\xda\xc2\xa1k\x92\xfdx?\xe0r\x1d\xf1@\xe3A?9\xd5N\xee\x1ecw?\x9e\x11\xcaT\xcc\x8eA?\xa3\xfe\x08\xb7?{x?\xea\xe7\xc7\xd8\x95\xf8??\xdb\xff\x9buI&x?\xa3&\xa2\xf36s@?\xc0WB\x1aV^u?\xbe\xcc|A\x90:=?}?Qt\xf8\xe3w?\xf9oKGr\x9f@?\xb4\x0eTU\xc0(y?\x94\xe8\xc0\xd6UnA?\xf5\x80Tw\xda\xe9w?\xbc\x9b@\xad8\xa3A?\xfc\xfb\x11-\xd3Lx?Y\x14\rea\xfb;?A~\xc0\xe4\xdd\x00w?\xf0\x99\xcdoZp<?#\xfd\x9c\xf6x\xb2x?\xdd\xed\xd3\x1ck\xaa@?J\x04^2\xec\xaax?e`\xec\x0e\xb4\xde??P\xfa\x9f\xcc\x00px?W)\xaaAc&??zk\xe8-X\xc3x?P=4\xde\xebb;?\x04\xd4h\x15\xcf%y?\x04|6\x15?\xdd<?6Q\xcd\x0eb\xeax?\xee\xcd\xf9\x83\x93LB?p\xcd\xad\xe0v\xadx?\xa2\r6\xec\xb9\x15@?rF\xc6>W(z?\xa5\xd29\xc3\x14\x80;?\xafH\x04a\xf9+y?IQ\x9f\xabv\xad??\xc1\x15ZHc7x?"
p105
tp106
bsS'_std_dev'
p107
g60
(g61
(I0
tp108
g63
tp109
Rp110
(I1
(I48
I1
tp111
g69
I00
S'cu\xaeO+_`?\x9aiu\x8fM4Y?\x00\x83\xdd\xee7\xfaK?>\xd5\x1a&\xf8\xf6k?\x8e\x11"\xd1\xc9\x06[?\x8e7\x15t\xa3/`?\x1e\rKf\xc9\x13Q?\xa3\xb3<\x9e\t\x81Z?xD?\xe4\xc8eN?\x82S\xea\x10\x08J_?\xb0\xce8?\x10S@?\xe12\x93\xa2r-N?\xbb\xbd\xa7\xe2\xc4\x03`?Mk\\\xa4w\x14O?\x08\xeb\r\xc5&PF?~\xa3Z\xb9\xe5\xed\\?\xc0\xc1\xb5\x03\xc3\xe6A?\xb6\x858\xdc\xc3\x91U?\x95\x88\xbd\xfc\xaf\xe5Q?\xe6\x90\x0bK\x87\x8a`?U\xfc\x0f\x9fAWX?g6\x0b\xcfE\x8cU?;)\x07\xddg\xf3P?\xc3b\xad\x90\xdd\x11d?\xe8t*\x83c:S?\xa0\xca;3\xb0\x1e]?_\xfd\x82\xe8\x8fEI?5\x85\xc3q M`?\x85\x1b\xa7\x0bi\xd8W?8\xbd\xd3B\x0c\rE?t;\xab\x1a\xfc\x1c;?.<\xf8/\xb2\xfeW?\xeav\x15e\xef\xffW?\xb2|\xf0\xb4\t\xebP?\x04l\xe3\x10\xa7\xddQ?g\xa0\x85\x0c\xc43W?\xb2\xe4g\xe9F\rX?\x9e)\xa1<K\x99b?\x19\x9am\x1f>H[?\x85\xf6?\x88\x96\xbac?\xc2\x9e\xea\xa8\x90DF?w\xf9<c\x0e\xceW?\xcaL\x83\xe9f\x8dU?\r)<\xbc\x868a?3\xfe\xba\x87~IS?\xae\xb4r\xa7\x84\x00b?\xc4\x03\x92z-rF?\xaf\x91\xb6c\x1f{U?'
p112
tp113
bsS'_num_tot_filter_bins'
p114
I48
sS'_mean'
p115
g60
(g61
(I0
tp116
g63
tp117
Rp118
(I1
(I48
I1
tp119
g69
I00
S'h?\xd6\xc2\t\xf0\x84?\xed\xf4\xa2\x95\xca]\xa2?\x1e\xbe\x0e|\x1e\x87\x84?.18\xae(}\xa2?6E\xf4\x14\xa5\xe1\x81?\\\xcf\xb7^\xb9\x9d\xa1?X\xd169\x1d\x86\x84?P\xcd@lYG\xa2?\xb4f<e\xef)\x83?\xdaN8\xed\x0b\xdf\xa1?K]\x92\xff\xf5b\x85?:j4]oL\xa1?\x0c\xe3x\x04\xfd\x00\x85?\x12\x8f\xd8\xc3\xd6\xb2\xa1?\xe2\x1b\x12TW4\x84?\x92s~6\xd0\x91\xa1?\n\xe4\x8b\xa9b\x81\x84?D{\xdf\xb1\xfd\x87\xa0?\x95q\x7f\xd3oF\x83?+\xae\x99\xa3\xa2x\xa1?]\x15\x9b\x8e\x10\x83\x84?\th\xc4]X\xf0\xa1?\xc8Kf\xcb\xab\x11\x85?\x0c\x1bv1\xdfx\xa1?\x92)\xb1|\xab-\x85?\x8f\xf1Q\xf1\xc9\x9f\xa1?\xfaA\xba\x93 \xe4\x82?e\xe6Q5\xc6$\xa1?\xe5\xb2\xdb\x9dB\xf5\x82?\x92\xe8\x14\xd0=\xc7\xa1?\xf2\x07\x12Qs\xa5\x84?\x07@%6\xd3\xc2\xa1?\x9dd\xe5\xce\xda\x14\x84?`\x87\xb3>\x9b\xae\xa1?\xe4\x19\x8dk.\xe7\x83?E\xbd\xba\xc7\xc0\xcb\xa1?eu\xdd\xfb\xe1\x98\x82?\xfb\x8f\x15\x1f\xf8\xeb\xa1?\xb5G\xd4\x9eS\x10\x83?#\xb9\xcf\x87\x11\xd6\xa1?=\xb4\x01\xfc\xe2\x9e\x85?\xfb\xff\x8b$\xc6\xc3\xa1?\xe2\xb2h\xe8\xfc2\x84?D\x13\xea6\x15H\xa2?\n!\xc5\x84d\xae\x82?\xce\x84,\x84|\xee\xa1?\xc2\xa6\xcc\xe6i\x1c\x84?EM#\x1cl\x99\xa1?'
p120
tp121
bsS'_num_realizations'
p122
I5
sg22
(lp123
sS'_sum'
p124
g60
(g61
(I0
tp125
g63
tp126
Rp127
(I1
(I48
I1
tp128
g69
I00
S'B\xcf\x8b3\x0c,\xaa?(\xb2\x0b;=\xf5\xc6?\xa5m\x12\x1b\xe6\xa8\xa9?z=\xc6\xd9r\x1c\xc7?\x84V1Z\x0eZ\xa6?3\xc3e\xb6\'\x05\xc6?\xae\x85\x84\x87\xa4\xa7\xa9?\xa4\x00Q\xc7/\xd9\xc6?a\x80\x8b>k\xf4\xa7?\x91b\x86\xe8\xceV\xc6?\x9e\xf4v\x7f\xb3\xbb\xaa?\xc9\x84\x814\x8b\x9f\xc5?\xcf\x1b\x97E<A\xaa?\xd6\xb2\xcet\x8c\x1f\xc6?\xda\xa2\x16)mA\xa9?v\x10\x1eDD\xf6\xc5?\x0c\xdd\xeeS\xbb\xa1\xa9?\x15ZW\x1e\xfd\xa9\xc4?\xfaM_\xc8\x0b\x18\xa8?\xb6\x19\x80L\xcb\xd6\xc5?\xb4\xdaA\xb2\xd4\xa3\xa9?\x0b\x825unl\xc6?\xba\xde?\xbe\x16V\xaa?\xcf\xa1\xd3\xfd\x16\xd7\xc5?\xf7s\xdd[\x16y\xaa?\xf3m\xa6m\xbc\x07\xc6?x\xd2\xa8\xb8(\x9d\xa7?\xfe_\xa6\xc2\xf7m\xc5?\x9e\x9fRE\x93\xb2\xa7?\xb6"\x1aD\r9\xc6?\xef\x89V%\xd0\xce\xa9?\t\x90\xae\x03\x883\xc6?\xc4\xbd\x9e\x82\x11\x1a\xa9?8i`\x0eB\x1a\xc6?]`p\x06\xfa\xe0\xa8?\x96l\xa9\xf9\xb0>\xc6?\xbe\xd2\xd4z\x1a?\xa7?\xfa\xf3\xda&\xf6f\xc6?\xa2Y\x89\x86h\xd4\xa7?l\xa7\xc3\xe9\x95K\xc6?L!\x02\xbb\x9b\x06\xab?\xfa\xff\xae\xad\xb74\xc6?\x9b\xdf\x82"\xbc?\xa9?\x15\x98\xa4\x84\x1a\xda\xc6?Li\xf6\xa5\xfdY\xa7?\x02\xa67\xa5\x1bj\xc6?r\xd0\x7f`\x84#\xa9?\x96 ,#\xc7\xff\xc5?'
p129
tp130
bsS'_estimator'
p131
S'tracklength'
p132
sS'_scores'
p133
(lp134
g76
asg26
I10038
sbsS'absorption'
p135
g2
(g77
g4
Ntp136
Rp137
(dp138
g81
I1
sg82
S'2 groups'
p139
sg84
(lp140
g2
(g86
g4
Ntp141
Rp142
(dp143
g90
Nsg8
g91
sg28
I7
sg92
I1
sg93
(lp144
I10014
asbag2
(g86
g4
Ntp145
Rp146
(dp147
g90
Nsg8
g98
sg28
I0
sg92
I24
sg93
(lp148
F0.0
aF6.25e-07
aF10.0
asbasg100
g60
(g61
(I0
tp149
g63
tp150
Rp151
(I1
(I48
I1
tp152
g69
I00
S'\xcd!\xf5tO\xf3\xa5>\xf2a:|\x1eT)>\xb9r\xb8M-#\xa5>9\xe8`^|=,>\x19\xd5(f\xb0\xc0\x9e>\x9d\x87\xee2\x80\x81+>\xe0\xc6\xf7\xc9\xa8\x85\xa5>\xfa8\xb4;\xe9\xd7\'>\xce\'\x0cJ\x0c\xde\xa2>U7\xe1?R\x14,>\xcb\xe8\xc9\xe8\xb2v\xa5>|j\x8bQ\xd9\xea)>\xc3\x8d\x8f|\x9d9\xa6>\xfa\xb3\xa5:\xcb\xe5\'>X\x0f\x1f\x93V>\xa4>\xd4\xe2I\xe5v#(>8\'\xd2v\xb4\xbd\xa5>\x1c\xdc\x19\xfc\xefS(>\xc0tHM\xe7-\xa2>\xd7\xdb\x12\xb3H\xe4)>\x9e\x9c\x8d\xce\xdd$\xa5>\x9f\xa0\xd3\xfa\xf4\xcb->\x960\xfd\x08\x9bz\xa6>\xb4\xbc\xbb\x8f\xef\x1a,>\x1dJG\x1e\xefd\xa6>\n\x13\x91r\x9cg)>$L\x85\xf4\xb1\xd8\xa1>\xd8p\x86\x96s\xcd(>\x1c\xd0\xbb\xf9\xf07\xa2>\xaf\xa4D\xd3\xafy,>\xa8\xa5_\xc4\xbc\x02\xa5>\xfe\x9ck\xc5\x81\xe8->\xf6}\xcdw\xb3\xc2\xa3>\r"\xff\xce\x0eo.>\x82\xc8\\\xf9\x05\x13\xa4>\x05\x01\xec\x9by\xd9(>\xdey?\xaa+\x84\xa1>\x88\xe8Ca\x81-)>\x97\x94\xa80\x1a\x1a\xa2>j\x11,\xcd\xfa\x96(>\x86S\x90Y\x81d\xa8>"\x1f\xb2\xc3a"*>\xa7\xc2\x05 \x85>\xa3>3\xd0v\x96I#->\xaav\xa6\xf6F\xa0\xa0>\r4\x99\n\x94\xbf\'>\x00\xcb\xac\x0b6c\xa3>2\xe0\x03\xba-\xa3)>'
p153
tp154
bsg107
g60
(g61
(I0
tp155
g63
tp156
Rp157
(I1
(I48
I1
tp158
g69
I00
S'\x91\x08\xf9\xe2\x92!\x11?\x06\x80-\x92\x9d4\xc3>\xd6\xb5;Oe\xde\x03?o\xcc \x8e\x91<\xbf>\xa6b\xe7\x8e\x98\xb8\x0c?G\xd7V\xf1\x8c\x07\xcd>\xd7I\xe7\xcf\xc0V\x04?\xda\xe6Isn/\xc3><"|\x18\x00B\x03?\xf3\x97\xe3\xba\xc9\x1f\xb0>\x8d\xc6\xab$o\xfa\xf8>\xbaz\xe7\xdc\xea*\xc1>\xe4\xb4\xc4%\x0b\x9f\x13?p\xe9\x18\xf8`\xf3\xcf>\xcf\xf3\xe9\xc83p\xf7>g\xdd\x7f\xab\xc0\x8a\xc2>\x01&\xe4\xba\xe9\xa7\x03?XTt\x93A\xb3\xca>\x9c\x1f\\\xf9\xe6\xa9\x06? \xff\x97z\xfd\xaf\xc3>\xdd\xcd\xf1$%y\x10?&\x86\xc6n\x0c\xa9\xc2>3k\x89\xe6 `\x01?\xc3\xebyo\xefq\xcd>\x0e\x82\xc4\x1c\xf2\x0e\x0e?1\xf4\x85/\x8eT\xb0>{(Kr\xa0v\x02?\xa5\'\xbd\xe4\x04z\xbe>DB\xf68\xceM\x0b?\x08\x87\xc7\x07R\xb7\xcf>L\xa7\x7f\xb1G,\xf0>\xd3N\xa0\x9b\xc0,\xd3>\xd4\xd0l\xc5\xb6\xbc\r?\xcd\xa8,=\x04\x1f\xc5>\xde\x00Ael\xb4\x10?\x19\xe0\xb8\xcc"+\xc4>M\x89<\x90\xcb\x83\n?\xb4\xe0"\xa3\xa2V\xce>\xeb\x1a\x15\xba\n\n\x14?w\xca\xe8\x1d\x1f\xce\xb5>\x07~\x90\xc3\xbf\x1b\x06?\xbfw\x88\xbeT\xf7\xc9>\xe8\x17%\xa1\x7f{\x06?Q\xd1\x0e\x9aA\xa6\xde>V\xe4\xb7\xcf\xaee\x03?\xdc\x01\xb1\xa6\xc5@\xd5>\xaa(\xc0\xad\xc5\xae\xff>a\xf9\xee\x17\x188\xcd>'
p159
tp160
bsg114
I48
sg115
g60
(g61
(I0
tp161
g63
tp162
Rp163
(I1
(I48
I1
tp164
g69
I00
S'AR\xc5\xa7\xe3\x807?z\xb9R\x82\xb7g\xf9>n\xdb3\xf2j17?~\xa1^\x98\xd4\xd9\xfa>\xe0\x113\x7f\xc3\xab3?\xd3\xe4\x92&"h\xfa>\xdd\xaf63\xaff7?k\xea\xe4\xafG\xa5\xf8>\x80i\xc2\xb6\xaa\xe85?\xfe\xcels\x1c\xcd\xfa>\xa3\xb6\xe4\xb3\xedi7?\x05\xa0\xfd\xca6\xb6\xf9>\xdb\xe4~\x10\xf9\x967?\x7fA\xf3Z\xf8\x90\xf8>\xc2\xcf.\xf4\x82\xbd6?V,\x15\xf3i\xcd\xf8>\r\x93g\xa8w\x867?\xfe\xaf+\x89\xfa\xd6\xf8>]\x8b\x82=\xe6y5?#DI\x961\xaf\xf9>\x05\xdd\xd83^\x137?\x16;\xf8%N\x91\xfb>\xaeu\xa5\x1d\x0c\xf07?V\xc2\x9f[(\xb1\xfa>\xe8Z\xc3\xc7B\xca7?k\x15%\x15\xd8}\xf9>\xc3k\x8e\x03LO5?\xd6\xef\x93\xc8%)\xf9>8\x98\xac\xda\xact5?\xad\x95\xed\xef\x13\xd9\xfa>n6\r\x87@.7?E\xbb\xf5\xbb>t\xfb>\xdc\xb9\x80\xce\xe3T6?\x1d\xb2\xfe_\xfc\xd8\xfb>c\xb1*A\x0bx6?fL1j\x10(\xf9>\x94\xf0G\x91t\n5?\x0c\x84\xea\x14\x98=\xf9>6g^\xf0\xe985?b\xdc\\\xda\x11\x12\xf9>\x87\xe0\x83\xca\xda\xe88?\x93V\xf9\xb9\x87\xc2\xf9>\xd6\x83_\xe0n\x1a6?]\xcc\xfa\x88\x86\xbf\xfa>\xe2\xc3N\xaf\x82\x8e4?\xf0\x85\xf7\xa0\xa1[\xf8>\xcf*F\xb0\x88;6?\xaeh\xde\xf6\xb5{\xf9>'
p165
tp166
bsg122
I5
sg22
(lp167
sg124
g60
(g61
(I0
tp168
g63
tp169
Rp170
(I1
(I48
I1
tp171
g69
I00
S'\xd1\xa6\xb6\x91\x1ca]?\xd8g\xe7b\xa5\xc1\x1f?J\xd2\xc0\xae\xc5\xfd\\?\xef$;\xdf$\xc8 ?X\xd6\xff^\xb4\x96X?\x04\xcf\x1bX\x15\x81 ?\xd4[\x04\x00[@]?\x06%\xde\x9b\x99\xce\x1e?\xe0\x03sd\xd5b[?_\x01$\xc81\xc0 ?L\xe4\xdd iD]?\x03\x84\xde>\xe2\x11 ?\x12\x9e\x9eT\xb7|]?\xdf\x11\xb0q6\xb5\x1e?\xb2\x83:\xb1\xe3l\\?lw\xdao\xc4\x00\x1f?\xd0w\x81\x92\x15h]?\xfe\x9bv+\xb9\x0c\x1f?4.\xe3\xcc_\xd8Z?\x96\xca\xed\xfd~\r ?F\x14\xcf\xc05\xd8\\?\xee$\xbb\xd7\xd0:!?\x1a\xd3\x0e%\x0f\xec]?v\xd9C9\xb9\xae ?\xa21\xb4y\xd3\xbc]?\xc6Zn\x1aN\xdd\x1f?\xb4\x06r\x04\x1f\xa3Z?\xcb\xeb\xb8:os\x1f?F\xbeW\x11\xd8\xd1Z?\x8c}\xf4u\xac\xc7 ?\n\x84\xd0\xa8\xd0\xf9\\?\x0b\x95y5\xa7(!?S\xe8 \xc2\x1c\xea[?R/\xff\xbb\x9dg!?\xbc]u\x11\x0e\x16\\?\x7f\x9f\xbd\x84\x14r\x1f?\xb9\xec\x99\xb5\x11MZ?\x0f%%\x1a\xfe\x8c\x1f?\x03\x01vl$\x87Z?{\x13\xf4P\x96V\x1f?\xa9\xd8$}\x11#_?\x1c\xd6;\xd4\x94\x19 ?\xccdw\x98\n\xa1[?\xba\xbf\x9c\x15\xb4\xb7 ?\xdbt"[#\xb2Y?lg5\t\x8ar\x1e?\x83\xb5W\xdcj\xca[?\xd9\x02\x96t\xa3\xda\x1f?'
p172
tp173
bsg131
g132
sg133
(lp174
g135
asg26
I10044
sbssS'subdomain offsets'
p175
(dp176
I389
g48
(g52
S'\t\x00\x00\x00\x00\x00\x00\x00'
p177
tp178
Rp179
sI776
g48
(g52
S'\x11\x00\x00\x00\x00\x00\x00\x00'
p180
tp181
Rp182
sI787
g48
(g52
S'\x12\x00\x00\x00\x00\x00\x00\x00'
p183
tp184
Rp185
sI917
g48
(g52
S'\x14\x00\x00\x00\x00\x00\x00\x00'
p186
tp187
Rp188
sI158
g48
(g52
S'\x00\x00\x00\x00\x00\x00\x00\x00'
p189
tp190
Rp191
sI544
g48
(g52
S'\n\x00\x00\x00\x00\x00\x00\x00'
p192
tp193
Rp194
sI169
g48
(g52
S'\x01\x00\x00\x00\x00\x00\x00\x00'
p195
tp196
Rp197
sI555
g48
(g52
S'\x0b\x00\x00\x00\x00\x00\x00\x00'
p198
tp199
Rp200
sI180
g48
(g52
S'\x02\x00\x00\x00\x00\x00\x00\x00'
p201
tp202
Rp203
sI952
g48
(g52
S'\x15\x00\x00\x00\x00\x00\x00\x00'
p204
tp205
Rp206
sI577
g48
(g52
S'\x0c\x00\x00\x00\x00\x00\x00\x00'
p207
tp208
Rp209
sI963
g48
(g52
S'\x16\x00\x00\x00\x00\x00\x00\x00'
p210
tp211
Rp212
sI588
g48
(g52
S'\r\x00\x00\x00\x00\x00\x00\x00'
p213
tp214
Rp215
sI974
g48
(g52
S'\x17\x00\x00\x00\x00\x00\x00\x00'
p216
tp217
Rp218
sI215
g48
(g52
S'\x03\x00\x00\x00\x00\x00\x00\x00'
p219
tp220
Rp221
sI345
g48
(g52
S'\x05\x00\x00\x00\x00\x00\x00\x00'
p222
tp223
Rp224
sI356
g48
(g52
S'\x06\x00\x00\x00\x00\x00\x00\x00'
p225
tp226
Rp227
sI743
g48
(g52
S'\x0e\x00\x00\x00\x00\x00\x00\x00'
p228
tp229
Rp230
sI878
g48
(g52
S'\x13\x00\x00\x00\x00\x00\x00\x00'
p231
tp232
Rp233
sI367
g48
(g52
S'\x07\x00\x00\x00\x00\x00\x00\x00'
p234
tp235
Rp236
sI754
g48
(g52
S'\x0f\x00\x00\x00\x00\x00\x00\x00'
p237
tp238
Rp239
sI378
g48
(g52
S'\x08\x00\x00\x00\x00\x00\x00\x00'
p240
tp241
Rp242
sI765
g48
(g52
S'\x10\x00\x00\x00\x00\x00\x00\x00'
p243
tp244
Rp245
sI254
g48
(g52
S'\x04\x00\x00\x00\x00\x00\x00\x00'
p246
tp247
Rp248
ssS'offset'
p249
I7
sS'domain type'
p250
g91
sS'xs'
p251
g60
(g61
(I0
tp252
g63
tp253
Rp254
(I1
(I24
I2
tp255
g49
(S'O8'
p256
I0
I1
tp257
Rp258
(I3
S'|'
p259
NNNI-1
I-1
I63
tp260
bI00
(lp261
g2
(cuncertainties
AffineScalarFunc
p262
g4
Ntp263
Rp264
(dp265
S'_nominal_value'
p266
F0.0006754112956093109
sS'derivatives'
p267
(dp268
g2
(cuncertainties
Variable
p269
g4
Ntp270
Rp271
(dp272
g266
F2.4228233219397603e-05
sS'_std_dev'
p273
g2
(cuncertainties
CallableStdDev
p274
c__builtin__
float
p275
F2.2894775083964783e-06
tp276
Rp277
sS'tag'
p278
Nsg267
(dp279
g271
F1.0
ssbF27.8770345940274
sg2
(g269
g4
Ntp280
Rp281
(dp282
g266
F0.03587182118051566
sg273
g2
(g274
g275
F0.0015383489061010281
tp283
Rp284
sg278
Nsg267
(dp285
g281
F1.0
ssbF-0.018828464052897627
ssbag2
(g262
g4
Ntp286
Rp287
(dp288
g266
F0.0350795620156271
sg267
(dp289
g2
(g269
g4
Ntp290
Rp291
(dp292
g266
F0.0003586345481115007
sg273
g2
(g274
g275
F6.535014176115214e-05
tp293
Rp294
sg278
Nsg267
(dp295
g291
F1.0
ssbF97.81422955582278
sg2
(g269
g4
Ntp296
Rp297
(dp298
g266
F0.010223461397600622
sg273
g2
(g274
g275
F0.0019985052035297753
tp299
Rp300
sg278
Nsg267
(dp301
g297
F1.0
ssbF-3.43128033171427
ssbag2
(g262
g4
Ntp302
Rp303
(dp304
g266
F0.0007091168053667319
sg267
(dp305
g2
(g269
g4
Ntp306
Rp307
(dp308
g266
F2.560701388856908e-05
sg273
g2
(g274
g275
F1.8618462083286126e-06
tp309
Rp310
sg278
Nsg267
(dp311
g307
F1.0
ssbF27.69228807593533
sg2
(g269
g4
Ntp312
Rp313
(dp314
g266
F0.03611113669112097
sg273
g2
(g274
g275
F0.0034136625916640065
tp315
Rp316
sg278
Nsg267
(dp317
g313
F1.0
ssbF-0.019637066853702506
ssbag2
(g262
g4
Ntp318
Rp319
(dp320
g266
F0.03530734548602553
sg267
(dp321
g2
(g269
g4
Ntp322
Rp323
(dp324
g266
F0.0003538976763616729
sg273
g2
(g274
g275
F3.78966014106076e-05
tp325
Rp326
sg278
Nsg267
(dp327
g323
F1.0
ssbF99.76710174819706
sg2
(g269
g4
Ntp328
Rp329
(dp330
g266
F0.010023344193398617
sg273
g2
(g274
g275
F0.0008538029776269107
tp331
Rp332
sg278
Nsg267
(dp333
g329
F1.0
ssbF-3.522511529563056
ssbag2
(g262
g4
Ntp334
Rp335
(dp336
g266
F0.0007319397623746751
sg267
(dp337
g2
(g269
g4
Ntp338
Rp339
(dp340
g266
F2.5183459375387206e-05
sg273
g2
(g274
g275
F3.46058539931862e-06
tp341
Rp342
sg278
Nsg267
(dp343
g339
F1.0
ssbF29.06430572004849
sg2
(g269
g4
Ntp344
Rp345
(dp346
g266
F0.034406464397675335
sg273
g2
(g274
g275
F0.0019758408022089785
tp347
Rp348
sg278
Nsg267
(dp349
g345
F1.0
ssbF-0.021273321022317205
ssbag2
(g262
g4
Ntp350
Rp351
(dp352
g266
F0.03437741884465
sg267
(dp353
g2
(g269
g4
Ntp354
Rp355
(dp356
g266
F0.0003001549041068679
sg273
g2
(g274
g275
F5.47811085771001e-05
tp357
Rp358
sg278
Nsg267
(dp359
g355
F1.0
ssbF114.53225775851453
sg2
(g269
g4
Ntp360
Rp361
(dp362
g266
F0.008731164648028238
sg273
g2
(g274
g275
F0.0016495676868838213
tp363
Rp364
sg278
Nsg267
(dp365
g361
F1.0
ssbF-3.9373233961878693
ssbag2
(g262
g4
Ntp366
Rp367
(dp368
g266
F0.0006583614378198551
sg267
(dp369
g2
(g269
g4
Ntp370
Rp371
(dp372
g266
F2.3503899677405226e-05
sg273
g2
(g274
g275
F2.2870634899780297e-06
tp373
Rp374
sg278
Nsg267
(dp375
g371
F1.0
ssbF28.01073212768821
sg2
(g269
g4
Ntp376
Rp377
(dp378
g266
F0.03570060202073455
sg273
g2
(g274
g275
F0.0016176790167705477
tp379
Rp380
sg278
Nsg267
(dp381
g377
F1.0
ssbF-0.018441185877971625
ssbag2
(g262
g4
Ntp382
Rp383
(dp384
g266
F0.03563091345724932
sg267
(dp385
g2
(g269
g4
Ntp386
Rp387
(dp388
g266
F0.0003570726141457462
sg273
g2
(g274
g275
F3.879333415892125e-05
tp389
Rp390
sg278
Nsg267
(dp391
g387
F1.0
ssbF99.78618366600881
sg2
(g269
g4
Ntp392
Rp393
(dp394
g266
F0.010021427448784578
sg273
g2
(g274
g275
F0.001042315177230808
tp395
Rp396
sg278
Nsg267
(dp397
g393
F1.0
ssbF-3.5554728744327457
ssbag2
(g262
g4
Ntp398
Rp399
(dp400
g266
F0.0007322661872910314
sg267
(dp401
g2
(g269
g4
Ntp402
Rp403
(dp404
g266
F2.555963075252711e-05
sg273
g2
(g274
g275
F9.610755387578156e-07
tp405
Rp406
sg278
Nsg267
(dp407
g403
F1.0
ssbF28.64932574265109
sg2
(g269
g4
Ntp408
Rp409
(dp410
g266
F0.03490483542205221
sg273
g2
(g274
g275
F0.001909740330721749
tp411
Rp412
sg278
Nsg267
(dp413
g409
F1.0
ssbF-0.02097893253002991
ssbag2
(g262
g4
Ntp414
Rp415
(dp416
g266
F0.035726285438341686
sg267
(dp417
g2
(g269
g4
Ntp418
Rp419
(dp420
g266
F0.00033430259532853807
sg273
g2
(g274
g275
F3.673136512644503e-05
tp421
Rp422
sg278
Nsg267
(dp423
g419
F1.0
ssbF106.86810673196074
sg2
(g269
g4
Ntp424
Rp425
(dp426
g266
F0.009357328679061673
sg273
g2
(g274
g275
F0.0009276610294312168
tp427
Rp428
sg278
Nsg267
(dp429
g425
F1.0
ssbF-3.8180004853611935
ssbag2
(g262
g4
Ntp430
Rp431
(dp432
g266
F0.0007257578998348632
sg267
(dp433
g2
(g269
g4
Ntp434
Rp435
(dp436
g266
F2.452065808658534e-05
sg273
g2
(g274
g275
F2.0465429095694987e-06
tp437
Rp438
sg278
Nsg267
(dp439
g435
F1.0
ssbF29.597814922916278
sg2
(g269
g4
Ntp440
Rp441
(dp442
g266
F0.03378627789262052
sg273
g2
(g274
g275
F0.0009209451428887316
tp443
Rp444
sg278
Nsg267
(dp445
g441
F1.0
ssbF-0.02148084799815669
ssbag2
(g262
g4
Ntp446
Rp447
(dp448
g266
F0.03421216494615311
sg267
(dp449
g2
(g269
g4
Ntp450
Rp451
(dp452
g266
F0.0003572659806135669
sg273
g2
(g274
g275
F2.382112351546075e-05
tp453
Rp454
sg278
Nsg267
(dp455
g451
F1.0
ssbF95.76104863776087
sg2
(g269
g4
Ntp456
Rp457
(dp458
g266
F0.010442659246378347
sg273
g2
(g274
g275
F0.0004981831866132849
tp459
Rp460
sg278
Nsg267
(dp461
g457
F1.0
ssbF-3.276192791411665
ssbag2
(g262
g4
Ntp462
Rp463
(dp464
g266
F0.0006777522331588992
sg267
(dp465
g2
(g269
g4
Ntp466
Rp467
(dp468
g266
F2.3428239441626496e-05
sg273
g2
(g274
g275
F3.8088200547101676e-06
tp469
Rp470
sg278
Nsg267
(dp471
g467
F1.0
ssbF28.92885890327261
sg2
(g269
g4
Ntp472
Rp473
(dp474
g266
F0.034567557723020795
sg273
g2
(g274
g275
F0.0009484848203301449
tp475
Rp476
sg278
Nsg267
(dp477
g473
F1.0
ssbF-0.019606598724431715
ssbag2
(g262
g4
Ntp478
Rp479
(dp480
g266
F0.03509732420964699
sg267
(dp481
g2
(g269
g4
Ntp482
Rp483
(dp484
g266
F0.00035995083498681157
sg273
g2
(g274
g275
F7.484918154850338e-05
tp485
Rp486
sg278
Nsg267
(dp487
g483
F1.0
ssbF97.50588357694168
sg2
(g269
g4
Ntp488
Rp489
(dp490
g266
F0.010255791377049593
sg273
g2
(g274
g275
F0.0019549222390577692
tp491
Rp492
sg278
Nsg267
(dp493
g489
F1.0
ssbF-3.4221956082480163
ssbag2
(g262
g4
Ntp494
Rp495
(dp496
g266
F0.0006892904419227529
sg267
(dp497
g2
(g269
g4
Ntp498
Rp499
(dp500
g266
F2.3653409873685846e-05
sg273
g2
(g274
g275
F2.210378934105052e-06
tp501
Rp502
sg278
Nsg267
(dp503
g499
F1.0
ssbF29.14127162230342
sg2
(g269
g4
Ntp504
Rp505
(dp506
g266
F0.03431559243401873
sg273
g2
(g274
g275
F0.0017657035254307891
tp507
Rp508
sg278
Nsg267
(dp509
g505
F1.0
ssbF-0.020086799994728503
ssbag2
(g262
g4
Ntp510
Rp511
(dp512
g266
F0.03517212633978141
sg267
(dp513
g2
(g269
g4
Ntp514
Rp515
(dp516
g266
F0.0003469891273042391
sg273
g2
(g274
g275
F2.2352495359079766e-05
tp517
Rp518
sg278
Nsg267
(dp519
g515
F1.0
ssbF101.363770712454
sg2
(g269
g4
Ntp520
Rp521
(dp522
g266
F0.009865457776198686
sg273
g2
(g274
g275
F0.0006809415154827867
tp523
Rp524
sg278
Nsg267
(dp525
g521
F1.0
ssbF-3.5651793497750663
ssbag2
(g262
g4
Ntp526
Rp527
(dp528
g266
F0.000733690135459091
sg267
(dp529
g2
(g269
g4
Ntp530
Rp531
(dp532
g266
F2.3689041493676892e-05
sg273
g2
(g274
g275
F3.1829141807862412e-06
tp533
Rp534
sg278
Nsg267
(dp535
g531
F1.0
ssbF30.971710512429492
sg2
(g269
g4
Ntp536
Rp537
(dp538
g266
F0.03228752895642242
sg273
g2
(g274
g275
F0.0013164913842803445
tp539
Rp540
sg278
Nsg267
(dp541
g537
F1.0
ssbF-0.022723638481264147
ssbag2
(g262
g4
Ntp542
Rp543
(dp544
g266
F0.03585221742035624
sg267
(dp545
g2
(g269
g4
Ntp546
Rp547
(dp548
g266
F0.0003589670308470773
sg273
g2
(g274
g275
F3.749067342269028e-05
tp549
Rp550
sg278
Nsg267
(dp551
g547
F1.0
ssbF99.8760731194547
sg2
(g269
g4
Ntp552
Rp553
(dp554
g266
F0.010012408064982398
sg273
g2
(g274
g275
F0.0005463077754211329
tp555
Rp556
sg278
Nsg267
(dp557
g553
F1.0
ssbF-3.580778688570088
ssbag2
(g262
g4
Ntp558
Rp559
(dp560
g266
F0.0007178192669107131
sg267
(dp561
g2
(g269
g4
Ntp562
Rp563
(dp564
g266
F2.449450529901446e-05
sg273
g2
(g274
g275
F2.3469283021436855e-06
tp565
Rp566
sg278
Nsg267
(dp567
g563
F1.0
ssbF29.305317994709398
sg2
(g269
g4
Ntp568
Rp569
(dp570
g266
F0.034123499365559994
sg273
g2
(g274
g275
F0.0020191805309527243
tp571
Rp572
sg278
Nsg267
(dp573
g569
F1.0
ssbF-0.02103592187954763
ssbag2
(g262
g4
Ntp574
Rp575
(dp576
g266
F0.03481843252559806
sg267
(dp577
g2
(g269
g4
Ntp578
Rp579
(dp580
g266
F0.0003277003393213263
sg273
g2
(g274
g275
F4.322754027269381e-05
tp581
Rp582
sg278
Nsg267
(dp583
g579
F1.0
ssbF106.25082841753446
sg2
(g269
g4
Ntp584
Rp585
(dp586
g266
F0.009411691324140029
sg273
g2
(g274
g275
F0.0010923594117789083
tp587
Rp588
sg278
Nsg267
(dp589
g585
F1.0
ssbF-3.699487300044821
ssbag2
(g262
g4
Ntp590
Rp591
(dp592
g266
F0.0007503682109449876
sg267
(dp593
g2
(g269
g4
Ntp594
Rp595
(dp596
g266
F2.629051084395835e-05
sg273
g2
(g274
g275
F2.2244865844490707e-06
tp597
Rp598
sg278
Nsg267
(dp599
g595
F1.0
ssbF28.541408548454463
sg2
(g269
g4
Ntp600
Rp601
(dp602
g266
F0.03503681320781033
sg273
g2
(g274
g275
F0.0013151818968028196
tp603
Rp604
sg278
Nsg267
(dp605
g601
F1.0
ssbF-0.02141656567035375
ssbag2
(g262
g4
Ntp606
Rp607
(dp608
g266
F0.03515577520422449
sg267
(dp609
g2
(g269
g4
Ntp610
Rp611
(dp612
g266
F0.0003521065699234191
sg273
g2
(g274
g275
F6.284035883812691e-05
tp613
Rp614
sg278
Nsg267
(dp615
g611
F1.0
ssbF99.84413301879214
sg2
(g269
g4
Ntp616
Rp617
(dp618
g266
F0.01001561103056286
sg273
g2
(g274
g275
F0.0014856472810149863
tp619
Rp620
sg278
Nsg267
(dp621
g617
F1.0
ssbF-3.510097895869344
ssbag2
(g262
g4
Ntp622
Rp623
(dp624
g266
F0.0007459419520344204
sg267
(dp625
g2
(g269
g4
Ntp626
Rp627
(dp628
g266
F2.545549589422416e-05
sg273
g2
(g274
g275
F3.510124652992301e-06
tp629
Rp630
sg278
Nsg267
(dp631
g627
F1.0
ssbF29.303768236692427
sg2
(g269
g4
Ntp632
Rp633
(dp634
g266
F0.03412530401970146
sg273
g2
(g274
g275
F0.00244992517893325
tp635
Rp636
sg278
Nsg267
(dp637
g633
F1.0
ssbF-0.0218589100804426
ssbag2
(g262
g4
Ntp638
Rp639
(dp640
g266
F0.03550484937073954
sg267
(dp641
g2
(g269
g4
Ntp642
Rp643
(dp644
g266
F0.00036526008411449484
sg273
g2
(g274
g275
F3.314114002669066e-05
tp645
Rp646
sg278
Nsg267
(dp647
g643
F1.0
ssbF97.20429610263723
sg2
(g269
g4
Ntp648
Rp649
(dp650
g266
F0.01028761114574718
sg273
g2
(g274
g275
F0.0010345949450419462
tp651
Rp652
sg278
Nsg267
(dp653
g649
F1.0
ssbF-3.4512238913128996
ssbag2
(g262
g4
Ntp654
Rp655
(dp656
g266
F0.00070624920960482
sg267
(dp657
g2
(g269
g4
Ntp658
Rp659
(dp660
g266
F2.431066361309934e-05
sg273
g2
(g274
g275
F9.733614075573531e-07
tp661
Rp662
sg278
Nsg267
(dp663
g659
F1.0
ssbF29.05100497644462
sg2
(g269
g4
Ntp664
Rp665
(dp666
g266
F0.03442221709062487
sg273
g2
(g274
g275
F0.0017773361877827867
tp667
Rp668
sg278
Nsg267
(dp669
g665
F1.0
ssbF-0.020517249302839706
ssbag2
(g262
g4
Ntp670
Rp671
(dp672
g266
F0.03510369616915969
sg267
(dp673
g2
(g269
g4
Ntp674
Rp675
(dp676
g266
F0.00036300783518809646
sg273
g2
(g274
g275
F5.7331813510201013e-05
tp677
Rp678
sg278
Nsg267
(dp679
g675
F1.0
ssbF96.70230988532336
sg2
(g269
g4
Ntp680
Rp681
(dp682
g266
F0.010341014616774644
sg273
g2
(g274
g275
F0.0011735889244513468
tp683
Rp684
sg278
Nsg267
(dp685
g681
F1.0
ssbF-3.3946085050703187
ssbag2
(g262
g4
Ntp686
Rp687
(dp688
g266
F0.0007166218669790576
sg267
(dp689
g2
(g269
g4
Ntp690
Rp691
(dp692
g266
F2.399514463478899e-05
sg273
g2
(g274
g275
F1.8165491324100677e-06
tp693
Rp694
sg278
Nsg267
(dp695
g691
F1.0
ssbF29.865286410487997
sg2
(g269
g4
Ntp696
Rp697
(dp698
g266
F0.03348369027021362
sg273
g2
(g274
g275
F0.0019899018935666487
tp699
Rp700
sg278
Nsg267
(dp701
g697
F1.0
ssbF-0.02140211730534819
ssbag2
(g262
g4
Ntp702
Rp703
(dp704
g266
F0.03525093945645613
sg267
(dp705
g2
(g269
g4
Ntp706
Rp707
(dp708
g266
F0.0003251610356131385
sg273
g2
(g274
g275
F3.52161135076115e-05
tp709
Rp710
sg278
Nsg267
(dp711
g707
F1.0
ssbF108.41071221828702
sg2
(g269
g4
Ntp712
Rp713
(dp714
g266
F0.00922418070629848
sg273
g2
(g274
g275
F0.0007712319066043686
tp715
Rp716
sg278
Nsg267
(dp717
g713
F1.0
ssbF-3.8215794528381246
ssbag2
(g262
g4
Ntp718
Rp719
(dp720
g266
F0.0007373801391736637
sg267
(dp721
g2
(g269
g4
Ntp722
Rp723
(dp724
g266
F2.5604210346049576e-05
sg273
g2
(g274
g275
F3.780853204058617e-06
tp725
Rp726
sg278
Nsg267
(dp727
g723
F1.0
ssbF28.799175182820377
sg2
(g269
g4
Ntp728
Rp729
(dp730
g266
F0.034723216677279414
sg273
g2
(g274
g275
F0.0006424245708824055
tp731
Rp732
sg278
Nsg267
(dp733
g729
F1.0
ssbF-0.021235939804394813
ssbag2
(g262
g4
Ntp734
Rp735
(dp736
g266
F0.03536717434088253
sg267
(dp737
g2
(g269
g4
Ntp738
Rp739
(dp740
g266
F0.000327388954860178
sg273
g2
(g274
g275
F5.207810965679853e-05
tp741
Rp742
sg278
Nsg267
(dp743
g739
F1.0
ssbF108.02800099345814
sg2
(g269
g4
Ntp744
Rp745
(dp746
g266
F0.009256859247636704
sg273
g2
(g274
g275
F0.0014554048380987794
tp747
Rp748
sg278
Nsg267
(dp749
g745
F1.0
ssbF-3.820645144832665
ssbag2
(g262
g4
Ntp750
Rp751
(dp752
g266
F0.0007547596943148117
sg267
(dp753
g2
(g269
g4
Ntp754
Rp755
(dp756
g266
F2.6182253120617176e-05
sg273
g2
(g274
g275
F4.5716318997250875e-06
tp757
Rp758
sg278
Nsg267
(dp759
g755
F1.0
ssbF28.82714832973933
sg2
(g269
g4
Ntp760
Rp761
(dp762
g266
F0.03468952213245307
sg273
g2
(g274
g275
F0.001464532862772715
tp763
Rp764
sg278
Nsg267
(dp765
g761
F1.0
ssbF-0.021757569661321793
ssbag2
(g262
g4
Ntp766
Rp767
(dp768
g266
F0.035086011769270564
sg267
(dp769
g2
(g269
g4
Ntp770
Rp771
(dp772
g266
F0.0003537089860870872
sg273
g2
(g274
g275
F1.542374511124345e-05
tp773
Rp774
sg278
Nsg267
(dp775
g771
F1.0
ssbF99.19457279672274
sg2
(g269
g4
Ntp776
Rp777
(dp778
g266
F0.010081196700642867
sg273
g2
(g274
g275
F0.0004137149323186131
tp779
Rp780
sg278
Nsg267
(dp781
g777
F1.0
ssbF-3.4803419485935794
ssbag2
(g262
g4
Ntp782
Rp783
(dp784
g266
F0.0007689977413249654
sg267
(dp785
g2
(g269
g4
Ntp786
Rp787
(dp788
g266
F2.6557541786752682e-05
sg273
g2
(g274
g275
F2.517838291101176e-06
tp789
Rp790
sg278
Nsg267
(dp791
g787
F1.0
ssbF28.95590817477518
sg2
(g269
g4
Ntp792
Rp793
(dp794
g266
F0.034535266307797796
sg273
g2
(g274
g275
F0.0010325999062457511
tp795
Rp796
sg278
Nsg267
(dp797
g793
F1.0
ssbF-0.022267027984415214
ssbag2
(g262
g4
Ntp798
Rp799
(dp800
g266
F0.03475157696094442
sg267
(dp801
g2
(g269
g4
Ntp802
Rp803
(dp804
g266
F0.0003407531899054775
sg273
g2
(g274
g275
F5.671913884555823e-05
tp805
Rp806
sg278
Nsg267
(dp807
g803
F1.0
ssbF101.98459762206265
sg2
(g269
g4
Ntp808
Rp809
(dp810
g266
F0.00980540222069442
sg273
g2
(g274
g275
F0.00146482828525712
tp811
Rp812
sg278
Nsg267
(dp813
g809
F1.0
ssbF-3.5441255930940594
ssbag2
(g262
g4
Ntp814
Rp815
(dp816
g266
F0.0006902399067505683
sg267
(dp817
g2
(g269
g4
Ntp818
Rp819
(dp820
g266
F2.399110838908723e-05
sg273
g2
(g274
g275
F2.404272526648082e-06
tp821
Rp822
sg278
Nsg267
(dp823
g819
F1.0
ssbF28.77065517592075
sg2
(g269
g4
Ntp824
Rp825
(dp826
g266
F0.03475763738731045
sg273
g2
(g274
g275
F0.0014161505260634978
tp827
Rp828
sg278
Nsg267
(dp829
g825
F1.0
ssbF-0.019858654345780297
ssbag2
(g262
g4
Ntp830
Rp831
(dp832
g266
F0.035278700060855255
sg267
(dp833
g2
(g269
g4
Ntp834
Rp835
(dp836
g266
F0.0003428485371539584
sg273
g2
(g274
g275
F6.372367471474706e-05
tp837
Rp838
sg278
Nsg267
(dp839
g835
F1.0
ssbF102.89879126715692
sg2
(g269
g4
Ntp840
Rp841
(dp842
g266
F0.009718287141038347
sg273
g2
(g274
g275
F0.001090443754540927
tp843
Rp844
sg278
Nsg267
(dp845
g841
F1.0
ssbF-3.6301355937385815
ssbag2
(g262
g4
Ntp846
Rp847
(dp848
g266
F0.0006876844797395528
sg267
(dp849
g2
(g269
g4
Ntp850
Rp851
(dp852
g266
F2.4071313698418486e-05
sg273
g2
(g274
g275
F3.6166213926679887e-06
tp853
Rp854
sg278
Nsg267
(dp855
g851
F1.0
ssbF28.568631041717286
sg2
(g269
g4
Ntp856
Rp857
(dp858
g266
F0.03500342730947633
sg273
g2
(g274
g275
F0.002270361849729243
tp859
Rp860
sg278
Nsg267
(dp861
g857
F1.0
ssbF-0.01964620417479459
ssbag2
(g262
g4
Ntp862
Rp863
(dp864
g266
F0.03535620142139339
sg267
(dp865
g2
(g269
g4
Ntp866
Rp867
(dp868
g266
F0.0003210577572472309
sg273
g2
(g274
g275
F5.05730149866929e-05
tp869
Rp870
sg278
Nsg267
(dp871
g867
F1.0
ssbF110.12411512663532
sg2
(g269
g4
Ntp872
Rp873
(dp874
g266
F0.009080663203060177
sg273
g2
(g274
g275
F0.0014680092332340186
tp875
Rp876
sg278
Nsg267
(dp877
g873
F1.0
ssbF-3.8935703957700327
ssbag2
(g262
g4
Ntp878
Rp879
(dp880
g266
F0.0006863285404205986
sg267
(dp881
g2
(g269
g4
Ntp882
Rp883
(dp884
g266
F2.3909172930572014e-05
sg273
g2
(g274
g275
F1.2996889534709743e-06
tp885
Rp886
sg278
Nsg267
(dp887
g883
F1.0
ssbF28.705657967072916
sg2
(g269
g4
Ntp888
Rp889
(dp890
g266
F0.03483633787969811
sg273
g2
(g274
g275
F0.0024083080370463383
tp891
Rp892
sg278
Nsg267
(dp893
g889
F1.0
ssbF-0.019701512334354083
ssbag2
(g262
g4
Ntp894
Rp895
(dp896
g266
F0.034788359354539174
sg267
(dp897
g2
(g269
g4
Ntp898
Rp899
(dp900
g266
F0.0003238268985740091
sg273
g2
(g274
g275
F7.644358131129638e-05
tp901
Rp902
sg278
Nsg267
(dp903
g899
F1.0
ssbF107.42887483322656
sg2
(g269
g4
Ntp904
Rp905
(dp906
g266
F0.00930848434885321
sg273
g2
(g274
g275
F0.001665173212779819
tp907
Rp908
sg278
Nsg267
(dp909
g905
F1.0
ssbF-3.737274302752095
ssbag2
(g262
g4
Ntp910
Rp911
(dp912
g266
F0.0007080355012376787
sg267
(dp913
g2
(g269
g4
Ntp914
Rp915
(dp916
g266
F2.4566539308010378e-05
sg273
g2
(g274
g275
F3.09540472566338e-06
tp917
Rp918
sg278
Nsg267
(dp919
g915
F1.0
ssbF28.821133182841532
sg2
(g269
g4
Ntp920
Rp921
(dp922
g266
F0.034696762048042694
sg273
g2
(g274
g275
F0.0014529362205873678
tp923
Rp924
sg278
Nsg267
(dp925
g921
F1.0
ssbF-0.0204063854793511
ssbag2
(g262
g4
Ntp926
Rp927
(dp928
g266
F0.0360037558517031
sg267
(dp929
g2
(g269
g4
Ntp930
Rp931
(dp932
g266
F0.00038009015635465836
sg273
g2
(g274
g275
F4.2168416662710004e-05
tp933
Rp934
sg278
Nsg267
(dp935
g931
F1.0
ssbF94.72425225900446
sg2
(g269
g4
Ntp936
Rp937
(dp938
g266
F0.010556958499558284
sg273
g2
(g274
g275
F0.0006795603129221217
tp939
Rp940
sg278
Nsg267
(dp941
g937
F1.0
ssbF-3.4104288515683323
ssbag2
(g262
g4
Ntp942
Rp943
(dp944
g266
F0.0007144143421189486
sg267
(dp945
g2
(g269
g4
Ntp946
Rp947
(dp948
g266
F2.55090204166027e-05
sg273
g2
(g274
g275
F7.307395578349676e-06
tp949
Rp950
sg278
Nsg267
(dp951
g947
F1.0
ssbF28.00634169605226
sg2
(g269
g4
Ntp952
Rp953
(dp954
g266
F0.03570619864789262
sg273
g2
(g274
g275
F0.0021021491573992635
tp955
Rp956
sg278
Nsg267
(dp957
g953
F1.0
ssbF-0.020008132177943654
ssbag2
(g262
g4
Ntp958
Rp959
(dp960
g266
F0.03419579341814672
sg267
(dp961
g2
(g269
g4
Ntp962
Rp963
(dp964
g266
F0.00033726889557611267
sg273
g2
(g274
g275
F4.288180584181828e-05
tp965
Rp966
sg278
Nsg267
(dp967
g963
F1.0
ssbF101.39029678302971
sg2
(g269
g4
Ntp968
Rp969
(dp970
g266
F0.009862876741942587
sg273
g2
(g274
g275
F0.0013154511453208778
tp971
Rp972
sg278
Nsg267
(dp973
g969
F1.0
ssbF-3.46712164339707
ssbag2
(g262
g4
Ntp974
Rp975
(dp976
g266
F0.0006632721712466915
sg267
(dp977
g2
(g269
g4
Ntp978
Rp979
(dp980
g266
F2.322953701917001e-05
sg273
g2
(g274
g275
F5.06711385656096e-06
tp981
Rp982
sg278
Nsg267
(dp983
g979
F1.0
ssbF28.552965592871306
sg2
(g269
g4
Ntp984
Rp985
(dp986
g266
F0.03502263177348085
sg273
g2
(g274
g275
F0.0021975127125047544
tp987
Rp988
sg278
Nsg267
(dp989
g985
F1.0
ssbF-0.018938387484315828
ssbag2
(g262
g4
Ntp990
Rp991
(dp992
g266
F0.034387275311354465
sg267
(dp993
g2
(g269
g4
Ntp994
Rp995
(dp996
g266
F0.00031367006823318337
sg273
g2
(g274
g275
F3.699722034506611e-05
tp997
Rp998
sg278
Nsg267
(dp999
g995
F1.0
ssbF109.62880680661839
sg2
(g269
g4
Ntp1000
Rp1001
(dp1002
g266
F0.009121690084285667
sg273
g2
(g274
g275
F0.0011771903654532844
tp1003
Rp1004
sg278
Nsg267
(dp1005
g1001
F1.0
ssbF-3.769835961714477
ssbag2
(g262
g4
Ntp1006
Rp1007
(dp1008
g266
F0.0007070160016060254
sg267
(dp1009
g2
(g269
g4
Ntp1010
Rp1011
(dp1012
g266
F2.4302716546389137e-05
sg273
g2
(g274
g275
F3.4831902548652687e-06
tp1013
Rp1014
sg278
Nsg267
(dp1015
g1011
F1.0
ssbF29.0920564479477
sg2
(g269
g4
Ntp1016
Rp1017
(dp1018
g266
F0.03437364428978155
sg273
g2
(g274
g275
F0.0013110930002336698
tp1019
Rp1020
sg278
Nsg267
(dp1021
g1017
F1.0
ssbF-0.020568549428324777
ssbag2
(g262
g4
Ntp1022
Rp1023
(dp1024
g266
F0.034546648102037905
sg267
(dp1025
g2
(g269
g4
Ntp1026
Rp1027
(dp1028
g266
F0.00033924185870463653
sg273
g2
(g274
g275
F3.021498092440541e-05
tp1029
Rp1030
sg278
Nsg267
(dp1031
g1027
F1.0
ssbF101.8348626963402
sg2
(g269
g4
Ntp1032
Rp1033
(dp1034
g266
F0.009819819789828602
sg273
g2
(g274
g275
F0.0006849977554709221
tp1035
Rp1036
sg278
Nsg267
(dp1037
g1033
F1.0
ssbF-3.518053166089812
ssbatp1038
bsS'# groups'
p1039
I2
sS'xs type'
p1040
g135
s.